
Optional file libmchp_peripheral.a not found

Optional file libmchp_peripheral_32MX150F128D.a not found
Archive member included because of file (symbol)

c:/program files (x86)/microchip/xc32/v2.05/bin/bin/../../lib/gcc/pic32mx/4.8.3\libgcc.a(floatunsisf.o)
                              build/default/debug/NxpNfcRdLib/comps/phhalHw/src/Pn5180/phhalHw_Pn5180.o (__floatunsisf)
c:/program files (x86)/microchip/xc32/v2.05/bin/bin/../../lib/gcc/pic32mx/4.8.3/../../../../pic32mx/lib\libpic32.a(memcmp.o)
                              build/default/debug/NxpNfcRdLib/comps/phpalI14443p4/src/Sw/phpalI14443p4_Sw.o (memcmp)
c:/program files (x86)/microchip/xc32/v2.05/bin/bin/../../lib/gcc/pic32mx/4.8.3/../../../../pic32mx/lib\libpic32.a(memcpy.o)
                              build/default/debug/NxpNfcRdLib/comps/phalMfc/src/Sw/phalMfc_Sw.o (memcpy)
c:/program files (x86)/microchip/xc32/v2.05/bin/bin/../../lib/gcc/pic32mx/4.8.3/../../../../pic32mx/lib\libpic32.a(memset.o)
                              build/default/debug/NxpNfcRdLib/comps/phalMfc/src/Sw/phalMfc_Sw.o (memset)
c:/program files (x86)/microchip/xc32/v2.05/bin/bin/../../lib/gcc/pic32mx/4.8.3/../../../../pic32mx/lib\libpic32.a(strcpy.o)
                              build/default/debug/main.o (strcpy)
c:/program files (x86)/microchip/xc32/v2.05/bin/bin/../../lib/gcc/pic32mx/4.8.3/../../../../pic32mx/lib\libpic32.a(default-bootstrap-exception-handler.o)
                              c:/program files (x86)/microchip/xc32/v2.05/bin/bin/../../lib/gcc/pic32mx/4.8.3/../../../../pic32mx/lib/./proc/32MX150F128D/crt0_mips32r2.o (_bootstrap_exception_handler)
c:/program files (x86)/microchip/xc32/v2.05/bin/bin/../../lib/gcc/pic32mx/4.8.3/../../../../pic32mx/lib\libpic32.a(default-on-reset.o)
                              c:/program files (x86)/microchip/xc32/v2.05/bin/bin/../../lib/gcc/pic32mx/4.8.3/../../../../pic32mx/lib/./proc/32MX150F128D/crt0_mips32r2.o (_on_reset)
c:/program files (x86)/microchip/xc32/v2.05/bin/bin/../../lib/gcc/pic32mx/4.8.3/../../../../pic32mx/lib\libpic32.a(default-on-bootstrap.o)
                              c:/program files (x86)/microchip/xc32/v2.05/bin/bin/../../lib/gcc/pic32mx/4.8.3/../../../../pic32mx/lib/./proc/32MX150F128D/crt0_mips32r2.o (_on_bootstrap)
c:/program files (x86)/microchip/xc32/v2.05/bin/bin/../../lib/gcc/pic32mx/4.8.3/../../../../pic32mx/lib\libpic32.a(default-nmi-handler.o)
                              c:/program files (x86)/microchip/xc32/v2.05/bin/bin/../../lib/gcc/pic32mx/4.8.3/../../../../pic32mx/lib/./proc/32MX150F128D/crt0_mips32r2.o (_nmi_handler)
c:/program files (x86)/microchip/xc32/v2.05/bin/bin/../../lib/gcc/pic32mx/4.8.3/../../../../pic32mx/lib\libpic32.a(general-exception.o)
                              c:/program files (x86)/microchip/xc32/v2.05/bin/bin/../../lib/gcc/pic32mx/4.8.3/../../../../pic32mx/lib/./proc/32MX150F128D/crt0_mips32r2.o (_general_exception_context)
c:/program files (x86)/microchip/xc32/v2.05/bin/bin/../../lib/gcc/pic32mx/4.8.3/../../../../pic32mx/lib\libpic32.a(vector0.o)
                              c:/program files (x86)/microchip/xc32/v2.05/bin/bin/../../lib/gcc/pic32mx/4.8.3/../../../../pic32mx/lib/./proc/32MX150F128D\default_isr_vectors.o (__vector_dispatch_0)
c:/program files (x86)/microchip/xc32/v2.05/bin/bin/../../lib/gcc/pic32mx/4.8.3/../../../../pic32mx/lib\libpic32.a(vector1.o)
                              c:/program files (x86)/microchip/xc32/v2.05/bin/bin/../../lib/gcc/pic32mx/4.8.3/../../../../pic32mx/lib/./proc/32MX150F128D\default_isr_vectors.o (__vector_dispatch_1)
c:/program files (x86)/microchip/xc32/v2.05/bin/bin/../../lib/gcc/pic32mx/4.8.3/../../../../pic32mx/lib\libpic32.a(vector2.o)
                              c:/program files (x86)/microchip/xc32/v2.05/bin/bin/../../lib/gcc/pic32mx/4.8.3/../../../../pic32mx/lib/./proc/32MX150F128D\default_isr_vectors.o (__vector_dispatch_2)
c:/program files (x86)/microchip/xc32/v2.05/bin/bin/../../lib/gcc/pic32mx/4.8.3/../../../../pic32mx/lib\libpic32.a(vector3.o)
                              c:/program files (x86)/microchip/xc32/v2.05/bin/bin/../../lib/gcc/pic32mx/4.8.3/../../../../pic32mx/lib/./proc/32MX150F128D\default_isr_vectors.o (__vector_dispatch_3)
c:/program files (x86)/microchip/xc32/v2.05/bin/bin/../../lib/gcc/pic32mx/4.8.3/../../../../pic32mx/lib\libpic32.a(vector5.o)
                              c:/program files (x86)/microchip/xc32/v2.05/bin/bin/../../lib/gcc/pic32mx/4.8.3/../../../../pic32mx/lib/./proc/32MX150F128D\default_isr_vectors.o (__vector_dispatch_5)
c:/program files (x86)/microchip/xc32/v2.05/bin/bin/../../lib/gcc/pic32mx/4.8.3/../../../../pic32mx/lib\libpic32.a(vector6.o)
                              c:/program files (x86)/microchip/xc32/v2.05/bin/bin/../../lib/gcc/pic32mx/4.8.3/../../../../pic32mx/lib/./proc/32MX150F128D\default_isr_vectors.o (__vector_dispatch_6)
c:/program files (x86)/microchip/xc32/v2.05/bin/bin/../../lib/gcc/pic32mx/4.8.3/../../../../pic32mx/lib\libpic32.a(vector7.o)
                              c:/program files (x86)/microchip/xc32/v2.05/bin/bin/../../lib/gcc/pic32mx/4.8.3/../../../../pic32mx/lib/./proc/32MX150F128D\default_isr_vectors.o (__vector_dispatch_7)
c:/program files (x86)/microchip/xc32/v2.05/bin/bin/../../lib/gcc/pic32mx/4.8.3/../../../../pic32mx/lib\libpic32.a(vector9.o)
                              c:/program files (x86)/microchip/xc32/v2.05/bin/bin/../../lib/gcc/pic32mx/4.8.3/../../../../pic32mx/lib/./proc/32MX150F128D\default_isr_vectors.o (__vector_dispatch_9)
c:/program files (x86)/microchip/xc32/v2.05/bin/bin/../../lib/gcc/pic32mx/4.8.3/../../../../pic32mx/lib\libpic32.a(vector10.o)
                              c:/program files (x86)/microchip/xc32/v2.05/bin/bin/../../lib/gcc/pic32mx/4.8.3/../../../../pic32mx/lib/./proc/32MX150F128D\default_isr_vectors.o (__vector_dispatch_10)
c:/program files (x86)/microchip/xc32/v2.05/bin/bin/../../lib/gcc/pic32mx/4.8.3/../../../../pic32mx/lib\libpic32.a(vector11.o)
                              c:/program files (x86)/microchip/xc32/v2.05/bin/bin/../../lib/gcc/pic32mx/4.8.3/../../../../pic32mx/lib/./proc/32MX150F128D\default_isr_vectors.o (__vector_dispatch_11)
c:/program files (x86)/microchip/xc32/v2.05/bin/bin/../../lib/gcc/pic32mx/4.8.3/../../../../pic32mx/lib\libpic32.a(vector12.o)
                              c:/program files (x86)/microchip/xc32/v2.05/bin/bin/../../lib/gcc/pic32mx/4.8.3/../../../../pic32mx/lib/./proc/32MX150F128D\default_isr_vectors.o (__vector_dispatch_12)
c:/program files (x86)/microchip/xc32/v2.05/bin/bin/../../lib/gcc/pic32mx/4.8.3/../../../../pic32mx/lib\libpic32.a(vector13.o)
                              c:/program files (x86)/microchip/xc32/v2.05/bin/bin/../../lib/gcc/pic32mx/4.8.3/../../../../pic32mx/lib/./proc/32MX150F128D\default_isr_vectors.o (__vector_dispatch_13)
c:/program files (x86)/microchip/xc32/v2.05/bin/bin/../../lib/gcc/pic32mx/4.8.3/../../../../pic32mx/lib\libpic32.a(vector14.o)
                              c:/program files (x86)/microchip/xc32/v2.05/bin/bin/../../lib/gcc/pic32mx/4.8.3/../../../../pic32mx/lib/./proc/32MX150F128D\default_isr_vectors.o (__vector_dispatch_14)
c:/program files (x86)/microchip/xc32/v2.05/bin/bin/../../lib/gcc/pic32mx/4.8.3/../../../../pic32mx/lib\libpic32.a(vector15.o)
                              c:/program files (x86)/microchip/xc32/v2.05/bin/bin/../../lib/gcc/pic32mx/4.8.3/../../../../pic32mx/lib/./proc/32MX150F128D\default_isr_vectors.o (__vector_dispatch_15)
c:/program files (x86)/microchip/xc32/v2.05/bin/bin/../../lib/gcc/pic32mx/4.8.3/../../../../pic32mx/lib\libpic32.a(vector16.o)
                              c:/program files (x86)/microchip/xc32/v2.05/bin/bin/../../lib/gcc/pic32mx/4.8.3/../../../../pic32mx/lib/./proc/32MX150F128D\default_isr_vectors.o (__vector_dispatch_16)
c:/program files (x86)/microchip/xc32/v2.05/bin/bin/../../lib/gcc/pic32mx/4.8.3/../../../../pic32mx/lib\libpic32.a(vector17.o)
                              c:/program files (x86)/microchip/xc32/v2.05/bin/bin/../../lib/gcc/pic32mx/4.8.3/../../../../pic32mx/lib/./proc/32MX150F128D\default_isr_vectors.o (__vector_dispatch_17)
c:/program files (x86)/microchip/xc32/v2.05/bin/bin/../../lib/gcc/pic32mx/4.8.3/../../../../pic32mx/lib\libpic32.a(vector18.o)
                              c:/program files (x86)/microchip/xc32/v2.05/bin/bin/../../lib/gcc/pic32mx/4.8.3/../../../../pic32mx/lib/./proc/32MX150F128D\default_isr_vectors.o (__vector_dispatch_18)
c:/program files (x86)/microchip/xc32/v2.05/bin/bin/../../lib/gcc/pic32mx/4.8.3/../../../../pic32mx/lib\libpic32.a(vector19.o)
                              c:/program files (x86)/microchip/xc32/v2.05/bin/bin/../../lib/gcc/pic32mx/4.8.3/../../../../pic32mx/lib/./proc/32MX150F128D\default_isr_vectors.o (__vector_dispatch_19)
c:/program files (x86)/microchip/xc32/v2.05/bin/bin/../../lib/gcc/pic32mx/4.8.3/../../../../pic32mx/lib\libpic32.a(vector20.o)
                              c:/program files (x86)/microchip/xc32/v2.05/bin/bin/../../lib/gcc/pic32mx/4.8.3/../../../../pic32mx/lib/./proc/32MX150F128D\default_isr_vectors.o (__vector_dispatch_20)
c:/program files (x86)/microchip/xc32/v2.05/bin/bin/../../lib/gcc/pic32mx/4.8.3/../../../../pic32mx/lib\libpic32.a(vector21.o)
                              c:/program files (x86)/microchip/xc32/v2.05/bin/bin/../../lib/gcc/pic32mx/4.8.3/../../../../pic32mx/lib/./proc/32MX150F128D\default_isr_vectors.o (__vector_dispatch_21)
c:/program files (x86)/microchip/xc32/v2.05/bin/bin/../../lib/gcc/pic32mx/4.8.3/../../../../pic32mx/lib\libpic32.a(vector22.o)
                              c:/program files (x86)/microchip/xc32/v2.05/bin/bin/../../lib/gcc/pic32mx/4.8.3/../../../../pic32mx/lib/./proc/32MX150F128D\default_isr_vectors.o (__vector_dispatch_22)
c:/program files (x86)/microchip/xc32/v2.05/bin/bin/../../lib/gcc/pic32mx/4.8.3/../../../../pic32mx/lib\libpic32.a(vector24.o)
                              c:/program files (x86)/microchip/xc32/v2.05/bin/bin/../../lib/gcc/pic32mx/4.8.3/../../../../pic32mx/lib/./proc/32MX150F128D\default_isr_vectors.o (__vector_dispatch_24)
c:/program files (x86)/microchip/xc32/v2.05/bin/bin/../../lib/gcc/pic32mx/4.8.3/../../../../pic32mx/lib\libpic32.a(vector25.o)
                              c:/program files (x86)/microchip/xc32/v2.05/bin/bin/../../lib/gcc/pic32mx/4.8.3/../../../../pic32mx/lib/./proc/32MX150F128D\default_isr_vectors.o (__vector_dispatch_25)
c:/program files (x86)/microchip/xc32/v2.05/bin/bin/../../lib/gcc/pic32mx/4.8.3/../../../../pic32mx/lib\libpic32.a(vector26.o)
                              c:/program files (x86)/microchip/xc32/v2.05/bin/bin/../../lib/gcc/pic32mx/4.8.3/../../../../pic32mx/lib/./proc/32MX150F128D\default_isr_vectors.o (__vector_dispatch_26)
c:/program files (x86)/microchip/xc32/v2.05/bin/bin/../../lib/gcc/pic32mx/4.8.3/../../../../pic32mx/lib\libpic32.a(vector27.o)
                              c:/program files (x86)/microchip/xc32/v2.05/bin/bin/../../lib/gcc/pic32mx/4.8.3/../../../../pic32mx/lib/./proc/32MX150F128D\default_isr_vectors.o (__vector_dispatch_27)
c:/program files (x86)/microchip/xc32/v2.05/bin/bin/../../lib/gcc/pic32mx/4.8.3/../../../../pic32mx/lib\libpic32.a(vector28.o)
                              c:/program files (x86)/microchip/xc32/v2.05/bin/bin/../../lib/gcc/pic32mx/4.8.3/../../../../pic32mx/lib/./proc/32MX150F128D\default_isr_vectors.o (__vector_dispatch_28)
c:/program files (x86)/microchip/xc32/v2.05/bin/bin/../../lib/gcc/pic32mx/4.8.3/../../../../pic32mx/lib\libpic32.a(vector29.o)
                              c:/program files (x86)/microchip/xc32/v2.05/bin/bin/../../lib/gcc/pic32mx/4.8.3/../../../../pic32mx/lib/./proc/32MX150F128D\default_isr_vectors.o (__vector_dispatch_29)
c:/program files (x86)/microchip/xc32/v2.05/bin/bin/../../lib/gcc/pic32mx/4.8.3/../../../../pic32mx/lib\libpic32.a(vector30.o)
                              c:/program files (x86)/microchip/xc32/v2.05/bin/bin/../../lib/gcc/pic32mx/4.8.3/../../../../pic32mx/lib/./proc/32MX150F128D\default_isr_vectors.o (__vector_dispatch_30)
c:/program files (x86)/microchip/xc32/v2.05/bin/bin/../../lib/gcc/pic32mx/4.8.3/../../../../pic32mx/lib\libpic32.a(vector31.o)
                              c:/program files (x86)/microchip/xc32/v2.05/bin/bin/../../lib/gcc/pic32mx/4.8.3/../../../../pic32mx/lib/./proc/32MX150F128D\default_isr_vectors.o (__vector_dispatch_31)
c:/program files (x86)/microchip/xc32/v2.05/bin/bin/../../lib/gcc/pic32mx/4.8.3/../../../../pic32mx/lib\libpic32.a(vector33.o)
                              c:/program files (x86)/microchip/xc32/v2.05/bin/bin/../../lib/gcc/pic32mx/4.8.3/../../../../pic32mx/lib/./proc/32MX150F128D\default_isr_vectors.o (__vector_dispatch_33)
c:/program files (x86)/microchip/xc32/v2.05/bin/bin/../../lib/gcc/pic32mx/4.8.3/../../../../pic32mx/lib\libpic32.a(vector35.o)
                              c:/program files (x86)/microchip/xc32/v2.05/bin/bin/../../lib/gcc/pic32mx/4.8.3/../../../../pic32mx/lib/./proc/32MX150F128D\default_isr_vectors.o (__vector_dispatch_35)
c:/program files (x86)/microchip/xc32/v2.05/bin/bin/../../lib/gcc/pic32mx/4.8.3/../../../../pic32mx/lib\libpic32.a(vector36.o)
                              c:/program files (x86)/microchip/xc32/v2.05/bin/bin/../../lib/gcc/pic32mx/4.8.3/../../../../pic32mx/lib/./proc/32MX150F128D\default_isr_vectors.o (__vector_dispatch_36)
c:/program files (x86)/microchip/xc32/v2.05/bin/bin/../../lib/gcc/pic32mx/4.8.3/../../../../pic32mx/lib\libpic32.a(vector37.o)
                              c:/program files (x86)/microchip/xc32/v2.05/bin/bin/../../lib/gcc/pic32mx/4.8.3/../../../../pic32mx/lib/./proc/32MX150F128D\default_isr_vectors.o (__vector_dispatch_37)
c:/program files (x86)/microchip/xc32/v2.05/bin/bin/../../lib/gcc/pic32mx/4.8.3/../../../../pic32mx/lib\libpic32.a(vector38.o)
                              c:/program files (x86)/microchip/xc32/v2.05/bin/bin/../../lib/gcc/pic32mx/4.8.3/../../../../pic32mx/lib/./proc/32MX150F128D\default_isr_vectors.o (__vector_dispatch_38)
c:/program files (x86)/microchip/xc32/v2.05/bin/bin/../../lib/gcc/pic32mx/4.8.3/../../../../pic32mx/lib\libpic32.a(vector39.o)
                              c:/program files (x86)/microchip/xc32/v2.05/bin/bin/../../lib/gcc/pic32mx/4.8.3/../../../../pic32mx/lib/./proc/32MX150F128D\default_isr_vectors.o (__vector_dispatch_39)
c:/program files (x86)/microchip/xc32/v2.05/bin/bin/../../lib/gcc/pic32mx/4.8.3/../../../../pic32mx/lib\libpic32.a(vector40.o)
                              c:/program files (x86)/microchip/xc32/v2.05/bin/bin/../../lib/gcc/pic32mx/4.8.3/../../../../pic32mx/lib/./proc/32MX150F128D\default_isr_vectors.o (__vector_dispatch_40)
c:/program files (x86)/microchip/xc32/v2.05/bin/bin/../../lib/gcc/pic32mx/4.8.3/../../../../pic32mx/lib\libpic32.a(vector41.o)
                              c:/program files (x86)/microchip/xc32/v2.05/bin/bin/../../lib/gcc/pic32mx/4.8.3/../../../../pic32mx/lib/./proc/32MX150F128D\default_isr_vectors.o (__vector_dispatch_41)
c:/program files (x86)/microchip/xc32/v2.05/bin/bin/../../lib/gcc/pic32mx/4.8.3/../../../../pic32mx/lib\libpic32.a(vector42.o)
                              c:/program files (x86)/microchip/xc32/v2.05/bin/bin/../../lib/gcc/pic32mx/4.8.3/../../../../pic32mx/lib/./proc/32MX150F128D\default_isr_vectors.o (__vector_dispatch_42)
c:/program files (x86)/microchip/xc32/v2.05/bin/bin/../../lib/gcc/pic32mx/4.8.3/../../../../pic32mx/lib\libpic32.a(vector43.o)
                              c:/program files (x86)/microchip/xc32/v2.05/bin/bin/../../lib/gcc/pic32mx/4.8.3/../../../../pic32mx/lib/./proc/32MX150F128D\default_isr_vectors.o (__vector_dispatch_43)
c:/program files (x86)/microchip/xc32/v2.05/bin/bin/../../lib/gcc/pic32mx/4.8.3/../../../../pic32mx/lib\libpic32.a(defaultinterrupt.o)
                              c:/program files (x86)/microchip/xc32/v2.05/bin/bin/../../lib/gcc/pic32mx/4.8.3/../../../../pic32mx/lib\libpic32.a(vector0.o) (_DefaultInterrupt)
c:/program files (x86)/microchip/xc32/v2.05/bin/bin/../../lib/gcc/pic32mx/4.8.3/../../../../pic32mx/lib\libm.a(fp32div.o)
                              build/default/debug/NxpNfcRdLib/comps/phhalHw/src/Pn5180/phhalHw_Pn5180.o (fpdiv)
c:/program files (x86)/microchip/xc32/v2.05/bin/bin/../../lib/gcc/pic32mx/4.8.3/../../../../pic32mx/lib\libm.a(fp32mul.o)
                              build/default/debug/NxpNfcRdLib/comps/phhalHw/src/Pn5180/phhalHw_Pn5180.o (fpmul)
c:/program files (x86)/microchip/xc32/v2.05/bin/bin/../../lib/gcc/pic32mx/4.8.3/../../../../pic32mx/lib\libm.a(fp32subadd.o)
                              c:/program files (x86)/microchip/xc32/v2.05/bin/bin/../../lib/gcc/pic32mx/4.8.3\libgcc.a(floatunsisf.o) (fpadd)
c:/program files (x86)/microchip/xc32/v2.05/bin/bin/../../lib/gcc/pic32mx/4.8.3/../../../../pic32mx/lib\libm.a(fpcmp.o)
                              build/default/debug/NxpNfcRdLib/comps/phhalHw/src/Pn5180/phhalHw_Pn5180_Int.o (fpcmp)
c:/program files (x86)/microchip/xc32/v2.05/bin/bin/../../lib/gcc/pic32mx/4.8.3/../../../../pic32mx/lib\libm.a(fptoul.o)
                              build/default/debug/NxpNfcRdLib/comps/phhalHw/src/Pn5180/phhalHw_Pn5180.o (fptoui)
c:/program files (x86)/microchip/xc32/v2.05/bin/bin/../../lib/gcc/pic32mx/4.8.3/../../../../pic32mx/lib\libm.a(sitofp.o)
                              c:/program files (x86)/microchip/xc32/v2.05/bin/bin/../../lib/gcc/pic32mx/4.8.3\libgcc.a(floatunsisf.o) (sitofp)

Allocating common symbols
Common symbol       size              file

sKeyVersionPairs    0x88              build/default/debug/main.o
sKUCEntries         0x8               build/default/debug/main.o
bSak                0x1               build/default/debug/main.o
bHalBufferRx        0x80              build/default/debug/main.o
sDiscLoop           0x74              build/default/debug/nxp_reader_config_files/phApp_Init.o
spalI14443p4        0x14              build/default/debug/nxp_reader_config_files/phApp_Init.o
aResponseHolder     0x40              build/default/debug/nxp_reader_config_files/phApp_Init.o
spalI14443p4a       0x14              build/default/debug/nxp_reader_config_files/phApp_Init.o
gpphPlatform_DataParams
                    0x4               build/default/debug/NxpNfcRdLib/comps/phPlatform/src/phPlatform.o
sPlatform           0x1f4             build/default/debug/nxp_reader_config_files/phApp_Init.o
sKeyEntries         0x8               build/default/debug/main.o
salMFDF             0x68              build/default/debug/nxp_reader_config_files/phApp_Init.o
wAtqa               0x2               build/default/debug/main.o
bHalBufferTx        0x80              build/default/debug/main.o
spalI14443p3a       0x18              build/default/debug/nxp_reader_config_files/phApp_Init.o
salMFC              0xc               build/default/debug/nxp_reader_config_files/phApp_Init.o
spalMifare          0xc               build/default/debug/nxp_reader_config_files/phApp_Init.o
pHal                0x4               build/default/debug/nxp_reader_config_files/phApp_Init.o

Microchip PIC32 Memory-Usage Report

kseg0 Program-Memory Usage
section                    address  length [bytes]      (dec)  Description
-------                 ----------  -------------------------  -----------
.text.phhalHw_Pn5180_Se 0x9d000000         0x1ff8        8184   
.text.phpalI14443p4_Sw_ 0x9d001ff8          0xd48        3400   
.text.phhalHw_Pn5180_Se 0x9d002d40          0xd34        3380   
.text.phpalI14443p4_Sw_ 0x9d003a74          0xd20        3360   
.text.phpalI14443p4a_Sw 0x9d004794          0x994        2452   
.text.phacDiscLoop_Sw_I 0x9d005128          0x8d4        2260   
.text.phhalHw_Pn5180_Ge 0x9d0059fc          0x8bc        2236   
.text.phhalHw_Pn5180_Re 0x9d0062b8          0x8a0        2208   
.text.phhalHw_Pn5180_Ex 0x9d006b58          0x89c        2204   
.text.phpalI14443p3a_Sw 0x9d0073f4          0x89c        2204   
.text.phacDiscLoop_Sw_S 0x9d007c90          0x7a0        1952   
.text.phhalHw_Pn5180_Se 0x9d008430          0x644        1604   
.text.phhalHw_Pn5180_Ap 0x9d008a74          0x630        1584   
.text.phpalI14443p3a_Sw 0x9d0090a4          0x61c        1564   
.text.MIFARE_CardDetect 0x9d0096c0          0x554        1364   
.text.phacDiscLoop_Sw_G 0x9d009c14          0x504        1284   
.text.phacDiscLoop_Sw_I 0x9d00a118          0x4c0        1216   
.text.phTools_DecodePar 0x9d00a5d8          0x4a0        1184   
.text.phalMfdf_Int_Comp 0x9d00aa78          0x410        1040   
.text.phpalMifare_Sw_Ex 0x9d00ae88          0x400        1024   
.text.phhalHw_Pn5180_In 0x9d00b288          0x3d0         976   
.text.phpalI14443p3a_Sw 0x9d00b658          0x3c8         968   
.text.phhalHw_Pn5180_Lp 0x9d00ba20          0x3c0         960   
.text.phhalHw_Pn5180_Ti 0x9d00bde0          0x35c         860   
.text.phacDiscLoop_Sw_R 0x9d00c13c          0x34c         844   
.text.phacDiscLoop_Sw_I 0x9d00c488          0x324         804   
.text._UART_1           0x9d00c7ac          0x320         800   
.text.phhalHw_Pn5180_In 0x9d00cacc          0x310         784   
.text.phpalI14443p4a_Sw 0x9d00cddc          0x2f8         760   
.text.phhalHw_Pn5180_In 0x9d00d0d4          0x2e4         740   
.text.phacDiscLoop_Sw_I 0x9d00d3b8          0x2cc         716   
.text.phalMfdf_Exchange 0x9d00d684          0x2c8         712   
.text.phhalHw_Pn5180_In 0x9d00d94c          0x2c8         712   
.text.phhalHw_Pn5180_Wa 0x9d00dc14          0x2b8         696   
.text.phhalHw_Pn5180_Ge 0x9d00decc          0x2a4         676   
.text.phpalI14443p4_Sw_ 0x9d00e170          0x2a0         672   
.text.phTools_Calculate 0x9d00e410          0x29c         668   
.text.phhalHw_Pn5180_In 0x9d00e6ac          0x298         664   
.text.fpsubadd          0x9d00e944          0x278         632   
.text.phpalI14443p4_Sw_ 0x9d00ebbc          0x240         576   
.text.Mfdf_ReadCardInfo 0x9d00edfc          0x230         560   
.text.fp32div           0x9d00f02c          0x230         560   
.text.phApp_RdLibInit   0x9d00f25c          0x22c         556   
.text.phhalHw_Pn5180_In 0x9d00f488          0x208         520   
.text.phhalHw_Pn5180_Wa 0x9d00f690          0x200         512   
.text.PIN_MANAGER_Initi 0x9d00f890          0x1ec         492   
.dinit                  0x9d00fa7c          0x1e0         480   
.text.phOsal_EventPend  0x9d00fc5c          0x1d4         468   
.text.phhalHw_Pn5180_Se 0x9d00fe30          0x1c8         456   
.text.phhalHw_Pn5180_In 0x9d00fff8          0x1c0         448   
.text.phhalHw_Pn5180_In 0x9d0101b8          0x1c0         448   
.text.phhalHw_Pn5180_In 0x9d010378          0x1bc         444   
.text.fp32mul           0x9d010534          0x1bc         444   
.text.phpalI14443p4_Sw_ 0x9d0106f0          0x1b4         436   
.text.SPI1_ExchangeBuff 0x9d0108a4          0x1b0         432   
.text.phhalHw_Pn5180_Se 0x9d010a54          0x1a8         424   
.text._CHANGE_NOTICE    0x9d010bfc          0x1a4         420   
.text.phacDiscLoop_Sw_D 0x9d010da0          0x1a0         416   
.text.phhalHw_Pn5180_In 0x9d010f40          0x1a0         416   
.text                   0x9d0110e0          0x1a0         416  App's exec code 
.text.Mfc_ReadCardInfo  0x9d011280          0x19c         412   
.text.phacDiscLoop_Sw_I 0x9d01141c          0x198         408   
.text.phhalHw_Pn5180_In 0x9d0115b4          0x194         404   
.text._T1Interrupt      0x9d011748          0x188         392   
.text.phhalHw_Pn5180_In 0x9d0118d0          0x188         392   
.text.phhalHw_Pn5180_In 0x9d011a58          0x180         384   
.text._T2Interrupt      0x9d011bd8          0x16c         364   
.text                   0x9d011d44          0x168         360  App's exec code 
.text.phpalI14443p4a_Sw 0x9d011eac          0x160         352   
.text.phpalI14443p3a_Sw 0x9d01200c          0x150         336   
.text.phalMfdf_Sw_Init  0x9d01215c          0x14c         332   
.text.phhalHw_Pn5180_Fi 0x9d0122a8          0x14c         332   
.text.phbalReg_Pic32mxS 0x9d0123f4          0x148         328   
.text.phhalHw_Pn5180_In 0x9d01253c          0x148         328   
.text.phPlatform_Port_H 0x9d012684          0x140         320   
.text.phpalI14443p4_Sw_ 0x9d0127c4          0x138         312   
.text.phacDiscLoop_Sw_I 0x9d0128fc          0x134         308   
.text.UART1_Initialize  0x9d012a30          0x130         304   
.text.phPlatform_Init   0x9d012b60          0x130         304   
.text.INTERRUPT_Initial 0x9d012c90          0x124         292   
.text.phpalI14443p4_Sw_ 0x9d012db4          0x120         288   
.text.phpalMifare_Sw_Ex 0x9d012ed4          0x120         288   
.text.phOsal_EventCreat 0x9d012ff4          0x11c         284   
.text.phhalHw_Pn5180_Re 0x9d013110          0x118         280   
.text.phhalHw_Pn5180_Ba 0x9d013228          0x114         276   
.text.phpalI14443p4_Sw_ 0x9d01333c          0x114         276   
.text.phpalI14443p4_Sw_ 0x9d013450          0x10c         268   
.text.phhalHw_Pn5180_Ge 0x9d01355c          0x104         260   
.text.phhalHw_Pn5180_In 0x9d013660           0xf8         248   
.text.phacDiscLoop_Sw_I 0x9d013758           0xf4         244   
.text.main              0x9d01384c           0xf4         244   
.text.phhalHw_Pn5180_Fi 0x9d013940           0xf0         240   
.text.phacDiscLoop_Sw_I 0x9d013a30           0xec         236   
.text.phpalI14443p3a_Sw 0x9d013b1c           0xe8         232   
.text.phpalI14443p4_Sw_ 0x9d013c04           0xe8         232   
.rodata                 0x9d013cec           0xdc         220  Read-only const 
.text.phhalHw_Pn5180_Mf 0x9d013dc8           0xdc         220   
.text.phhalHw_Pn5180_In 0x9d013ea4           0xdc         220   
.text.general_exception 0x9d013f80           0xdc         220   
.text.phalMfdf_Sw_Selec 0x9d01405c           0xd8         216   
.text.phpalI14443p4_Sw_ 0x9d014134           0xd8         216   
.text.phpalMifare_Sw_Mf 0x9d01420c           0xd8         216   
.text.phPlatform_Port_H 0x9d0142e4           0xd4         212   
.text.phpalI14443p4a_Sw 0x9d0143b8           0xd0         208   
.text.phPlatform_FE_Res 0x9d014488           0xd0         208   
.text.phpalI14443p4a_Sw 0x9d014558           0xc8         200   
.text.phTools_ComputeCr 0x9d014620           0xc4         196   
.text.phTools_UpdateCrc 0x9d0146e4           0xc0         192   
.text.phOsal_NullOs_Get 0x9d0147a4           0xb8         184   
.text.phTools_CalcParit 0x9d01485c           0xb4         180   
.text.phacDiscLoop_Sw_I 0x9d014910           0xb0         176   
.text                   0x9d0149c0           0xa8         168  App's exec code 
.text.phbalReg_Pic32mxS 0x9d014a68           0xa0         160   
.text.phOsal_EventClear 0x9d014b08           0xa0         160   
.text.phOsal_EventPost  0x9d014ba8           0x9c         156   
.text.phacDiscLoop_Sw_I 0x9d014c44           0x98         152   
.text                   0x9d014cdc           0x98         152  App's exec code 
.text.phpalI14443p4a_Sw 0x9d014d74           0x94         148   
.text.phPlatform_Timer_ 0x9d014e08           0x94         148   
.text.ADC_1             0x9d014e9c           0x90         144   
.text.phhalHw_Pn5180_Fi 0x9d014f2c           0x90         144   
.text.phhalHw_Pn5180_In 0x9d014fbc           0x90         144   
.text.phpalI14443p3a_Sw 0x9d01504c           0x8c         140   
.text.phpalI14443p3a_Sw 0x9d0150d8           0x88         136   
.text.phpalI14443p4_Sw_ 0x9d015160           0x88         136   
.text.SysTick_Handler   0x9d0151e8           0x88         136   
.text.phpalI14443p4_Sw_ 0x9d015270           0x84         132   
.text.phPlatform_Port_H 0x9d0152f4           0x84         132   
.text.phhalHw_Pn5180_Ch 0x9d015378           0x80         128   
.text.fptoul            0x9d0153f8           0x7c         124   
.text.phalMfc_Sw_Init   0x9d015474           0x78         120   
.text.phpalMifare_Sw_In 0x9d0154ec           0x78         120   
.rodata                 0x9d015564           0x74         116  Read-only const 
.text.SYSTEM_Initialize 0x9d0155d8           0x70         112   
.text.RF_IRQ_Handler    0x9d015648           0x70         112   
.text.ADC1_Initialize   0x9d0156b8           0x68         104   
.text.phpalI14443p3a_Sw 0x9d015720           0x68         104   
.text.TMR1_Initialize   0x9d015788           0x64         100   
.text.OSCILLATOR_Initia 0x9d0157ec           0x64         100   
.text.phalMfdf_Sw_SetCo 0x9d015850           0x64         100   
.text.NfcRdLibInit      0x9d0158b4           0x64         100   
.text.TMR2_Initialize   0x9d015918           0x60          96   
.text.sitofp            0x9d015978           0x60          96   
.text.TMR1_Start        0x9d0159d8           0x58          88   
.text.phApp_Print_Buff  0x9d015a30           0x58          88   
.text.main_entry        0x9d015a88           0x54          84   
.text.phhalHw_Pn5180_Ev 0x9d015adc           0x54          84   
.text.phPlatform_StartT 0x9d015b30           0x54          84   
.text.SYSTEM_RegUnlock  0x9d015b84           0x50          80   
.text.SPI1_Exchange8bit 0x9d015bd4           0x50          80   
.text.phhalHw_Pn5180_Wr 0x9d015c24           0x50          80   
.text.phhalHw_Pn5180_Re 0x9d015c74           0x50          80   
.text.phPlatform_InitTi 0x9d015cc4           0x50          80   
.text._general_exceptio 0x9d015d14           0x4c          76   
.text.SPI1_Initialize   0x9d015d60           0x4c          76   
.text.SPI2_Initialize   0x9d015dac           0x4c          76   
.text                   0x9d015df8           0x4c          76  App's exec code 
.text.phhalHw_Pn5180_In 0x9d015e44           0x48          72   
.text._bootstrap_except 0x9d015e8c           0x48          72   
.vector_default         0x9d015ed4           0x48          72   
.text.phOsal_Init       0x9d015f1c           0x44          68   
.text.phpalI14443p3a_Sw 0x9d015f60           0x44          68   
.text.phpalI14443p3a_Sw 0x9d015fa4           0x44          68   
.text.phPlatform_Port_H 0x9d015fe8           0x44          68   
.text                   0x9d01602c           0x44          68  App's exec code 
.text.TMR1_Stop         0x9d016070           0x40          64   
.rodata.gkphhalHw_Pn518 0x9d0160b0           0x38          56   
.text.phOsal_NullOsSysT 0x9d0160e8           0x38          56   
.text.phacDiscLoop_Sw_I 0x9d016120           0x34          52   
.text.phPlatform_StopTi 0x9d016154           0x34          52   
.text.phacDiscLoop_Sw_I 0x9d016188           0x30          48   
.text.phacDiscLoop_Sw_I 0x9d0161b8           0x30          48   
.text.phacDiscLoop_Sw_I 0x9d0161e8           0x30          48   
.text.phacDiscLoop_Sw_I 0x9d016218           0x30          48   
.rodata.wPn5180_Default 0x9d016248           0x30          48   
.rodata.wPn5180_Default 0x9d016278           0x30          48   
.rodata.wPn5180_Default 0x9d0162a8           0x2c          44   
.rodata.wPn5180_Default 0x9d0162d4           0x2c          44   
.rodata.wPn5180_Default 0x9d016300           0x2c          44   
.rodata.wPn5180_DefShad 0x9d01632c           0x2c          44   
.rodata.wPn5180_DefShad 0x9d016358           0x2c          44   
.rodata.wPn5180_DefShad 0x9d016384           0x2c          44   
.text.SYSTEM_RegLock    0x9d0163b0           0x28          40   
.text.phacDiscLoop_Sw_I 0x9d0163d8           0x28          40   
.text.phacDiscLoop_Sw_I 0x9d016400           0x28          40   
.text.phacDiscLoop_Sw_D 0x9d016428           0x28          40   
.text.phacDiscLoop_Sw_I 0x9d016450           0x28          40   
.text.phacDiscLoop_Sw_D 0x9d016478           0x28          40   
.text.phacDiscLoop_Sw_I 0x9d0164a0           0x28          40   
.text.phacDiscLoop_Sw_D 0x9d0164c8           0x28          40   
.text.phacDiscLoop_Sw_I 0x9d0164f0           0x28          40   
.text.phacDiscLoop_Sw_D 0x9d016518           0x28          40   
.text.phacDiscLoop_Sw_I 0x9d016540           0x28          40   
.rodata.wPn5180_Default 0x9d016568           0x28          40   
.text.TMR1_SoftwareCoun 0x9d016590           0x24          36   
.text.TMR1_SoftwareCoun 0x9d0165b4           0x24          36   
.text.TMR2_CallBack     0x9d0165d8           0x20          32   
.text.TMR1_CallBack     0x9d0165f8           0x20          32   
.text.phPlatform_Port_H 0x9d016618           0x20          32   
.rodata.bI14443p4_FsTab 0x9d016638           0x1c          28   
.rodata.gPasTechTypeMap 0x9d016654           0x18          24   
.rodata.pfColnRelsns.pf 0x9d01666c           0x18          24   
.rodata.pfDetTechs.pfDe 0x9d016684           0x18          24   
.rodata.pfDeviceActivat 0x9d01669c           0x18          24   
.text                   0x9d0166b4           0x18          24  App's exec code 
.text.__exception_handl 0x9d0166cc            0xc          12   
.rodata.phhalHw_Pn5180_ 0x9d0166d8            0x8           8   
.text._on_reset         0x9d0166e0            0x8           8   
.text._on_bootstrap     0x9d0166e8            0x8           8   
.rodata.aCascadeCodes.a 0x9d0166f0            0x4           4   
.rodata.bHalEventName.b 0x9d0166f4            0x4           4   
.rodata                 0x9d0166f8            0x4           4  Read-only const 
      Total kseg0_program_mem used  :     0x166fc       91900  72.4% of 0x1f000

kseg0 Boot-Memory Usage
section                    address  length [bytes]      (dec)  Description
-------                 ----------  -------------------------  -----------
         Total kseg0_boot_mem used  :           0           0  

Exception-Memory Usage 
section                    address  length [bytes]      (dec)  Description
-------                 ----------  -------------------------  -----------
.app_excpt              0x9d01f180           0x10          16  General-Exception 
.vector_0               0x9d01f200            0x8           8  Interrupt Vector 0 
.vector_1               0x9d01f220            0x8           8  Interrupt Vector 1 
.vector_2               0x9d01f240            0x8           8  Interrupt Vector 2 
.vector_3               0x9d01f260            0x8           8  Interrupt Vector 3 
.vector_4               0x9d01f280            0x8           8  Interrupt Vector 4 
.vector_5               0x9d01f2a0            0x8           8  Interrupt Vector 5 
.vector_6               0x9d01f2c0            0x8           8  Interrupt Vector 6 
.vector_7               0x9d01f2e0            0x8           8  Interrupt Vector 7 
.vector_8               0x9d01f300            0x8           8  Interrupt Vector 8 
.vector_9               0x9d01f320            0x8           8  Interrupt Vector 9 
.vector_10              0x9d01f340            0x8           8  Interrupt Vector 10 
.vector_11              0x9d01f360            0x8           8  Interrupt Vector 11 
.vector_12              0x9d01f380            0x8           8  Interrupt Vector 12 
.vector_13              0x9d01f3a0            0x8           8  Interrupt Vector 13 
.vector_14              0x9d01f3c0            0x8           8  Interrupt Vector 14 
.vector_15              0x9d01f3e0            0x8           8  Interrupt Vector 15 
.vector_16              0x9d01f400            0x8           8  Interrupt Vector 16 
.vector_17              0x9d01f420            0x8           8  Interrupt Vector 17 
.vector_18              0x9d01f440            0x8           8  Interrupt Vector 18 
.vector_19              0x9d01f460            0x8           8  Interrupt Vector 19 
.vector_20              0x9d01f480            0x8           8  Interrupt Vector 20 
.vector_21              0x9d01f4a0            0x8           8  Interrupt Vector 21 
.vector_22              0x9d01f4c0            0x8           8  Interrupt Vector 22 
.vector_23              0x9d01f4e0            0x8           8  Interrupt Vector 23 
.vector_24              0x9d01f500            0x8           8  Interrupt Vector 24 
.vector_25              0x9d01f520            0x8           8  Interrupt Vector 25 
.vector_26              0x9d01f540            0x8           8  Interrupt Vector 26 
.vector_27              0x9d01f560            0x8           8  Interrupt Vector 27 
.vector_28              0x9d01f580            0x8           8  Interrupt Vector 28 
.vector_29              0x9d01f5a0            0x8           8  Interrupt Vector 29 
.vector_30              0x9d01f5c0            0x8           8  Interrupt Vector 30 
.vector_31              0x9d01f5e0            0x8           8  Interrupt Vector 31 
.vector_32              0x9d01f600            0x8           8  Interrupt Vector 32 
.vector_33              0x9d01f620            0x8           8  Interrupt Vector 33 
.vector_34              0x9d01f640            0x8           8  Interrupt Vector 34 
.vector_35              0x9d01f660            0x8           8  Interrupt Vector 35 
.vector_36              0x9d01f680            0x8           8  Interrupt Vector 36 
.vector_37              0x9d01f6a0            0x8           8  Interrupt Vector 37 
.vector_38              0x9d01f6c0            0x8           8  Interrupt Vector 38 
.vector_39              0x9d01f6e0            0x8           8  Interrupt Vector 39 
.vector_40              0x9d01f700            0x8           8  Interrupt Vector 40 
.vector_41              0x9d01f720            0x8           8  Interrupt Vector 41 
.vector_42              0x9d01f740            0x8           8  Interrupt Vector 42 
.vector_43              0x9d01f760            0x8           8  Interrupt Vector 43 
          Total exception_mem used  :       0x170         368  9.0% of 0x1000

kseg1 Boot-Memory Usage
section                    address  length [bytes]      (dec)  Description
-------                 ----------  -------------------------  -----------
.reset                  0xbfc00000          0x1e4         484  Reset handler 
.bev_excpt              0xbfc00380           0x10          16  BEV-Exception 
         Total kseg1_boot_mem used  :       0x1f4         500  42.8% of 0x490
        --------------------------------------------------------------------------
         Total Program Memory used  :     0x16a60       92768  70.2% of 0x20490
        --------------------------------------------------------------------------


kseg0 Data-Memory Usage
section                    address  length [bytes]      (dec)  Description
-------                 ----------  -------------------------  -----------
reserve_data_0_kseg0    0x80000000          0x200         512   
         Total kseg0_data_mem used  :       0x200         512  100.0% of 0x200

kseg1 Data-Memory Usage
section                    address  length [bytes]      (dec)  Description
-------                 ----------  -------------------------  -----------
reserve_data_0_kseg1    0xa0000000          0x200         512   
.sdata                  0xa0000200           0x24          36  Small init data 
.sbss                   0xa0000224           0x70         112  Small uninit data 
.bss                    0xa0000294          0x4f0        1264  Uninitialized data 
.data.cause.cause       0xa0000784           0x4c          76   
.bss.cardInfo.cardInfo  0xa00007d0           0x2c          44   
.bss.uart1_obj.uart1_ob 0xa00007fc           0x14          20   
.bss.gdwEvents.gdwEvent 0xa0000810           0x14          20   
.bss.bDataBuffer.bDataB 0xa0000824           0x14          20   
         Total kseg1_data_mem used  :       0x838        2104  6.4% of 0x8000
        --------------------------------------------------------------------------
            Total Data Memory used  :       0xa38        2616  7.9% of 0x8200
        --------------------------------------------------------------------------


Dynamic Data-Memory Reservation
section                    address  length [bytes]      (dec)  Description
-------                 ----------  -------------------------  -----------
heap                    0xa0000840           0x10          16  Reserved for heap 
stack                   0xa0000868         0x7790       30608  Reserved for stack 

        --------------------------------------------------------------------------

Discarded input sections

 .text          0x00000000        0x0 c:/program files (x86)/microchip/xc32/v2.05/bin/bin/../../lib/gcc/pic32mx/4.8.3/../../../../pic32mx/lib/./proc/32MX150F128D/crt0_mips32r2.o
 .data          0x00000000        0x0 c:/program files (x86)/microchip/xc32/v2.05/bin/bin/../../lib/gcc/pic32mx/4.8.3/../../../../pic32mx/lib/./proc/32MX150F128D/crt0_mips32r2.o
 .bss           0x00000000        0x0 c:/program files (x86)/microchip/xc32/v2.05/bin/bin/../../lib/gcc/pic32mx/4.8.3/../../../../pic32mx/lib/./proc/32MX150F128D/crt0_mips32r2.o
 .text          0x00000000        0x0 c:/program files (x86)/microchip/xc32/v2.05/bin/bin/../../lib/gcc/pic32mx/4.8.3/../../../../pic32mx/lib\software-debug-break.o
 .data          0x00000000        0x0 c:/program files (x86)/microchip/xc32/v2.05/bin/bin/../../lib/gcc/pic32mx/4.8.3/../../../../pic32mx/lib\software-debug-break.o
 .bss           0x00000000        0x0 c:/program files (x86)/microchip/xc32/v2.05/bin/bin/../../lib/gcc/pic32mx/4.8.3/../../../../pic32mx/lib\software-debug-break.o
 .reginfo       0x00000000       0x18 c:/program files (x86)/microchip/xc32/v2.05/bin/bin/../../lib/gcc/pic32mx/4.8.3/../../../../pic32mx/lib\software-debug-break.o
 .text          0x00000000        0x0 build/default/debug/mcc_generated_files/tmr2.o
 .data          0x00000000        0x0 build/default/debug/mcc_generated_files/tmr2.o
 .bss           0x00000000        0x0 build/default/debug/mcc_generated_files/tmr2.o
 .reginfo       0x00000000       0x18 build/default/debug/mcc_generated_files/tmr2.o
 .text.TMR2_Period16BitSet
                0x00000000       0x38 build/default/debug/mcc_generated_files/tmr2.o
 .text.TMR2_Period16BitGet
                0x00000000       0x2c build/default/debug/mcc_generated_files/tmr2.o
 .text.TMR2_Counter16BitSet
                0x00000000       0x38 build/default/debug/mcc_generated_files/tmr2.o
 .text.TMR2_Counter16BitGet
                0x00000000       0x2c build/default/debug/mcc_generated_files/tmr2.o
 .text.TMR2_Start
                0x00000000       0x58 build/default/debug/mcc_generated_files/tmr2.o
 .text.TMR2_Stop
                0x00000000       0x40 build/default/debug/mcc_generated_files/tmr2.o
 .text.TMR2_GetElapsedThenClear
                0x00000000       0x3c build/default/debug/mcc_generated_files/tmr2.o
 .text.TMR2_SoftwareCounterGet
                0x00000000       0x24 build/default/debug/mcc_generated_files/tmr2.o
 .text.TMR2_SoftwareCounterClear
                0x00000000       0x24 build/default/debug/mcc_generated_files/tmr2.o
 .text          0x00000000        0x0 build/default/debug/mcc_generated_files/uart1.o
 .data          0x00000000        0x0 build/default/debug/mcc_generated_files/uart1.o
 .bss           0x00000000        0x0 build/default/debug/mcc_generated_files/uart1.o
 .reginfo       0x00000000       0x18 build/default/debug/mcc_generated_files/uart1.o
 .text.UART1_Read
                0x00000000       0xcc build/default/debug/mcc_generated_files/uart1.o
 .text.UART1_ReadBuffer
                0x00000000       0x9c build/default/debug/mcc_generated_files/uart1.o
 .text.UART1_Write
                0x00000000       0xf4 build/default/debug/mcc_generated_files/uart1.o
 .text.UART1_WriteBuffer
                0x00000000       0x98 build/default/debug/mcc_generated_files/uart1.o
 .text.UART1_TransferStatusGet
                0x00000000       0xcc build/default/debug/mcc_generated_files/uart1.o
 .text.UART1_Peek
                0x00000000       0xa0 build/default/debug/mcc_generated_files/uart1.o
 .text.UART1_ReceiveBufferSizeGet
                0x00000000       0xa8 build/default/debug/mcc_generated_files/uart1.o
 .text.UART1_TransmitBufferSizeGet
                0x00000000       0xb4 build/default/debug/mcc_generated_files/uart1.o
 .text.UART1_ReceiveBufferIsEmpty
                0x00000000       0x3c build/default/debug/mcc_generated_files/uart1.o
 .text.UART1_TransmitBufferIsFull
                0x00000000       0x3c build/default/debug/mcc_generated_files/uart1.o
 .text.UART1_StatusGet
                0x00000000       0x28 build/default/debug/mcc_generated_files/uart1.o
 .text          0x00000000        0x0 build/default/debug/mcc_generated_files/interrupt_manager.o
 .data          0x00000000        0x0 build/default/debug/mcc_generated_files/interrupt_manager.o
 .bss           0x00000000        0x0 build/default/debug/mcc_generated_files/interrupt_manager.o
 .reginfo       0x00000000       0x18 build/default/debug/mcc_generated_files/interrupt_manager.o
 .text          0x00000000        0x0 build/default/debug/mcc_generated_files/tmr1.o
 .data          0x00000000        0x0 build/default/debug/mcc_generated_files/tmr1.o
 .bss           0x00000000        0x0 build/default/debug/mcc_generated_files/tmr1.o
 .reginfo       0x00000000       0x18 build/default/debug/mcc_generated_files/tmr1.o
 .text.TMR1_Period16BitSet
                0x00000000       0x38 build/default/debug/mcc_generated_files/tmr1.o
 .text.TMR1_Period16BitGet
                0x00000000       0x2c build/default/debug/mcc_generated_files/tmr1.o
 .text.TMR1_Counter16BitSet
                0x00000000       0x38 build/default/debug/mcc_generated_files/tmr1.o
 .text.TMR1_Counter16BitGet
                0x00000000       0x2c build/default/debug/mcc_generated_files/tmr1.o
 .text.TMR1_GetElapsedThenClear
                0x00000000       0x3c build/default/debug/mcc_generated_files/tmr1.o
 .text          0x00000000        0x0 build/default/debug/mcc_generated_files/mcc.o
 .data          0x00000000        0x0 build/default/debug/mcc_generated_files/mcc.o
 .bss           0x00000000        0x0 build/default/debug/mcc_generated_files/mcc.o
 .reginfo       0x00000000       0x18 build/default/debug/mcc_generated_files/mcc.o
 .text          0x00000000        0x0 build/default/debug/mcc_generated_files/pin_manager.o
 .data          0x00000000        0x0 build/default/debug/mcc_generated_files/pin_manager.o
 .bss           0x00000000        0x0 build/default/debug/mcc_generated_files/pin_manager.o
 .reginfo       0x00000000       0x18 build/default/debug/mcc_generated_files/pin_manager.o
 .text          0x00000000        0x0 build/default/debug/mcc_generated_files/spi1.o
 .data          0x00000000        0x0 build/default/debug/mcc_generated_files/spi1.o
 .bss           0x00000000        0x0 build/default/debug/mcc_generated_files/spi1.o
 .reginfo       0x00000000       0x18 build/default/debug/mcc_generated_files/spi1.o
 .text.SPI1_Exchange
                0x00000000       0x80 build/default/debug/mcc_generated_files/spi1.o
 .text.SPI1_Exchange8bit
                0x00000000       0x48 build/default/debug/mcc_generated_files/spi1.o
 .text.SPI1_StatusGet
                0x00000000       0x28 build/default/debug/mcc_generated_files/spi1.o
 .text          0x00000000        0x0 build/default/debug/mcc_generated_files/adc1.o
 .data          0x00000000        0x0 build/default/debug/mcc_generated_files/adc1.o
 .bss           0x00000000        0x0 build/default/debug/mcc_generated_files/adc1.o
 .reginfo       0x00000000       0x18 build/default/debug/mcc_generated_files/adc1.o
 .text.ADC1_Start
                0x00000000       0x34 build/default/debug/mcc_generated_files/adc1.o
 .text.ADC1_Stop
                0x00000000       0x30 build/default/debug/mcc_generated_files/adc1.o
 .text.ADC1_ConversionResultBufferGet
                0x00000000       0x80 build/default/debug/mcc_generated_files/adc1.o
 .text.ADC1_ConversionResultGet
                0x00000000       0x28 build/default/debug/mcc_generated_files/adc1.o
 .text.ADC1_IsConversionComplete
                0x00000000       0x38 build/default/debug/mcc_generated_files/adc1.o
 .text.ADC1_ChannelSelect
                0x00000000       0x34 build/default/debug/mcc_generated_files/adc1.o
 .text          0x00000000        0x0 build/default/debug/mcc_generated_files/spi2.o
 .data          0x00000000        0x0 build/default/debug/mcc_generated_files/spi2.o
 .bss           0x00000000        0x0 build/default/debug/mcc_generated_files/spi2.o
 .reginfo       0x00000000       0x18 build/default/debug/mcc_generated_files/spi2.o
 .text.SPI2_Exchange
                0x00000000       0x80 build/default/debug/mcc_generated_files/spi2.o
 .text.SPI2_ExchangeBuffer
                0x00000000      0x19c build/default/debug/mcc_generated_files/spi2.o
 .text.SPI2_Exchange8bit
                0x00000000       0x48 build/default/debug/mcc_generated_files/spi2.o
 .text.SPI2_Exchange8bitBuffer
                0x00000000       0x50 build/default/debug/mcc_generated_files/spi2.o
 .text.SPI2_StatusGet
                0x00000000       0x28 build/default/debug/mcc_generated_files/spi2.o
 .text          0x00000000        0x0 build/default/debug/nxp_reader_config_files/phApp_Init.o
 .data          0x00000000        0x0 build/default/debug/nxp_reader_config_files/phApp_Init.o
 .bss           0x00000000        0x0 build/default/debug/nxp_reader_config_files/phApp_Init.o
 .reginfo       0x00000000       0x18 build/default/debug/nxp_reader_config_files/phApp_Init.o
 .text.phApp_HALConfigAutoColl
                0x00000000       0x24 build/default/debug/nxp_reader_config_files/phApp_Init.o
 .text.phApp_ConfigureLPCD
                0x00000000       0xec build/default/debug/nxp_reader_config_files/phApp_Init.o
 .text.phApp_PrintTech
                0x00000000       0x9c build/default/debug/nxp_reader_config_files/phApp_Init.o
 .text.phApp_PrintTagInfo
                0x00000000      0x1cc build/default/debug/nxp_reader_config_files/phApp_Init.o
 .text.PrintErrorInfo
                0x00000000      0x450 build/default/debug/nxp_reader_config_files/phApp_Init.o
 .text          0x00000000        0x0 build/default/debug/NxpNfcRdLib/comps/phacDiscLoop/src/Sw/phacDiscLoop_Sw.o
 .data          0x00000000        0x0 build/default/debug/NxpNfcRdLib/comps/phacDiscLoop/src/Sw/phacDiscLoop_Sw.o
 .bss           0x00000000        0x0 build/default/debug/NxpNfcRdLib/comps/phacDiscLoop/src/Sw/phacDiscLoop_Sw.o
 .reginfo       0x00000000       0x18 build/default/debug/NxpNfcRdLib/comps/phacDiscLoop/src/Sw/phacDiscLoop_Sw.o
 .text.phacDiscLoop_Sw_ActivateCard
                0x00000000       0x58 build/default/debug/NxpNfcRdLib/comps/phacDiscLoop/src/Sw/phacDiscLoop_Sw.o
 .text          0x00000000        0x0 build/default/debug/NxpNfcRdLib/comps/phacDiscLoop/src/Sw/phacDiscLoop_Sw_Int.o
 .data          0x00000000        0x0 build/default/debug/NxpNfcRdLib/comps/phacDiscLoop/src/Sw/phacDiscLoop_Sw_Int.o
 .bss           0x00000000        0x0 build/default/debug/NxpNfcRdLib/comps/phacDiscLoop/src/Sw/phacDiscLoop_Sw_Int.o
 .reginfo       0x00000000       0x18 build/default/debug/NxpNfcRdLib/comps/phacDiscLoop/src/Sw/phacDiscLoop_Sw_Int.o
 .rodata.gActTechTypeMapTable.gActTechTypeMapTable
                0x00000000        0xc build/default/debug/NxpNfcRdLib/comps/phacDiscLoop/src/Sw/phacDiscLoop_Sw_Int.o
 .text.phacDiscLoop_Sw_Int_Stop
                0x00000000       0x28 build/default/debug/NxpNfcRdLib/comps/phacDiscLoop/src/Sw/phacDiscLoop_Sw_Int.o
 .text.phacDiscLoop_Sw_Int_RfcaOff_FieldOn
                0x00000000       0xb4 build/default/debug/NxpNfcRdLib/comps/phacDiscLoop/src/Sw/phacDiscLoop_Sw_Int.o
 .text          0x00000000        0x0 build/default/debug/NxpNfcRdLib/comps/phacDiscLoop/src/Sw/phacDiscLoop_Sw_Int_A.o
 .data          0x00000000        0x0 build/default/debug/NxpNfcRdLib/comps/phacDiscLoop/src/Sw/phacDiscLoop_Sw_Int_A.o
 .bss           0x00000000        0x0 build/default/debug/NxpNfcRdLib/comps/phacDiscLoop/src/Sw/phacDiscLoop_Sw_Int_A.o
 .reginfo       0x00000000       0x18 build/default/debug/NxpNfcRdLib/comps/phacDiscLoop/src/Sw/phacDiscLoop_Sw_Int_A.o
 .text          0x00000000        0x0 build/default/debug/NxpNfcRdLib/comps/phacDiscLoop/src/Sw/phacDiscLoop_Sw_Int_B.o
 .data          0x00000000        0x0 build/default/debug/NxpNfcRdLib/comps/phacDiscLoop/src/Sw/phacDiscLoop_Sw_Int_B.o
 .bss           0x00000000        0x0 build/default/debug/NxpNfcRdLib/comps/phacDiscLoop/src/Sw/phacDiscLoop_Sw_Int_B.o
 .reginfo       0x00000000       0x18 build/default/debug/NxpNfcRdLib/comps/phacDiscLoop/src/Sw/phacDiscLoop_Sw_Int_B.o
 .text          0x00000000        0x0 build/default/debug/NxpNfcRdLib/comps/phacDiscLoop/src/Sw/phacDiscLoop_Sw_Int_F.o
 .data          0x00000000        0x0 build/default/debug/NxpNfcRdLib/comps/phacDiscLoop/src/Sw/phacDiscLoop_Sw_Int_F.o
 .bss           0x00000000        0x0 build/default/debug/NxpNfcRdLib/comps/phacDiscLoop/src/Sw/phacDiscLoop_Sw_Int_F.o
 .reginfo       0x00000000       0x18 build/default/debug/NxpNfcRdLib/comps/phacDiscLoop/src/Sw/phacDiscLoop_Sw_Int_F.o
 .text          0x00000000        0x0 build/default/debug/NxpNfcRdLib/comps/phacDiscLoop/src/Sw/phacDiscLoop_Sw_Int_I18000p3m3.o
 .data          0x00000000        0x0 build/default/debug/NxpNfcRdLib/comps/phacDiscLoop/src/Sw/phacDiscLoop_Sw_Int_I18000p3m3.o
 .bss           0x00000000        0x0 build/default/debug/NxpNfcRdLib/comps/phacDiscLoop/src/Sw/phacDiscLoop_Sw_Int_I18000p3m3.o
 .reginfo       0x00000000       0x18 build/default/debug/NxpNfcRdLib/comps/phacDiscLoop/src/Sw/phacDiscLoop_Sw_Int_I18000p3m3.o
 .text          0x00000000        0x0 build/default/debug/NxpNfcRdLib/comps/phacDiscLoop/src/Sw/phacDiscLoop_Sw_Int_V.o
 .data          0x00000000        0x0 build/default/debug/NxpNfcRdLib/comps/phacDiscLoop/src/Sw/phacDiscLoop_Sw_Int_V.o
 .bss           0x00000000        0x0 build/default/debug/NxpNfcRdLib/comps/phacDiscLoop/src/Sw/phacDiscLoop_Sw_Int_V.o
 .reginfo       0x00000000       0x18 build/default/debug/NxpNfcRdLib/comps/phacDiscLoop/src/Sw/phacDiscLoop_Sw_Int_V.o
 .text          0x00000000        0x0 build/default/debug/NxpNfcRdLib/comps/phacDiscLoop/src/phacDiscLoop.o
 .data          0x00000000        0x0 build/default/debug/NxpNfcRdLib/comps/phacDiscLoop/src/phacDiscLoop.o
 .bss           0x00000000        0x0 build/default/debug/NxpNfcRdLib/comps/phacDiscLoop/src/phacDiscLoop.o
 .reginfo       0x00000000       0x18 build/default/debug/NxpNfcRdLib/comps/phacDiscLoop/src/phacDiscLoop.o
 .text          0x00000000        0x0 build/default/debug/NxpNfcRdLib/comps/phalFelica/src/Sw/phalFelica_Sw.o
 .data          0x00000000        0x0 build/default/debug/NxpNfcRdLib/comps/phalFelica/src/Sw/phalFelica_Sw.o
 .bss           0x00000000        0x0 build/default/debug/NxpNfcRdLib/comps/phalFelica/src/Sw/phalFelica_Sw.o
 .reginfo       0x00000000       0x18 build/default/debug/NxpNfcRdLib/comps/phalFelica/src/Sw/phalFelica_Sw.o
 .text          0x00000000        0x0 build/default/debug/NxpNfcRdLib/comps/phalFelica/src/phalFelica.o
 .data          0x00000000        0x0 build/default/debug/NxpNfcRdLib/comps/phalFelica/src/phalFelica.o
 .bss           0x00000000        0x0 build/default/debug/NxpNfcRdLib/comps/phalFelica/src/phalFelica.o
 .reginfo       0x00000000       0x18 build/default/debug/NxpNfcRdLib/comps/phalFelica/src/phalFelica.o
 .text          0x00000000        0x0 build/default/debug/NxpNfcRdLib/comps/phalI15693/src/Sw/phalI15693_Sw.o
 .data          0x00000000        0x0 build/default/debug/NxpNfcRdLib/comps/phalI15693/src/Sw/phalI15693_Sw.o
 .bss           0x00000000        0x0 build/default/debug/NxpNfcRdLib/comps/phalI15693/src/Sw/phalI15693_Sw.o
 .reginfo       0x00000000       0x18 build/default/debug/NxpNfcRdLib/comps/phalI15693/src/Sw/phalI15693_Sw.o
 .text          0x00000000        0x0 build/default/debug/NxpNfcRdLib/comps/phalI15693/src/phalI15693.o
 .data          0x00000000        0x0 build/default/debug/NxpNfcRdLib/comps/phalI15693/src/phalI15693.o
 .bss           0x00000000        0x0 build/default/debug/NxpNfcRdLib/comps/phalI15693/src/phalI15693.o
 .reginfo       0x00000000       0x18 build/default/debug/NxpNfcRdLib/comps/phalI15693/src/phalI15693.o
 .text          0x00000000        0x0 build/default/debug/NxpNfcRdLib/comps/phalI18000p3m3/src/Sw/phalI18000p3m3_Sw.o
 .data          0x00000000        0x0 build/default/debug/NxpNfcRdLib/comps/phalI18000p3m3/src/Sw/phalI18000p3m3_Sw.o
 .bss           0x00000000        0x0 build/default/debug/NxpNfcRdLib/comps/phalI18000p3m3/src/Sw/phalI18000p3m3_Sw.o
 .reginfo       0x00000000       0x18 build/default/debug/NxpNfcRdLib/comps/phalI18000p3m3/src/Sw/phalI18000p3m3_Sw.o
 .text          0x00000000        0x0 build/default/debug/NxpNfcRdLib/comps/phalI18000p3m3/src/Sw/phalI18000p3m3_Sw_Int.o
 .data          0x00000000        0x0 build/default/debug/NxpNfcRdLib/comps/phalI18000p3m3/src/Sw/phalI18000p3m3_Sw_Int.o
 .bss           0x00000000        0x0 build/default/debug/NxpNfcRdLib/comps/phalI18000p3m3/src/Sw/phalI18000p3m3_Sw_Int.o
 .reginfo       0x00000000       0x18 build/default/debug/NxpNfcRdLib/comps/phalI18000p3m3/src/Sw/phalI18000p3m3_Sw_Int.o
 .text          0x00000000        0x0 build/default/debug/NxpNfcRdLib/comps/phalI18000p3m3/src/phalI18000p3m3.o
 .data          0x00000000        0x0 build/default/debug/NxpNfcRdLib/comps/phalI18000p3m3/src/phalI18000p3m3.o
 .bss           0x00000000        0x0 build/default/debug/NxpNfcRdLib/comps/phalI18000p3m3/src/phalI18000p3m3.o
 .reginfo       0x00000000       0x18 build/default/debug/NxpNfcRdLib/comps/phalI18000p3m3/src/phalI18000p3m3.o
 .text          0x00000000        0x0 build/default/debug/NxpNfcRdLib/comps/phalMfc/src/Sw/phalMfc_Sw.o
 .data          0x00000000        0x0 build/default/debug/NxpNfcRdLib/comps/phalMfc/src/Sw/phalMfc_Sw.o
 .bss           0x00000000        0x0 build/default/debug/NxpNfcRdLib/comps/phalMfc/src/Sw/phalMfc_Sw.o
 .reginfo       0x00000000       0x18 build/default/debug/NxpNfcRdLib/comps/phalMfc/src/Sw/phalMfc_Sw.o
 .text.phalMfc_Sw_Authenticate
                0x00000000      0x1b4 build/default/debug/NxpNfcRdLib/comps/phalMfc/src/Sw/phalMfc_Sw.o
 .text.phalMfc_Sw_Read
                0x00000000       0xd4 build/default/debug/NxpNfcRdLib/comps/phalMfc/src/Sw/phalMfc_Sw.o
 .text.phalMfc_Sw_ReadValue
                0x00000000       0xc8 build/default/debug/NxpNfcRdLib/comps/phalMfc/src/Sw/phalMfc_Sw.o
 .text.phalMfc_Sw_Write
                0x00000000       0xe8 build/default/debug/NxpNfcRdLib/comps/phalMfc/src/Sw/phalMfc_Sw.o
 .text.phalMfc_Sw_WriteValue
                0x00000000       0x94 build/default/debug/NxpNfcRdLib/comps/phalMfc/src/Sw/phalMfc_Sw.o
 .text.phalMfc_Sw_Increment
                0x00000000       0x5c build/default/debug/NxpNfcRdLib/comps/phalMfc/src/Sw/phalMfc_Sw.o
 .text.phalMfc_Sw_Decrement
                0x00000000       0x5c build/default/debug/NxpNfcRdLib/comps/phalMfc/src/Sw/phalMfc_Sw.o
 .text.phalMfc_Sw_Transfer
                0x00000000       0x50 build/default/debug/NxpNfcRdLib/comps/phalMfc/src/Sw/phalMfc_Sw.o
 .text.phalMfc_Sw_Restore
                0x00000000       0x74 build/default/debug/NxpNfcRdLib/comps/phalMfc/src/Sw/phalMfc_Sw.o
 .text.phalMfc_Sw_IncrementTransfer
                0x00000000       0xa8 build/default/debug/NxpNfcRdLib/comps/phalMfc/src/Sw/phalMfc_Sw.o
 .text.phalMfc_Sw_DecrementTransfer
                0x00000000       0xa8 build/default/debug/NxpNfcRdLib/comps/phalMfc/src/Sw/phalMfc_Sw.o
 .text.phalMfc_Sw_RestoreTransfer
                0x00000000       0xa0 build/default/debug/NxpNfcRdLib/comps/phalMfc/src/Sw/phalMfc_Sw.o
 .text.phalMfc_Sw_PersonalizeUid
                0x00000000       0x78 build/default/debug/NxpNfcRdLib/comps/phalMfc/src/Sw/phalMfc_Sw.o
 .text.phalMfc_Sw_GetVersion
                0x00000000       0xc4 build/default/debug/NxpNfcRdLib/comps/phalMfc/src/Sw/phalMfc_Sw.o
 .text          0x00000000        0x0 build/default/debug/NxpNfcRdLib/comps/phalMfc/src/phalMfc.o
 .data          0x00000000        0x0 build/default/debug/NxpNfcRdLib/comps/phalMfc/src/phalMfc.o
 .bss           0x00000000        0x0 build/default/debug/NxpNfcRdLib/comps/phalMfc/src/phalMfc.o
 .reginfo       0x00000000       0x18 build/default/debug/NxpNfcRdLib/comps/phalMfc/src/phalMfc.o
 .text          0x00000000        0x0 build/default/debug/NxpNfcRdLib/comps/phalMfc/src/phalMfc_Int.o
 .data          0x00000000        0x0 build/default/debug/NxpNfcRdLib/comps/phalMfc/src/phalMfc_Int.o
 .bss           0x00000000        0x0 build/default/debug/NxpNfcRdLib/comps/phalMfc/src/phalMfc_Int.o
 .reginfo       0x00000000       0x18 build/default/debug/NxpNfcRdLib/comps/phalMfc/src/phalMfc_Int.o
 .text.phalMfc_Int_Transfer
                0x00000000       0x70 build/default/debug/NxpNfcRdLib/comps/phalMfc/src/phalMfc_Int.o
 .text.phalMfc_Int_Value
                0x00000000      0x100 build/default/debug/NxpNfcRdLib/comps/phalMfc/src/phalMfc_Int.o
 .text.phalMfc_Int_CreateValueBlock
                0x00000000      0x19c build/default/debug/NxpNfcRdLib/comps/phalMfc/src/phalMfc_Int.o
 .text.phalMfc_Int_CheckValueBlockFormat
                0x00000000      0x1b4 build/default/debug/NxpNfcRdLib/comps/phalMfc/src/phalMfc_Int.o
 .text.phalMfc_Int_ResolveReturnCode
                0x00000000       0xc0 build/default/debug/NxpNfcRdLib/comps/phalMfc/src/phalMfc_Int.o
 .text          0x00000000        0x0 build/default/debug/NxpNfcRdLib/comps/phalMfdf/src/Sw/phalMfdf_Sw.o
 .data          0x00000000        0x0 build/default/debug/NxpNfcRdLib/comps/phalMfdf/src/Sw/phalMfdf_Sw.o
 .bss           0x00000000        0x0 build/default/debug/NxpNfcRdLib/comps/phalMfdf/src/Sw/phalMfdf_Sw.o
 .reginfo       0x00000000       0x18 build/default/debug/NxpNfcRdLib/comps/phalMfdf/src/Sw/phalMfdf_Sw.o
 .text.phalMfdf_Sw_CreateApplication
                0x00000000      0x1c0 build/default/debug/NxpNfcRdLib/comps/phalMfdf/src/Sw/phalMfdf_Sw.o
 .text.phalMfdf_Sw_GetVersion
                0x00000000       0xd8 build/default/debug/NxpNfcRdLib/comps/phalMfdf/src/Sw/phalMfdf_Sw.o
 .text.phalMfdf_Sw_CreateStdDataFile
                0x00000000      0x1b0 build/default/debug/NxpNfcRdLib/comps/phalMfdf/src/Sw/phalMfdf_Sw.o
 .text.phalMfdf_Sw_WriteData
                0x00000000      0x13c build/default/debug/NxpNfcRdLib/comps/phalMfdf/src/Sw/phalMfdf_Sw.o
 .text.phalMfdf_Sw_IsoSelectFile
                0x00000000      0x1ac build/default/debug/NxpNfcRdLib/comps/phalMfdf/src/Sw/phalMfdf_Sw.o
 .text.phalMfdf_Sw_IsoReadBinary
                0x00000000      0x1cc build/default/debug/NxpNfcRdLib/comps/phalMfdf/src/Sw/phalMfdf_Sw.o
 .text.phalMfdf_Sw_IsoUpdateBinary
                0x00000000      0x11c build/default/debug/NxpNfcRdLib/comps/phalMfdf/src/Sw/phalMfdf_Sw.o
 .text.phalMfdf_Sw_GetConfig
                0x00000000       0x64 build/default/debug/NxpNfcRdLib/comps/phalMfdf/src/Sw/phalMfdf_Sw.o
 .text          0x00000000        0x0 build/default/debug/NxpNfcRdLib/comps/phalMfdf/src/Sw/phalMfdf_Sw_Int.o
 .data          0x00000000        0x0 build/default/debug/NxpNfcRdLib/comps/phalMfdf/src/Sw/phalMfdf_Sw_Int.o
 .bss           0x00000000        0x0 build/default/debug/NxpNfcRdLib/comps/phalMfdf/src/Sw/phalMfdf_Sw_Int.o
 .reginfo       0x00000000       0x18 build/default/debug/NxpNfcRdLib/comps/phalMfdf/src/Sw/phalMfdf_Sw_Int.o
 .text.phalMfdf_Sw_Int_GetData
                0x00000000      0xc10 build/default/debug/NxpNfcRdLib/comps/phalMfdf/src/Sw/phalMfdf_Sw_Int.o
 .text.phalMfdf_Sw_Int_ReadData_Plain
                0x00000000       0xe0 build/default/debug/NxpNfcRdLib/comps/phalMfdf/src/Sw/phalMfdf_Sw_Int.o
 .text.phalMfdf_Sw_Int_Write_Plain
                0x00000000      0x4c0 build/default/debug/NxpNfcRdLib/comps/phalMfdf/src/Sw/phalMfdf_Sw_Int.o
 .text.phalMfdf_Sw_Int_SendDataToPICC
                0x00000000      0x464 build/default/debug/NxpNfcRdLib/comps/phalMfdf/src/Sw/phalMfdf_Sw_Int.o
 .text.phalMfdf_Sw_Int_IsoRead
                0x00000000      0x338 build/default/debug/NxpNfcRdLib/comps/phalMfdf/src/Sw/phalMfdf_Sw_Int.o
 .text          0x00000000        0x0 build/default/debug/NxpNfcRdLib/comps/phalMfdf/src/phalMfdf.o
 .data          0x00000000        0x0 build/default/debug/NxpNfcRdLib/comps/phalMfdf/src/phalMfdf.o
 .bss           0x00000000        0x0 build/default/debug/NxpNfcRdLib/comps/phalMfdf/src/phalMfdf.o
 .reginfo       0x00000000       0x18 build/default/debug/NxpNfcRdLib/comps/phalMfdf/src/phalMfdf.o
 .text          0x00000000        0x0 build/default/debug/NxpNfcRdLib/comps/phalMfdf/src/phalMfdf_Int.o
 .data          0x00000000        0x0 build/default/debug/NxpNfcRdLib/comps/phalMfdf/src/phalMfdf_Int.o
 .bss           0x00000000        0x0 build/default/debug/NxpNfcRdLib/comps/phalMfdf/src/phalMfdf_Int.o
 .reginfo       0x00000000       0x18 build/default/debug/NxpNfcRdLib/comps/phalMfdf/src/phalMfdf_Int.o
 .text.phalMfdf_Int_Send7816Apdu
                0x00000000      0x2c0 build/default/debug/NxpNfcRdLib/comps/phalMfdf/src/phalMfdf_Int.o
 .text          0x00000000        0x0 build/default/debug/NxpNfcRdLib/comps/phalMful/src/Sw/phalMful_Sw.o
 .data          0x00000000        0x0 build/default/debug/NxpNfcRdLib/comps/phalMful/src/Sw/phalMful_Sw.o
 .bss           0x00000000        0x0 build/default/debug/NxpNfcRdLib/comps/phalMful/src/Sw/phalMful_Sw.o
 .reginfo       0x00000000       0x18 build/default/debug/NxpNfcRdLib/comps/phalMful/src/Sw/phalMful_Sw.o
 .text          0x00000000        0x0 build/default/debug/NxpNfcRdLib/comps/phalMful/src/phalMful.o
 .data          0x00000000        0x0 build/default/debug/NxpNfcRdLib/comps/phalMful/src/phalMful.o
 .bss           0x00000000        0x0 build/default/debug/NxpNfcRdLib/comps/phalMful/src/phalMful.o
 .reginfo       0x00000000       0x18 build/default/debug/NxpNfcRdLib/comps/phalMful/src/phalMful.o
 .text          0x00000000        0x0 build/default/debug/NxpNfcRdLib/comps/phalMful/src/phalMful_Int.o
 .data          0x00000000        0x0 build/default/debug/NxpNfcRdLib/comps/phalMful/src/phalMful_Int.o
 .bss           0x00000000        0x0 build/default/debug/NxpNfcRdLib/comps/phalMful/src/phalMful_Int.o
 .reginfo       0x00000000       0x18 build/default/debug/NxpNfcRdLib/comps/phalMful/src/phalMful_Int.o
 .text          0x00000000        0x0 build/default/debug/NxpNfcRdLib/comps/phalSli/src/Sw/phalSli_Sw.o
 .data          0x00000000        0x0 build/default/debug/NxpNfcRdLib/comps/phalSli/src/Sw/phalSli_Sw.o
 .bss           0x00000000        0x0 build/default/debug/NxpNfcRdLib/comps/phalSli/src/Sw/phalSli_Sw.o
 .reginfo       0x00000000       0x18 build/default/debug/NxpNfcRdLib/comps/phalSli/src/Sw/phalSli_Sw.o
 .text          0x00000000        0x0 build/default/debug/NxpNfcRdLib/comps/phalSli/src/phalSli.o
 .data          0x00000000        0x0 build/default/debug/NxpNfcRdLib/comps/phalSli/src/phalSli.o
 .bss           0x00000000        0x0 build/default/debug/NxpNfcRdLib/comps/phalSli/src/phalSli.o
 .reginfo       0x00000000       0x18 build/default/debug/NxpNfcRdLib/comps/phalSli/src/phalSli.o
 .text          0x00000000        0x0 build/default/debug/NxpNfcRdLib/comps/phalT1T/src/Sw/phalT1T_Sw.o
 .data          0x00000000        0x0 build/default/debug/NxpNfcRdLib/comps/phalT1T/src/Sw/phalT1T_Sw.o
 .bss           0x00000000        0x0 build/default/debug/NxpNfcRdLib/comps/phalT1T/src/Sw/phalT1T_Sw.o
 .reginfo       0x00000000       0x18 build/default/debug/NxpNfcRdLib/comps/phalT1T/src/Sw/phalT1T_Sw.o
 .text          0x00000000        0x0 build/default/debug/NxpNfcRdLib/comps/phalT1T/src/phalT1T.o
 .data          0x00000000        0x0 build/default/debug/NxpNfcRdLib/comps/phalT1T/src/phalT1T.o
 .bss           0x00000000        0x0 build/default/debug/NxpNfcRdLib/comps/phalT1T/src/phalT1T.o
 .reginfo       0x00000000       0x18 build/default/debug/NxpNfcRdLib/comps/phalT1T/src/phalT1T.o
 .text          0x00000000        0x0 build/default/debug/NxpNfcRdLib/comps/phalTop/src/Sw/phalTop_Sw.o
 .data          0x00000000        0x0 build/default/debug/NxpNfcRdLib/comps/phalTop/src/Sw/phalTop_Sw.o
 .bss           0x00000000        0x0 build/default/debug/NxpNfcRdLib/comps/phalTop/src/Sw/phalTop_Sw.o
 .reginfo       0x00000000       0x18 build/default/debug/NxpNfcRdLib/comps/phalTop/src/Sw/phalTop_Sw.o
 .text          0x00000000        0x0 build/default/debug/NxpNfcRdLib/comps/phalTop/src/Sw/phalTop_Sw_Int_T1T.o
 .data          0x00000000        0x0 build/default/debug/NxpNfcRdLib/comps/phalTop/src/Sw/phalTop_Sw_Int_T1T.o
 .bss           0x00000000        0x0 build/default/debug/NxpNfcRdLib/comps/phalTop/src/Sw/phalTop_Sw_Int_T1T.o
 .reginfo       0x00000000       0x18 build/default/debug/NxpNfcRdLib/comps/phalTop/src/Sw/phalTop_Sw_Int_T1T.o
 .text          0x00000000        0x0 build/default/debug/NxpNfcRdLib/comps/phalTop/src/Sw/phalTop_Sw_Int_T2T.o
 .data          0x00000000        0x0 build/default/debug/NxpNfcRdLib/comps/phalTop/src/Sw/phalTop_Sw_Int_T2T.o
 .bss           0x00000000        0x0 build/default/debug/NxpNfcRdLib/comps/phalTop/src/Sw/phalTop_Sw_Int_T2T.o
 .reginfo       0x00000000       0x18 build/default/debug/NxpNfcRdLib/comps/phalTop/src/Sw/phalTop_Sw_Int_T2T.o
 .text          0x00000000        0x0 build/default/debug/NxpNfcRdLib/comps/phalTop/src/Sw/phalTop_Sw_Int_T3T.o
 .data          0x00000000        0x0 build/default/debug/NxpNfcRdLib/comps/phalTop/src/Sw/phalTop_Sw_Int_T3T.o
 .bss           0x00000000        0x0 build/default/debug/NxpNfcRdLib/comps/phalTop/src/Sw/phalTop_Sw_Int_T3T.o
 .reginfo       0x00000000       0x18 build/default/debug/NxpNfcRdLib/comps/phalTop/src/Sw/phalTop_Sw_Int_T3T.o
 .text          0x00000000        0x0 build/default/debug/NxpNfcRdLib/comps/phalTop/src/Sw/phalTop_Sw_Int_T4T.o
 .data          0x00000000        0x0 build/default/debug/NxpNfcRdLib/comps/phalTop/src/Sw/phalTop_Sw_Int_T4T.o
 .bss           0x00000000        0x0 build/default/debug/NxpNfcRdLib/comps/phalTop/src/Sw/phalTop_Sw_Int_T4T.o
 .reginfo       0x00000000       0x18 build/default/debug/NxpNfcRdLib/comps/phalTop/src/Sw/phalTop_Sw_Int_T4T.o
 .text          0x00000000        0x0 build/default/debug/NxpNfcRdLib/comps/phalTop/src/Sw/phalTop_Sw_Int_T5T.o
 .data          0x00000000        0x0 build/default/debug/NxpNfcRdLib/comps/phalTop/src/Sw/phalTop_Sw_Int_T5T.o
 .bss           0x00000000        0x0 build/default/debug/NxpNfcRdLib/comps/phalTop/src/Sw/phalTop_Sw_Int_T5T.o
 .reginfo       0x00000000       0x18 build/default/debug/NxpNfcRdLib/comps/phalTop/src/Sw/phalTop_Sw_Int_T5T.o
 .text          0x00000000        0x0 build/default/debug/NxpNfcRdLib/comps/phalTop/src/phalTop.o
 .data          0x00000000        0x0 build/default/debug/NxpNfcRdLib/comps/phalTop/src/phalTop.o
 .bss           0x00000000        0x0 build/default/debug/NxpNfcRdLib/comps/phalTop/src/phalTop.o
 .reginfo       0x00000000       0x18 build/default/debug/NxpNfcRdLib/comps/phalTop/src/phalTop.o
 .text          0x00000000        0x0 build/default/debug/NxpNfcRdLib/comps/phbalReg/src/KinetisI2C/phbalReg_KinetisI2C.o
 .data          0x00000000        0x0 build/default/debug/NxpNfcRdLib/comps/phbalReg/src/KinetisI2C/phbalReg_KinetisI2C.o
 .bss           0x00000000        0x0 build/default/debug/NxpNfcRdLib/comps/phbalReg/src/KinetisI2C/phbalReg_KinetisI2C.o
 .reginfo       0x00000000       0x18 build/default/debug/NxpNfcRdLib/comps/phbalReg/src/KinetisI2C/phbalReg_KinetisI2C.o
 .text          0x00000000        0x0 build/default/debug/NxpNfcRdLib/comps/phbalReg/src/KinetisSPI/phbalReg_KinetisSpi.o
 .data          0x00000000        0x0 build/default/debug/NxpNfcRdLib/comps/phbalReg/src/KinetisSPI/phbalReg_KinetisSpi.o
 .bss           0x00000000        0x0 build/default/debug/NxpNfcRdLib/comps/phbalReg/src/KinetisSPI/phbalReg_KinetisSpi.o
 .reginfo       0x00000000       0x18 build/default/debug/NxpNfcRdLib/comps/phbalReg/src/KinetisSPI/phbalReg_KinetisSpi.o
 .text          0x00000000        0x0 build/default/debug/NxpNfcRdLib/comps/phbalReg/src/LinuxKernelSpi/phbalReg_LinuxKernelSpi.o
 .data          0x00000000        0x0 build/default/debug/NxpNfcRdLib/comps/phbalReg/src/LinuxKernelSpi/phbalReg_LinuxKernelSpi.o
 .bss           0x00000000        0x0 build/default/debug/NxpNfcRdLib/comps/phbalReg/src/LinuxKernelSpi/phbalReg_LinuxKernelSpi.o
 .reginfo       0x00000000       0x18 build/default/debug/NxpNfcRdLib/comps/phbalReg/src/LinuxKernelSpi/phbalReg_LinuxKernelSpi.o
 .text          0x00000000        0x0 build/default/debug/NxpNfcRdLib/comps/phbalReg/src/LinuxUserI2C/phbalReg_LinuxUserI2C.o
 .data          0x00000000        0x0 build/default/debug/NxpNfcRdLib/comps/phbalReg/src/LinuxUserI2C/phbalReg_LinuxUserI2C.o
 .bss           0x00000000        0x0 build/default/debug/NxpNfcRdLib/comps/phbalReg/src/LinuxUserI2C/phbalReg_LinuxUserI2C.o
 .reginfo       0x00000000       0x18 build/default/debug/NxpNfcRdLib/comps/phbalReg/src/LinuxUserI2C/phbalReg_LinuxUserI2C.o
 .text          0x00000000        0x0 build/default/debug/NxpNfcRdLib/comps/phbalReg/src/LinuxUserSpi/phbalReg_LinuxUserSpi.o
 .data          0x00000000        0x0 build/default/debug/NxpNfcRdLib/comps/phbalReg/src/LinuxUserSpi/phbalReg_LinuxUserSpi.o
 .bss           0x00000000        0x0 build/default/debug/NxpNfcRdLib/comps/phbalReg/src/LinuxUserSpi/phbalReg_LinuxUserSpi.o
 .reginfo       0x00000000       0x18 build/default/debug/NxpNfcRdLib/comps/phbalReg/src/LinuxUserSpi/phbalReg_LinuxUserSpi.o
 .text          0x00000000        0x0 build/default/debug/NxpNfcRdLib/comps/phbalReg/src/LpcOpenI2C/phbalReg_LpcOpenI2c.o
 .data          0x00000000        0x0 build/default/debug/NxpNfcRdLib/comps/phbalReg/src/LpcOpenI2C/phbalReg_LpcOpenI2c.o
 .bss           0x00000000        0x0 build/default/debug/NxpNfcRdLib/comps/phbalReg/src/LpcOpenI2C/phbalReg_LpcOpenI2c.o
 .reginfo       0x00000000       0x18 build/default/debug/NxpNfcRdLib/comps/phbalReg/src/LpcOpenI2C/phbalReg_LpcOpenI2c.o
 .text          0x00000000        0x0 build/default/debug/NxpNfcRdLib/comps/phbalReg/src/LpcOpenSPI/phbalReg_LpcOpenSpi.o
 .data          0x00000000        0x0 build/default/debug/NxpNfcRdLib/comps/phbalReg/src/LpcOpenSPI/phbalReg_LpcOpenSpi.o
 .bss           0x00000000        0x0 build/default/debug/NxpNfcRdLib/comps/phbalReg/src/LpcOpenSPI/phbalReg_LpcOpenSpi.o
 .reginfo       0x00000000       0x18 build/default/debug/NxpNfcRdLib/comps/phbalReg/src/LpcOpenSPI/phbalReg_LpcOpenSpi.o
 .text          0x00000000        0x0 build/default/debug/NxpNfcRdLib/comps/phbalReg/src/Pic32mxSPI/phbalReg_Pic32mxSpi.o
 .data          0x00000000        0x0 build/default/debug/NxpNfcRdLib/comps/phbalReg/src/Pic32mxSPI/phbalReg_Pic32mxSpi.o
 .bss           0x00000000        0x0 build/default/debug/NxpNfcRdLib/comps/phbalReg/src/Pic32mxSPI/phbalReg_Pic32mxSpi.o
 .reginfo       0x00000000       0x18 build/default/debug/NxpNfcRdLib/comps/phbalReg/src/Pic32mxSPI/phbalReg_Pic32mxSpi.o
 .text.phbalReg_Pic32mxSpi_GetPortList
                0x00000000       0x28 build/default/debug/NxpNfcRdLib/comps/phbalReg/src/Pic32mxSPI/phbalReg_Pic32mxSpi.o
 .text.phbalReg_Pic32mxSpi_SetPort
                0x00000000       0x28 build/default/debug/NxpNfcRdLib/comps/phbalReg/src/Pic32mxSPI/phbalReg_Pic32mxSpi.o
 .text.phbalReg_Pic32mxSpi_OpenPort
                0x00000000       0x28 build/default/debug/NxpNfcRdLib/comps/phbalReg/src/Pic32mxSPI/phbalReg_Pic32mxSpi.o
 .text.phbalReg_Pic32mxSpi_ClosePort
                0x00000000       0x28 build/default/debug/NxpNfcRdLib/comps/phbalReg/src/Pic32mxSPI/phbalReg_Pic32mxSpi.o
 .text.phbalReg_Pic32mxSpi_SetConfig
                0x00000000       0x38 build/default/debug/NxpNfcRdLib/comps/phbalReg/src/Pic32mxSPI/phbalReg_Pic32mxSpi.o
 .text.phbalReg_Pic32mxSpi_GetConfig
                0x00000000       0x34 build/default/debug/NxpNfcRdLib/comps/phbalReg/src/Pic32mxSPI/phbalReg_Pic32mxSpi.o
 .text          0x00000000        0x0 build/default/debug/NxpNfcRdLib/comps/phbalReg/src/phbalReg.o
 .data          0x00000000        0x0 build/default/debug/NxpNfcRdLib/comps/phbalReg/src/phbalReg.o
 .bss           0x00000000        0x0 build/default/debug/NxpNfcRdLib/comps/phbalReg/src/phbalReg.o
 .reginfo       0x00000000       0x18 build/default/debug/NxpNfcRdLib/comps/phbalReg/src/phbalReg.o
 .text          0x00000000        0x0 build/default/debug/NxpNfcRdLib/comps/phceT4T/src/Sw/phceT4T_Sw.o
 .data          0x00000000        0x0 build/default/debug/NxpNfcRdLib/comps/phceT4T/src/Sw/phceT4T_Sw.o
 .bss           0x00000000        0x0 build/default/debug/NxpNfcRdLib/comps/phceT4T/src/Sw/phceT4T_Sw.o
 .reginfo       0x00000000       0x18 build/default/debug/NxpNfcRdLib/comps/phceT4T/src/Sw/phceT4T_Sw.o
 .text          0x00000000        0x0 build/default/debug/NxpNfcRdLib/comps/phceT4T/src/Sw/phceT4T_Sw_Int.o
 .data          0x00000000        0x0 build/default/debug/NxpNfcRdLib/comps/phceT4T/src/Sw/phceT4T_Sw_Int.o
 .bss           0x00000000        0x0 build/default/debug/NxpNfcRdLib/comps/phceT4T/src/Sw/phceT4T_Sw_Int.o
 .reginfo       0x00000000       0x18 build/default/debug/NxpNfcRdLib/comps/phceT4T/src/Sw/phceT4T_Sw_Int.o
 .text          0x00000000        0x0 build/default/debug/NxpNfcRdLib/comps/phceT4T/src/phceT4T.o
 .data          0x00000000        0x0 build/default/debug/NxpNfcRdLib/comps/phceT4T/src/phceT4T.o
 .bss           0x00000000        0x0 build/default/debug/NxpNfcRdLib/comps/phceT4T/src/phceT4T.o
 .reginfo       0x00000000       0x18 build/default/debug/NxpNfcRdLib/comps/phceT4T/src/phceT4T.o
 .text          0x00000000        0x0 build/default/debug/NxpNfcRdLib/comps/phCidManager/src/Sw/phCidManager_Sw.o
 .data          0x00000000        0x0 build/default/debug/NxpNfcRdLib/comps/phCidManager/src/Sw/phCidManager_Sw.o
 .bss           0x00000000        0x0 build/default/debug/NxpNfcRdLib/comps/phCidManager/src/Sw/phCidManager_Sw.o
 .reginfo       0x00000000       0x18 build/default/debug/NxpNfcRdLib/comps/phCidManager/src/Sw/phCidManager_Sw.o
 .text          0x00000000        0x0 build/default/debug/NxpNfcRdLib/comps/phCidManager/src/phCidManager.o
 .data          0x00000000        0x0 build/default/debug/NxpNfcRdLib/comps/phCidManager/src/phCidManager.o
 .bss           0x00000000        0x0 build/default/debug/NxpNfcRdLib/comps/phCidManager/src/phCidManager.o
 .reginfo       0x00000000       0x18 build/default/debug/NxpNfcRdLib/comps/phCidManager/src/phCidManager.o
 .text          0x00000000        0x0 build/default/debug/NxpNfcRdLib/comps/phCryptoRng/src/Sw/phCryptoRng_Sw.o
 .data          0x00000000        0x0 build/default/debug/NxpNfcRdLib/comps/phCryptoRng/src/Sw/phCryptoRng_Sw.o
 .bss           0x00000000        0x0 build/default/debug/NxpNfcRdLib/comps/phCryptoRng/src/Sw/phCryptoRng_Sw.o
 .reginfo       0x00000000       0x18 build/default/debug/NxpNfcRdLib/comps/phCryptoRng/src/Sw/phCryptoRng_Sw.o
 .text          0x00000000        0x0 build/default/debug/NxpNfcRdLib/comps/phCryptoRng/src/phCryptoRng.o
 .data          0x00000000        0x0 build/default/debug/NxpNfcRdLib/comps/phCryptoRng/src/phCryptoRng.o
 .bss           0x00000000        0x0 build/default/debug/NxpNfcRdLib/comps/phCryptoRng/src/phCryptoRng.o
 .reginfo       0x00000000       0x18 build/default/debug/NxpNfcRdLib/comps/phCryptoRng/src/phCryptoRng.o
 .text          0x00000000        0x0 build/default/debug/NxpNfcRdLib/comps/phCryptoSym/src/Sw/phCryptoSym_Sw.o
 .data          0x00000000        0x0 build/default/debug/NxpNfcRdLib/comps/phCryptoSym/src/Sw/phCryptoSym_Sw.o
 .bss           0x00000000        0x0 build/default/debug/NxpNfcRdLib/comps/phCryptoSym/src/Sw/phCryptoSym_Sw.o
 .reginfo       0x00000000       0x18 build/default/debug/NxpNfcRdLib/comps/phCryptoSym/src/Sw/phCryptoSym_Sw.o
 .text          0x00000000        0x0 build/default/debug/NxpNfcRdLib/comps/phCryptoSym/src/Sw/phCryptoSym_Sw_Aes.o
 .data          0x00000000        0x0 build/default/debug/NxpNfcRdLib/comps/phCryptoSym/src/Sw/phCryptoSym_Sw_Aes.o
 .bss           0x00000000        0x0 build/default/debug/NxpNfcRdLib/comps/phCryptoSym/src/Sw/phCryptoSym_Sw_Aes.o
 .reginfo       0x00000000       0x18 build/default/debug/NxpNfcRdLib/comps/phCryptoSym/src/Sw/phCryptoSym_Sw_Aes.o
 .text          0x00000000        0x0 build/default/debug/NxpNfcRdLib/comps/phCryptoSym/src/Sw/phCryptoSym_Sw_Des.o
 .data          0x00000000        0x0 build/default/debug/NxpNfcRdLib/comps/phCryptoSym/src/Sw/phCryptoSym_Sw_Des.o
 .bss           0x00000000        0x0 build/default/debug/NxpNfcRdLib/comps/phCryptoSym/src/Sw/phCryptoSym_Sw_Des.o
 .reginfo       0x00000000       0x18 build/default/debug/NxpNfcRdLib/comps/phCryptoSym/src/Sw/phCryptoSym_Sw_Des.o
 .text          0x00000000        0x0 build/default/debug/NxpNfcRdLib/comps/phCryptoSym/src/Sw/phCryptoSym_Sw_Int.o
 .data          0x00000000        0x0 build/default/debug/NxpNfcRdLib/comps/phCryptoSym/src/Sw/phCryptoSym_Sw_Int.o
 .bss           0x00000000        0x0 build/default/debug/NxpNfcRdLib/comps/phCryptoSym/src/Sw/phCryptoSym_Sw_Int.o
 .reginfo       0x00000000       0x18 build/default/debug/NxpNfcRdLib/comps/phCryptoSym/src/Sw/phCryptoSym_Sw_Int.o
 .text          0x00000000        0x0 build/default/debug/NxpNfcRdLib/comps/phCryptoSym/src/phCryptoSym.o
 .data          0x00000000        0x0 build/default/debug/NxpNfcRdLib/comps/phCryptoSym/src/phCryptoSym.o
 .bss           0x00000000        0x0 build/default/debug/NxpNfcRdLib/comps/phCryptoSym/src/phCryptoSym.o
 .reginfo       0x00000000       0x18 build/default/debug/NxpNfcRdLib/comps/phCryptoSym/src/phCryptoSym.o
 .text          0x00000000        0x0 build/default/debug/NxpNfcRdLib/comps/phhalHw/src/Pn5180/phhalHw_Pn5180.o
 .data          0x00000000        0x0 build/default/debug/NxpNfcRdLib/comps/phhalHw/src/Pn5180/phhalHw_Pn5180.o
 .bss           0x00000000        0x0 build/default/debug/NxpNfcRdLib/comps/phhalHw/src/Pn5180/phhalHw_Pn5180.o
 .reginfo       0x00000000       0x18 build/default/debug/NxpNfcRdLib/comps/phhalHw/src/Pn5180/phhalHw_Pn5180.o
 .text.phhalHw_Pn5180_MfcAuthenticateKeyNo
                0x00000000      0x198 build/default/debug/NxpNfcRdLib/comps/phhalHw/src/Pn5180/phhalHw_Pn5180.o
 .text.phhalHw_Pn5180_Transmit
                0x00000000      0x8f4 build/default/debug/NxpNfcRdLib/comps/phhalHw/src/Pn5180/phhalHw_Pn5180.o
 .text.phhalHw_Pn5180_Receive
                0x00000000      0x534 build/default/debug/NxpNfcRdLib/comps/phhalHw/src/Pn5180/phhalHw_Pn5180.o
 .text.phhalHw_Pn5180_Autocoll
                0x00000000      0x928 build/default/debug/NxpNfcRdLib/comps/phhalHw/src/Pn5180/phhalHw_Pn5180.o
 .text.phhalHw_Pn5180_SetListenParameters
                0x00000000       0xa8 build/default/debug/NxpNfcRdLib/comps/phhalHw/src/Pn5180/phhalHw_Pn5180.o
 .text.phhalHw_Pn5180_AsyncAbort
                0x00000000       0x74 build/default/debug/NxpNfcRdLib/comps/phhalHw/src/Pn5180/phhalHw_Pn5180.o
 .text.phhalHw_Pn5180_I18000p3m3Inventory
                0x00000000      0x31c build/default/debug/NxpNfcRdLib/comps/phhalHw/src/Pn5180/phhalHw_Pn5180.o
 .text.phhalHw_Pn5180_18000p3m3ResumeInventory
                0x00000000      0x214 build/default/debug/NxpNfcRdLib/comps/phhalHw/src/Pn5180/phhalHw_Pn5180.o
 .text.phhalHw_Pn5180_EventWait
                0x00000000       0x54 build/default/debug/NxpNfcRdLib/comps/phhalHw/src/Pn5180/phhalHw_Pn5180.o
 .text.phhalHw_Pn5180_EventConsume
                0x00000000       0x4c build/default/debug/NxpNfcRdLib/comps/phhalHw/src/Pn5180/phhalHw_Pn5180.o
 .text.phhalHw_Pn5180_DeInit
                0x00000000      0x1d8 build/default/debug/NxpNfcRdLib/comps/phhalHw/src/Pn5180/phhalHw_Pn5180.o
 .text          0x00000000        0x0 build/default/debug/NxpNfcRdLib/comps/phhalHw/src/Pn5180/phhalHw_Pn5180_Instr.o
 .data          0x00000000        0x0 build/default/debug/NxpNfcRdLib/comps/phhalHw/src/Pn5180/phhalHw_Pn5180_Instr.o
 .bss           0x00000000        0x0 build/default/debug/NxpNfcRdLib/comps/phhalHw/src/Pn5180/phhalHw_Pn5180_Instr.o
 .reginfo       0x00000000       0x18 build/default/debug/NxpNfcRdLib/comps/phhalHw/src/Pn5180/phhalHw_Pn5180_Instr.o
 .text.phhalHw_Pn5180_Instr_Execute
                0x00000000      0x204 build/default/debug/NxpNfcRdLib/comps/phhalHw/src/Pn5180/phhalHw_Pn5180_Instr.o
 .text.phhalHw_Pn5180_Instr_ReadRegisterMultiple
                0x00000000      0x220 build/default/debug/NxpNfcRdLib/comps/phhalHw/src/Pn5180/phhalHw_Pn5180_Instr.o
 .text.phhalHw_Pn5180_Instr_WriteE2Prom
                0x00000000      0x1d4 build/default/debug/NxpNfcRdLib/comps/phhalHw/src/Pn5180/phhalHw_Pn5180_Instr.o
 .text.phhalHw_Pn5180_Instr_WriteTxData
                0x00000000      0x1b8 build/default/debug/NxpNfcRdLib/comps/phhalHw/src/Pn5180/phhalHw_Pn5180_Instr.o
 .text.phhalHw_Pn5180_Instr_SendData
                0x00000000      0x1ec build/default/debug/NxpNfcRdLib/comps/phhalHw/src/Pn5180/phhalHw_Pn5180_Instr.o
 .text.phhalHw_Pn5180_Instr_SwitchModeStandby
                0x00000000      0x1c0 build/default/debug/NxpNfcRdLib/comps/phhalHw/src/Pn5180/phhalHw_Pn5180_Instr.o
 .text.phhalHw_Pn5180_Instr_SwitchModeAutocoll
                0x00000000      0x14c build/default/debug/NxpNfcRdLib/comps/phhalHw/src/Pn5180/phhalHw_Pn5180_Instr.o
 .text.phhalHw_Pn5180_Instr_SwitchModeNormal
                0x00000000       0xc4 build/default/debug/NxpNfcRdLib/comps/phhalHw/src/Pn5180/phhalHw_Pn5180_Instr.o
 .text.phhalHw_Pn5180_Instr_EpcGen2Inventory
                0x00000000      0x230 build/default/debug/NxpNfcRdLib/comps/phhalHw/src/Pn5180/phhalHw_Pn5180_Instr.o
 .text.phhalHw_Pn5180_Instr_EpcGen2RetrieveResultSize
                0x00000000      0x144 build/default/debug/NxpNfcRdLib/comps/phhalHw/src/Pn5180/phhalHw_Pn5180_Instr.o
 .text.phhalHw_Pn5180_Instr_EpcGen2RetrieveResult
                0x00000000      0x168 build/default/debug/NxpNfcRdLib/comps/phhalHw/src/Pn5180/phhalHw_Pn5180_Instr.o
 .text.phhalHw_Pn5180_Instr_EpcGen2ResumeInventory
                0x00000000       0xd8 build/default/debug/NxpNfcRdLib/comps/phhalHw/src/Pn5180/phhalHw_Pn5180_Instr.o
 .text.phhalHw_Pn5180_Instr_UpdateRfConfiguration
                0x00000000      0x198 build/default/debug/NxpNfcRdLib/comps/phhalHw/src/Pn5180/phhalHw_Pn5180_Instr.o
 .text.phhalHw_Pn5180_Instr_RetrieveRfConfigurationSize
                0x00000000      0x148 build/default/debug/NxpNfcRdLib/comps/phhalHw/src/Pn5180/phhalHw_Pn5180_Instr.o
 .text.phhalHw_Pn5180_Instr_RetrieveRfConfiguration
                0x00000000      0x1c4 build/default/debug/NxpNfcRdLib/comps/phhalHw/src/Pn5180/phhalHw_Pn5180_Instr.o
 .text.phhalHw_Pn5180_Instr_ConfigureTestBusDigital
                0x00000000      0x194 build/default/debug/NxpNfcRdLib/comps/phhalHw/src/Pn5180/phhalHw_Pn5180_Instr.o
 .text.phhalHw_Pn5180_Instr_ConfigureTestBusAnalog
                0x00000000      0x144 build/default/debug/NxpNfcRdLib/comps/phhalHw/src/Pn5180/phhalHw_Pn5180_Instr.o
 .text.phhalHw_Pn5180_Instr_GetHALVersion
                0x00000000       0x4c build/default/debug/NxpNfcRdLib/comps/phhalHw/src/Pn5180/phhalHw_Pn5180_Instr.o
 .text.phhalHw_Pn5180_Int_LPCD_SetConfig
                0x00000000      0x214 build/default/debug/NxpNfcRdLib/comps/phhalHw/src/Pn5180/phhalHw_Pn5180_Instr.o
 .text.phhalHw_Pn5180_Int_LPCD_GetConfig
                0x00000000       0xb4 build/default/debug/NxpNfcRdLib/comps/phhalHw/src/Pn5180/phhalHw_Pn5180_Instr.o
 .text          0x00000000        0x0 build/default/debug/NxpNfcRdLib/comps/phhalHw/src/Pn5180/phhalHw_Pn5180_Int.o
 .data          0x00000000        0x0 build/default/debug/NxpNfcRdLib/comps/phhalHw/src/Pn5180/phhalHw_Pn5180_Int.o
 .bss           0x00000000        0x0 build/default/debug/NxpNfcRdLib/comps/phhalHw/src/Pn5180/phhalHw_Pn5180_Int.o
 .reginfo       0x00000000       0x18 build/default/debug/NxpNfcRdLib/comps/phhalHw/src/Pn5180/phhalHw_Pn5180_Int.o
 .text.phhalHw_Pn5180_Int_GetFdt
                0x00000000      0x24c build/default/debug/NxpNfcRdLib/comps/phhalHw/src/Pn5180/phhalHw_Pn5180_Int.o
 .text.phhalHw_Pn5180_AutoSyncByte
                0x00000000     0x11cc build/default/debug/NxpNfcRdLib/comps/phhalHw/src/Pn5180/phhalHw_Pn5180_Int.o
 .text          0x00000000        0x0 build/default/debug/NxpNfcRdLib/comps/phhalHw/src/Pn5180/phhalHw_Pn5180_Wait.o
 .data          0x00000000        0x0 build/default/debug/NxpNfcRdLib/comps/phhalHw/src/Pn5180/phhalHw_Pn5180_Wait.o
 .bss           0x00000000        0x0 build/default/debug/NxpNfcRdLib/comps/phhalHw/src/Pn5180/phhalHw_Pn5180_Wait.o
 .reginfo       0x00000000       0x18 build/default/debug/NxpNfcRdLib/comps/phhalHw/src/Pn5180/phhalHw_Pn5180_Wait.o
 .text          0x00000000        0x0 build/default/debug/NxpNfcRdLib/comps/phhalHw/src/PN7462AU/phhalHw_PN7462AU.o
 .data          0x00000000        0x0 build/default/debug/NxpNfcRdLib/comps/phhalHw/src/PN7462AU/phhalHw_PN7462AU.o
 .bss           0x00000000        0x0 build/default/debug/NxpNfcRdLib/comps/phhalHw/src/PN7462AU/phhalHw_PN7462AU.o
 .reginfo       0x00000000       0x18 build/default/debug/NxpNfcRdLib/comps/phhalHw/src/PN7462AU/phhalHw_PN7462AU.o
 .text          0x00000000        0x0 build/default/debug/NxpNfcRdLib/comps/phhalHw/src/PN7462AU/phhalHw_PN7462AU_Int.o
 .data          0x00000000        0x0 build/default/debug/NxpNfcRdLib/comps/phhalHw/src/PN7462AU/phhalHw_PN7462AU_Int.o
 .bss           0x00000000        0x0 build/default/debug/NxpNfcRdLib/comps/phhalHw/src/PN7462AU/phhalHw_PN7462AU_Int.o
 .reginfo       0x00000000       0x18 build/default/debug/NxpNfcRdLib/comps/phhalHw/src/PN7462AU/phhalHw_PN7462AU_Int.o
 .text          0x00000000        0x0 build/default/debug/NxpNfcRdLib/comps/phhalHw/src/Rc523/phhalHw_Rc523.o
 .data          0x00000000        0x0 build/default/debug/NxpNfcRdLib/comps/phhalHw/src/Rc523/phhalHw_Rc523.o
 .bss           0x00000000        0x0 build/default/debug/NxpNfcRdLib/comps/phhalHw/src/Rc523/phhalHw_Rc523.o
 .reginfo       0x00000000       0x18 build/default/debug/NxpNfcRdLib/comps/phhalHw/src/Rc523/phhalHw_Rc523.o
 .text          0x00000000        0x0 build/default/debug/NxpNfcRdLib/comps/phhalHw/src/Rc523/phhalHw_Rc523_Cmd.o
 .data          0x00000000        0x0 build/default/debug/NxpNfcRdLib/comps/phhalHw/src/Rc523/phhalHw_Rc523_Cmd.o
 .bss           0x00000000        0x0 build/default/debug/NxpNfcRdLib/comps/phhalHw/src/Rc523/phhalHw_Rc523_Cmd.o
 .reginfo       0x00000000       0x18 build/default/debug/NxpNfcRdLib/comps/phhalHw/src/Rc523/phhalHw_Rc523_Cmd.o
 .text          0x00000000        0x0 build/default/debug/NxpNfcRdLib/comps/phhalHw/src/Rc523/phhalHw_Rc523_Int.o
 .data          0x00000000        0x0 build/default/debug/NxpNfcRdLib/comps/phhalHw/src/Rc523/phhalHw_Rc523_Int.o
 .bss           0x00000000        0x0 build/default/debug/NxpNfcRdLib/comps/phhalHw/src/Rc523/phhalHw_Rc523_Int.o
 .reginfo       0x00000000       0x18 build/default/debug/NxpNfcRdLib/comps/phhalHw/src/Rc523/phhalHw_Rc523_Int.o
 .text          0x00000000        0x0 build/default/debug/NxpNfcRdLib/comps/phhalHw/src/Rc523/phhalHw_Rc523_Wait.o
 .data          0x00000000        0x0 build/default/debug/NxpNfcRdLib/comps/phhalHw/src/Rc523/phhalHw_Rc523_Wait.o
 .bss           0x00000000        0x0 build/default/debug/NxpNfcRdLib/comps/phhalHw/src/Rc523/phhalHw_Rc523_Wait.o
 .reginfo       0x00000000       0x18 build/default/debug/NxpNfcRdLib/comps/phhalHw/src/Rc523/phhalHw_Rc523_Wait.o
 .text          0x00000000        0x0 build/default/debug/NxpNfcRdLib/comps/phhalHw/src/Rc663/phhalHw_Rc663.o
 .data          0x00000000        0x0 build/default/debug/NxpNfcRdLib/comps/phhalHw/src/Rc663/phhalHw_Rc663.o
 .bss           0x00000000        0x0 build/default/debug/NxpNfcRdLib/comps/phhalHw/src/Rc663/phhalHw_Rc663.o
 .reginfo       0x00000000       0x18 build/default/debug/NxpNfcRdLib/comps/phhalHw/src/Rc663/phhalHw_Rc663.o
 .text          0x00000000        0x0 build/default/debug/NxpNfcRdLib/comps/phhalHw/src/Rc663/phhalHw_Rc663_Cmd.o
 .data          0x00000000        0x0 build/default/debug/NxpNfcRdLib/comps/phhalHw/src/Rc663/phhalHw_Rc663_Cmd.o
 .bss           0x00000000        0x0 build/default/debug/NxpNfcRdLib/comps/phhalHw/src/Rc663/phhalHw_Rc663_Cmd.o
 .reginfo       0x00000000       0x18 build/default/debug/NxpNfcRdLib/comps/phhalHw/src/Rc663/phhalHw_Rc663_Cmd.o
 .text          0x00000000        0x0 build/default/debug/NxpNfcRdLib/comps/phhalHw/src/Rc663/phhalHw_Rc663_Int.o
 .data          0x00000000        0x0 build/default/debug/NxpNfcRdLib/comps/phhalHw/src/Rc663/phhalHw_Rc663_Int.o
 .bss           0x00000000        0x0 build/default/debug/NxpNfcRdLib/comps/phhalHw/src/Rc663/phhalHw_Rc663_Int.o
 .reginfo       0x00000000       0x18 build/default/debug/NxpNfcRdLib/comps/phhalHw/src/Rc663/phhalHw_Rc663_Int.o
 .text          0x00000000        0x0 build/default/debug/NxpNfcRdLib/comps/phhalHw/src/Rc663/phhalHw_Rc663_Wait.o
 .data          0x00000000        0x0 build/default/debug/NxpNfcRdLib/comps/phhalHw/src/Rc663/phhalHw_Rc663_Wait.o
 .bss           0x00000000        0x0 build/default/debug/NxpNfcRdLib/comps/phhalHw/src/Rc663/phhalHw_Rc663_Wait.o
 .reginfo       0x00000000       0x18 build/default/debug/NxpNfcRdLib/comps/phhalHw/src/Rc663/phhalHw_Rc663_Wait.o
 .text          0x00000000        0x0 build/default/debug/NxpNfcRdLib/comps/phhalHw/src/phhalHw.o
 .data          0x00000000        0x0 build/default/debug/NxpNfcRdLib/comps/phhalHw/src/phhalHw.o
 .bss           0x00000000        0x0 build/default/debug/NxpNfcRdLib/comps/phhalHw/src/phhalHw.o
 .reginfo       0x00000000       0x18 build/default/debug/NxpNfcRdLib/comps/phhalHw/src/phhalHw.o
 .text.phhalHw_Nfc_IC_Init
                0x00000000       0x84 build/default/debug/NxpNfcRdLib/comps/phhalHw/src/phhalHw.o
 .text          0x00000000        0x0 build/default/debug/NxpNfcRdLib/comps/phKeyStore/src/Rc663/phKeyStore_Rc663.o
 .data          0x00000000        0x0 build/default/debug/NxpNfcRdLib/comps/phKeyStore/src/Rc663/phKeyStore_Rc663.o
 .bss           0x00000000        0x0 build/default/debug/NxpNfcRdLib/comps/phKeyStore/src/Rc663/phKeyStore_Rc663.o
 .reginfo       0x00000000       0x18 build/default/debug/NxpNfcRdLib/comps/phKeyStore/src/Rc663/phKeyStore_Rc663.o
 .text          0x00000000        0x0 build/default/debug/NxpNfcRdLib/comps/phKeyStore/src/Sw/phKeyStore_Sw.o
 .data          0x00000000        0x0 build/default/debug/NxpNfcRdLib/comps/phKeyStore/src/Sw/phKeyStore_Sw.o
 .bss           0x00000000        0x0 build/default/debug/NxpNfcRdLib/comps/phKeyStore/src/Sw/phKeyStore_Sw.o
 .reginfo       0x00000000       0x18 build/default/debug/NxpNfcRdLib/comps/phKeyStore/src/Sw/phKeyStore_Sw.o
 .text.phKeyStore_Sw_Init
                0x00000000      0x1f4 build/default/debug/NxpNfcRdLib/comps/phKeyStore/src/Sw/phKeyStore_Sw.o
 .text.phKeyStore_Sw_FormatKeyEntry
                0x00000000      0x154 build/default/debug/NxpNfcRdLib/comps/phKeyStore/src/Sw/phKeyStore_Sw.o
 .text.phKeyStore_Sw_SetKey
                0x00000000       0xf4 build/default/debug/NxpNfcRdLib/comps/phKeyStore/src/Sw/phKeyStore_Sw.o
 .text.phKeyStore_Sw_SetKeyAtPos
                0x00000000       0xf4 build/default/debug/NxpNfcRdLib/comps/phKeyStore/src/Sw/phKeyStore_Sw.o
 .text.phKeyStore_Sw_SetKUC
                0x00000000       0x9c build/default/debug/NxpNfcRdLib/comps/phKeyStore/src/Sw/phKeyStore_Sw.o
 .text.phKeyStore_Sw_SetFullKeyEntry
                0x00000000      0x1e4 build/default/debug/NxpNfcRdLib/comps/phKeyStore/src/Sw/phKeyStore_Sw.o
 .text.phKeyStore_Sw_GetKeyEntry
                0x00000000      0x124 build/default/debug/NxpNfcRdLib/comps/phKeyStore/src/Sw/phKeyStore_Sw.o
 .text.phKeyStore_Sw_GetKey
                0x00000000      0x154 build/default/debug/NxpNfcRdLib/comps/phKeyStore/src/Sw/phKeyStore_Sw.o
 .text.phKeyStore_Sw_SetConfig
                0x00000000       0x38 build/default/debug/NxpNfcRdLib/comps/phKeyStore/src/Sw/phKeyStore_Sw.o
 .text.phKeyStore_Sw_SetConfigStr
                0x00000000       0x3c build/default/debug/NxpNfcRdLib/comps/phKeyStore/src/Sw/phKeyStore_Sw.o
 .text.phKeyStore_Sw_GetConfig
                0x00000000       0x34 build/default/debug/NxpNfcRdLib/comps/phKeyStore/src/Sw/phKeyStore_Sw.o
 .text.phKeyStore_Sw_GetConfigStr
                0x00000000       0x38 build/default/debug/NxpNfcRdLib/comps/phKeyStore/src/Sw/phKeyStore_Sw.o
 .text.phKeyStore_Sw_GetKeyValuePtrPos
                0x00000000       0xc8 build/default/debug/NxpNfcRdLib/comps/phKeyStore/src/Sw/phKeyStore_Sw.o
 .text.phKeyStore_Sw_GetKeyValuePtrVersion
                0x00000000      0x114 build/default/debug/NxpNfcRdLib/comps/phKeyStore/src/Sw/phKeyStore_Sw.o
 .text.phKeyStore_Sw_CheckUpdateKUC
                0x00000000       0xcc build/default/debug/NxpNfcRdLib/comps/phKeyStore/src/Sw/phKeyStore_Sw.o
 .text.phKeyStore_Sw_ChangeKUC
                0x00000000       0x74 build/default/debug/NxpNfcRdLib/comps/phKeyStore/src/Sw/phKeyStore_Sw.o
 .text.phKeyStore_Sw_GetKUC
                0x00000000       0x9c build/default/debug/NxpNfcRdLib/comps/phKeyStore/src/Sw/phKeyStore_Sw.o
 .text          0x00000000        0x0 build/default/debug/NxpNfcRdLib/comps/phKeyStore/src/phKeyStore.o
 .data          0x00000000        0x0 build/default/debug/NxpNfcRdLib/comps/phKeyStore/src/phKeyStore.o
 .bss           0x00000000        0x0 build/default/debug/NxpNfcRdLib/comps/phKeyStore/src/phKeyStore.o
 .reginfo       0x00000000       0x18 build/default/debug/NxpNfcRdLib/comps/phKeyStore/src/phKeyStore.o
 .text.phKeyStore_GetKeySize
                0x00000000       0xb0 build/default/debug/NxpNfcRdLib/comps/phKeyStore/src/phKeyStore.o
 .text          0x00000000        0x0 build/default/debug/NxpNfcRdLib/comps/phlnLlcp/src/Sw/phlnLlcp_Sw.o
 .data          0x00000000        0x0 build/default/debug/NxpNfcRdLib/comps/phlnLlcp/src/Sw/phlnLlcp_Sw.o
 .bss           0x00000000        0x0 build/default/debug/NxpNfcRdLib/comps/phlnLlcp/src/Sw/phlnLlcp_Sw.o
 .reginfo       0x00000000       0x18 build/default/debug/NxpNfcRdLib/comps/phlnLlcp/src/Sw/phlnLlcp_Sw.o
 .text          0x00000000        0x0 build/default/debug/NxpNfcRdLib/comps/phlnLlcp/src/Sw/phlnLlcp_Sw_Int.o
 .data          0x00000000        0x0 build/default/debug/NxpNfcRdLib/comps/phlnLlcp/src/Sw/phlnLlcp_Sw_Int.o
 .bss           0x00000000        0x0 build/default/debug/NxpNfcRdLib/comps/phlnLlcp/src/Sw/phlnLlcp_Sw_Int.o
 .reginfo       0x00000000       0x18 build/default/debug/NxpNfcRdLib/comps/phlnLlcp/src/Sw/phlnLlcp_Sw_Int.o
 .text          0x00000000        0x0 build/default/debug/NxpNfcRdLib/comps/phlnLlcp/src/Sw/phlnLlcp_Sw_Mac.o
 .data          0x00000000        0x0 build/default/debug/NxpNfcRdLib/comps/phlnLlcp/src/Sw/phlnLlcp_Sw_Mac.o
 .bss           0x00000000        0x0 build/default/debug/NxpNfcRdLib/comps/phlnLlcp/src/Sw/phlnLlcp_Sw_Mac.o
 .reginfo       0x00000000       0x18 build/default/debug/NxpNfcRdLib/comps/phlnLlcp/src/Sw/phlnLlcp_Sw_Mac.o
 .text          0x00000000        0x0 build/default/debug/NxpNfcRdLib/comps/phlnLlcp/src/Sw/phlnLlcp_Sw_Transport.o
 .data          0x00000000        0x0 build/default/debug/NxpNfcRdLib/comps/phlnLlcp/src/Sw/phlnLlcp_Sw_Transport.o
 .bss           0x00000000        0x0 build/default/debug/NxpNfcRdLib/comps/phlnLlcp/src/Sw/phlnLlcp_Sw_Transport.o
 .reginfo       0x00000000       0x18 build/default/debug/NxpNfcRdLib/comps/phlnLlcp/src/Sw/phlnLlcp_Sw_Transport.o
 .text          0x00000000        0x0 build/default/debug/NxpNfcRdLib/comps/phlnLlcp/src/Sw/phlnLlcp_Sw_Transport_Connection.o
 .data          0x00000000        0x0 build/default/debug/NxpNfcRdLib/comps/phlnLlcp/src/Sw/phlnLlcp_Sw_Transport_Connection.o
 .bss           0x00000000        0x0 build/default/debug/NxpNfcRdLib/comps/phlnLlcp/src/Sw/phlnLlcp_Sw_Transport_Connection.o
 .reginfo       0x00000000       0x18 build/default/debug/NxpNfcRdLib/comps/phlnLlcp/src/Sw/phlnLlcp_Sw_Transport_Connection.o
 .text          0x00000000        0x0 build/default/debug/NxpNfcRdLib/comps/phlnLlcp/src/Sw/phlnLlcp_Sw_Transport_Connectionless.o
 .data          0x00000000        0x0 build/default/debug/NxpNfcRdLib/comps/phlnLlcp/src/Sw/phlnLlcp_Sw_Transport_Connectionless.o
 .bss           0x00000000        0x0 build/default/debug/NxpNfcRdLib/comps/phlnLlcp/src/Sw/phlnLlcp_Sw_Transport_Connectionless.o
 .reginfo       0x00000000       0x18 build/default/debug/NxpNfcRdLib/comps/phlnLlcp/src/Sw/phlnLlcp_Sw_Transport_Connectionless.o
 .text          0x00000000        0x0 build/default/debug/NxpNfcRdLib/comps/phlnLlcp/src/Sw/phlnLlcp_Timers.o
 .data          0x00000000        0x0 build/default/debug/NxpNfcRdLib/comps/phlnLlcp/src/Sw/phlnLlcp_Timers.o
 .bss           0x00000000        0x0 build/default/debug/NxpNfcRdLib/comps/phlnLlcp/src/Sw/phlnLlcp_Timers.o
 .reginfo       0x00000000       0x18 build/default/debug/NxpNfcRdLib/comps/phlnLlcp/src/Sw/phlnLlcp_Timers.o
 .text          0x00000000        0x0 build/default/debug/NxpNfcRdLib/comps/phlnLlcp/src/phlnLlcp.o
 .data          0x00000000        0x0 build/default/debug/NxpNfcRdLib/comps/phlnLlcp/src/phlnLlcp.o
 .bss           0x00000000        0x0 build/default/debug/NxpNfcRdLib/comps/phlnLlcp/src/phlnLlcp.o
 .reginfo       0x00000000       0x18 build/default/debug/NxpNfcRdLib/comps/phlnLlcp/src/phlnLlcp.o
 .text          0x00000000        0x0 build/default/debug/NxpNfcRdLib/comps/phLog/src/phLog.o
 .data          0x00000000        0x0 build/default/debug/NxpNfcRdLib/comps/phLog/src/phLog.o
 .bss           0x00000000        0x0 build/default/debug/NxpNfcRdLib/comps/phLog/src/phLog.o
 .reginfo       0x00000000       0x18 build/default/debug/NxpNfcRdLib/comps/phLog/src/phLog.o
 .text          0x00000000        0x0 build/default/debug/NxpNfcRdLib/comps/phNfcLib/src/phNfcLib.o
 .data          0x00000000        0x0 build/default/debug/NxpNfcRdLib/comps/phNfcLib/src/phNfcLib.o
 .bss           0x00000000        0x0 build/default/debug/NxpNfcRdLib/comps/phNfcLib/src/phNfcLib.o
 .reginfo       0x00000000       0x18 build/default/debug/NxpNfcRdLib/comps/phNfcLib/src/phNfcLib.o
 .text          0x00000000        0x0 build/default/debug/NxpNfcRdLib/comps/phNfcLib/src/phNfcLib_15693.o
 .data          0x00000000        0x0 build/default/debug/NxpNfcRdLib/comps/phNfcLib/src/phNfcLib_15693.o
 .bss           0x00000000        0x0 build/default/debug/NxpNfcRdLib/comps/phNfcLib/src/phNfcLib_15693.o
 .reginfo       0x00000000       0x18 build/default/debug/NxpNfcRdLib/comps/phNfcLib/src/phNfcLib_15693.o
 .text          0x00000000        0x0 build/default/debug/NxpNfcRdLib/comps/phNfcLib/src/phNfcLib_18000p3m3.o
 .data          0x00000000        0x0 build/default/debug/NxpNfcRdLib/comps/phNfcLib/src/phNfcLib_18000p3m3.o
 .bss           0x00000000        0x0 build/default/debug/NxpNfcRdLib/comps/phNfcLib/src/phNfcLib_18000p3m3.o
 .reginfo       0x00000000       0x18 build/default/debug/NxpNfcRdLib/comps/phNfcLib/src/phNfcLib_18000p3m3.o
 .text          0x00000000        0x0 build/default/debug/NxpNfcRdLib/comps/phNfcLib/src/phNfcLib_MFC.o
 .data          0x00000000        0x0 build/default/debug/NxpNfcRdLib/comps/phNfcLib/src/phNfcLib_MFC.o
 .bss           0x00000000        0x0 build/default/debug/NxpNfcRdLib/comps/phNfcLib/src/phNfcLib_MFC.o
 .reginfo       0x00000000       0x18 build/default/debug/NxpNfcRdLib/comps/phNfcLib/src/phNfcLib_MFC.o
 .text          0x00000000        0x0 build/default/debug/NxpNfcRdLib/comps/phNfcLib/src/phNfcLib_MFDF.o
 .data          0x00000000        0x0 build/default/debug/NxpNfcRdLib/comps/phNfcLib/src/phNfcLib_MFDF.o
 .bss           0x00000000        0x0 build/default/debug/NxpNfcRdLib/comps/phNfcLib/src/phNfcLib_MFDF.o
 .reginfo       0x00000000       0x18 build/default/debug/NxpNfcRdLib/comps/phNfcLib/src/phNfcLib_MFDF.o
 .text          0x00000000        0x0 build/default/debug/NxpNfcRdLib/comps/phNfcLib/src/phNfcLib_MFUL.o
 .data          0x00000000        0x0 build/default/debug/NxpNfcRdLib/comps/phNfcLib/src/phNfcLib_MFUL.o
 .bss           0x00000000        0x0 build/default/debug/NxpNfcRdLib/comps/phNfcLib/src/phNfcLib_MFUL.o
 .reginfo       0x00000000       0x18 build/default/debug/NxpNfcRdLib/comps/phNfcLib/src/phNfcLib_MFUL.o
 .text          0x00000000        0x0 build/default/debug/NxpNfcRdLib/comps/phNfcLib/src/phNfcLib_Utility.o
 .data          0x00000000        0x0 build/default/debug/NxpNfcRdLib/comps/phNfcLib/src/phNfcLib_Utility.o
 .bss           0x00000000        0x0 build/default/debug/NxpNfcRdLib/comps/phNfcLib/src/phNfcLib_Utility.o
 .reginfo       0x00000000       0x18 build/default/debug/NxpNfcRdLib/comps/phNfcLib/src/phNfcLib_Utility.o
 .text          0x00000000        0x0 build/default/debug/NxpNfcRdLib/comps/phnpSnep/src/Sw/phnpSnep_Sw.o
 .data          0x00000000        0x0 build/default/debug/NxpNfcRdLib/comps/phnpSnep/src/Sw/phnpSnep_Sw.o
 .bss           0x00000000        0x0 build/default/debug/NxpNfcRdLib/comps/phnpSnep/src/Sw/phnpSnep_Sw.o
 .reginfo       0x00000000       0x18 build/default/debug/NxpNfcRdLib/comps/phnpSnep/src/Sw/phnpSnep_Sw.o
 .text          0x00000000        0x0 build/default/debug/NxpNfcRdLib/comps/phnpSnep/src/phnpSnep.o
 .data          0x00000000        0x0 build/default/debug/NxpNfcRdLib/comps/phnpSnep/src/phnpSnep.o
 .bss           0x00000000        0x0 build/default/debug/NxpNfcRdLib/comps/phnpSnep/src/phnpSnep.o
 .reginfo       0x00000000       0x18 build/default/debug/NxpNfcRdLib/comps/phnpSnep/src/phnpSnep.o
 .text          0x00000000        0x0 build/default/debug/NxpNfcRdLib/comps/phOsal/src/Freertos/phOsal_Freertos.o
 .data          0x00000000        0x0 build/default/debug/NxpNfcRdLib/comps/phOsal/src/Freertos/phOsal_Freertos.o
 .bss           0x00000000        0x0 build/default/debug/NxpNfcRdLib/comps/phOsal/src/Freertos/phOsal_Freertos.o
 .reginfo       0x00000000       0x18 build/default/debug/NxpNfcRdLib/comps/phOsal/src/Freertos/phOsal_Freertos.o
 .text          0x00000000        0x0 build/default/debug/NxpNfcRdLib/comps/phOsal/src/Linux/phOsal_Linux.o
 .data          0x00000000        0x0 build/default/debug/NxpNfcRdLib/comps/phOsal/src/Linux/phOsal_Linux.o
 .bss           0x00000000        0x0 build/default/debug/NxpNfcRdLib/comps/phOsal/src/Linux/phOsal_Linux.o
 .reginfo       0x00000000       0x18 build/default/debug/NxpNfcRdLib/comps/phOsal/src/Linux/phOsal_Linux.o
 .text          0x00000000        0x0 build/default/debug/NxpNfcRdLib/comps/phOsal/src/NullOs/phOsal_NullOs.o
 .data          0x00000000        0x0 build/default/debug/NxpNfcRdLib/comps/phOsal/src/NullOs/phOsal_NullOs.o
 .bss           0x00000000        0x0 build/default/debug/NxpNfcRdLib/comps/phOsal/src/NullOs/phOsal_NullOs.o
 .reginfo       0x00000000       0x18 build/default/debug/NxpNfcRdLib/comps/phOsal/src/NullOs/phOsal_NullOs.o
 .text.phOsal_EventGet
                0x00000000       0x58 build/default/debug/NxpNfcRdLib/comps/phOsal/src/NullOs/phOsal_NullOs.o
 .text.phOsal_EventDelete
                0x00000000       0x90 build/default/debug/NxpNfcRdLib/comps/phOsal/src/NullOs/phOsal_NullOs.o
 .text.phOsal_TimerCreate
                0x00000000       0xdc build/default/debug/NxpNfcRdLib/comps/phOsal/src/NullOs/phOsal_NullOs.o
 .text.phOsal_TimerStart
                0x00000000       0x50 build/default/debug/NxpNfcRdLib/comps/phOsal/src/NullOs/phOsal_NullOs.o
 .text.phOsal_TimerStop
                0x00000000       0x40 build/default/debug/NxpNfcRdLib/comps/phOsal/src/NullOs/phOsal_NullOs.o
 .text.phOsal_TimerGetCurrent
                0x00000000       0x48 build/default/debug/NxpNfcRdLib/comps/phOsal/src/NullOs/phOsal_NullOs.o
 .text.phOsal_TimerModify
                0x00000000       0x58 build/default/debug/NxpNfcRdLib/comps/phOsal/src/NullOs/phOsal_NullOs.o
 .text.phOsal_TimerDelete
                0x00000000       0x40 build/default/debug/NxpNfcRdLib/comps/phOsal/src/NullOs/phOsal_NullOs.o
 .text.phOsal_ThreadDelete
                0x00000000       0x34 build/default/debug/NxpNfcRdLib/comps/phOsal/src/NullOs/phOsal_NullOs.o
 .text.phOsal_ThreadCreate
                0x00000000       0x40 build/default/debug/NxpNfcRdLib/comps/phOsal/src/NullOs/phOsal_NullOs.o
 .text.phOsal_ThreadChangePrio
                0x00000000       0x38 build/default/debug/NxpNfcRdLib/comps/phOsal/src/NullOs/phOsal_NullOs.o
 .text.phOsal_ThreadExit
                0x00000000       0x30 build/default/debug/NxpNfcRdLib/comps/phOsal/src/NullOs/phOsal_NullOs.o
 .text.phOsal_ThreadDelay
                0x00000000       0x34 build/default/debug/NxpNfcRdLib/comps/phOsal/src/NullOs/phOsal_NullOs.o
 .text.phOsal_SemCreate
                0x00000000       0x3c build/default/debug/NxpNfcRdLib/comps/phOsal/src/NullOs/phOsal_NullOs.o
 .text.phOsal_SemPend
                0x00000000       0x3c build/default/debug/NxpNfcRdLib/comps/phOsal/src/NullOs/phOsal_NullOs.o
 .text.phOsal_SemPost
                0x00000000       0x38 build/default/debug/NxpNfcRdLib/comps/phOsal/src/NullOs/phOsal_NullOs.o
 .text.phOsal_SemDelete
                0x00000000       0x34 build/default/debug/NxpNfcRdLib/comps/phOsal/src/NullOs/phOsal_NullOs.o
 .text.phOsal_MutexCreate
                0x00000000       0x38 build/default/debug/NxpNfcRdLib/comps/phOsal/src/NullOs/phOsal_NullOs.o
 .text.phOsal_MutexLock
                0x00000000       0x3c build/default/debug/NxpNfcRdLib/comps/phOsal/src/NullOs/phOsal_NullOs.o
 .text.phOsal_MutexUnLock
                0x00000000       0x34 build/default/debug/NxpNfcRdLib/comps/phOsal/src/NullOs/phOsal_NullOs.o
 .text.phOsal_MutexDelete
                0x00000000       0x34 build/default/debug/NxpNfcRdLib/comps/phOsal/src/NullOs/phOsal_NullOs.o
 .text.phOsal_StartScheduler
                0x00000000       0x24 build/default/debug/NxpNfcRdLib/comps/phOsal/src/NullOs/phOsal_NullOs.o
 .text.phOsal_NullOs_ReturnUnsupportedCmd
                0x00000000       0x24 build/default/debug/NxpNfcRdLib/comps/phOsal/src/NullOs/phOsal_NullOs.o
 .text          0x00000000        0x0 build/default/debug/NxpNfcRdLib/comps/phpalEpcUid/src/Sw/phpalEpcUid_Sw.o
 .data          0x00000000        0x0 build/default/debug/NxpNfcRdLib/comps/phpalEpcUid/src/Sw/phpalEpcUid_Sw.o
 .bss           0x00000000        0x0 build/default/debug/NxpNfcRdLib/comps/phpalEpcUid/src/Sw/phpalEpcUid_Sw.o
 .reginfo       0x00000000       0x18 build/default/debug/NxpNfcRdLib/comps/phpalEpcUid/src/Sw/phpalEpcUid_Sw.o
 .text          0x00000000        0x0 build/default/debug/NxpNfcRdLib/comps/phpalEpcUid/src/phpalEpcUid.o
 .data          0x00000000        0x0 build/default/debug/NxpNfcRdLib/comps/phpalEpcUid/src/phpalEpcUid.o
 .bss           0x00000000        0x0 build/default/debug/NxpNfcRdLib/comps/phpalEpcUid/src/phpalEpcUid.o
 .reginfo       0x00000000       0x18 build/default/debug/NxpNfcRdLib/comps/phpalEpcUid/src/phpalEpcUid.o
 .text          0x00000000        0x0 build/default/debug/NxpNfcRdLib/comps/phpalFelica/src/Sw/phpalFelica_Sw.o
 .data          0x00000000        0x0 build/default/debug/NxpNfcRdLib/comps/phpalFelica/src/Sw/phpalFelica_Sw.o
 .bss           0x00000000        0x0 build/default/debug/NxpNfcRdLib/comps/phpalFelica/src/Sw/phpalFelica_Sw.o
 .reginfo       0x00000000       0x18 build/default/debug/NxpNfcRdLib/comps/phpalFelica/src/Sw/phpalFelica_Sw.o
 .text          0x00000000        0x0 build/default/debug/NxpNfcRdLib/comps/phpalFelica/src/phpalFelica.o
 .data          0x00000000        0x0 build/default/debug/NxpNfcRdLib/comps/phpalFelica/src/phpalFelica.o
 .bss           0x00000000        0x0 build/default/debug/NxpNfcRdLib/comps/phpalFelica/src/phpalFelica.o
 .reginfo       0x00000000       0x18 build/default/debug/NxpNfcRdLib/comps/phpalFelica/src/phpalFelica.o
 .text          0x00000000        0x0 build/default/debug/NxpNfcRdLib/comps/phpalI14443p3a/src/Sw/phpalI14443p3a_Sw.o
 .data          0x00000000        0x0 build/default/debug/NxpNfcRdLib/comps/phpalI14443p3a/src/Sw/phpalI14443p3a_Sw.o
 .bss           0x00000000        0x0 build/default/debug/NxpNfcRdLib/comps/phpalI14443p3a/src/Sw/phpalI14443p3a_Sw.o
 .reginfo       0x00000000       0x18 build/default/debug/NxpNfcRdLib/comps/phpalI14443p3a/src/Sw/phpalI14443p3a_Sw.o
 .text.phpalI14443p3a_Sw_GetConfig
                0x00000000       0xe8 build/default/debug/NxpNfcRdLib/comps/phpalI14443p3a/src/Sw/phpalI14443p3a_Sw.o
 .text.phpalI14443p3a_Sw_Exchange
                0x00000000       0x74 build/default/debug/NxpNfcRdLib/comps/phpalI14443p3a/src/Sw/phpalI14443p3a_Sw.o
 .text          0x00000000        0x0 build/default/debug/NxpNfcRdLib/comps/phpalI14443p3a/src/phpalI14443p3a.o
 .data          0x00000000        0x0 build/default/debug/NxpNfcRdLib/comps/phpalI14443p3a/src/phpalI14443p3a.o
 .bss           0x00000000        0x0 build/default/debug/NxpNfcRdLib/comps/phpalI14443p3a/src/phpalI14443p3a.o
 .reginfo       0x00000000       0x18 build/default/debug/NxpNfcRdLib/comps/phpalI14443p3a/src/phpalI14443p3a.o
 .text          0x00000000        0x0 build/default/debug/NxpNfcRdLib/comps/phpalI14443p3b/src/Sw/phpalI14443p3b_Sw.o
 .data          0x00000000        0x0 build/default/debug/NxpNfcRdLib/comps/phpalI14443p3b/src/Sw/phpalI14443p3b_Sw.o
 .bss           0x00000000        0x0 build/default/debug/NxpNfcRdLib/comps/phpalI14443p3b/src/Sw/phpalI14443p3b_Sw.o
 .reginfo       0x00000000       0x18 build/default/debug/NxpNfcRdLib/comps/phpalI14443p3b/src/Sw/phpalI14443p3b_Sw.o
 .text          0x00000000        0x0 build/default/debug/NxpNfcRdLib/comps/phpalI14443p3b/src/phpalI14443p3b.o
 .data          0x00000000        0x0 build/default/debug/NxpNfcRdLib/comps/phpalI14443p3b/src/phpalI14443p3b.o
 .bss           0x00000000        0x0 build/default/debug/NxpNfcRdLib/comps/phpalI14443p3b/src/phpalI14443p3b.o
 .reginfo       0x00000000       0x18 build/default/debug/NxpNfcRdLib/comps/phpalI14443p3b/src/phpalI14443p3b.o
 .text          0x00000000        0x0 build/default/debug/NxpNfcRdLib/comps/phpalI14443p4/src/Sw/phpalI14443p4_Sw.o
 .data          0x00000000        0x0 build/default/debug/NxpNfcRdLib/comps/phpalI14443p4/src/Sw/phpalI14443p4_Sw.o
 .bss           0x00000000        0x0 build/default/debug/NxpNfcRdLib/comps/phpalI14443p4/src/Sw/phpalI14443p4_Sw.o
 .reginfo       0x00000000       0x18 build/default/debug/NxpNfcRdLib/comps/phpalI14443p4/src/Sw/phpalI14443p4_Sw.o
 .text.phpalI14443p4_Sw_PresCheck
                0x00000000      0x158 build/default/debug/NxpNfcRdLib/comps/phpalI14443p4/src/Sw/phpalI14443p4_Sw.o
 .text.phpalI14443p4_Sw_GetConfig
                0x00000000      0x1c8 build/default/debug/NxpNfcRdLib/comps/phpalI14443p4/src/Sw/phpalI14443p4_Sw.o
 .text          0x00000000        0x0 build/default/debug/NxpNfcRdLib/comps/phpalI14443p4/src/phpalI14443p4.o
 .data          0x00000000        0x0 build/default/debug/NxpNfcRdLib/comps/phpalI14443p4/src/phpalI14443p4.o
 .bss           0x00000000        0x0 build/default/debug/NxpNfcRdLib/comps/phpalI14443p4/src/phpalI14443p4.o
 .reginfo       0x00000000       0x18 build/default/debug/NxpNfcRdLib/comps/phpalI14443p4/src/phpalI14443p4.o
 .text          0x00000000        0x0 build/default/debug/NxpNfcRdLib/comps/phpalI14443p4a/src/Sw/phpalI14443p4a_Sw.o
 .data          0x00000000        0x0 build/default/debug/NxpNfcRdLib/comps/phpalI14443p4a/src/Sw/phpalI14443p4a_Sw.o
 .bss           0x00000000        0x0 build/default/debug/NxpNfcRdLib/comps/phpalI14443p4a/src/Sw/phpalI14443p4a_Sw.o
 .reginfo       0x00000000       0x18 build/default/debug/NxpNfcRdLib/comps/phpalI14443p4a/src/Sw/phpalI14443p4a_Sw.o
 .text          0x00000000        0x0 build/default/debug/NxpNfcRdLib/comps/phpalI14443p4a/src/phpalI14443p4a.o
 .data          0x00000000        0x0 build/default/debug/NxpNfcRdLib/comps/phpalI14443p4a/src/phpalI14443p4a.o
 .bss           0x00000000        0x0 build/default/debug/NxpNfcRdLib/comps/phpalI14443p4a/src/phpalI14443p4a.o
 .reginfo       0x00000000       0x18 build/default/debug/NxpNfcRdLib/comps/phpalI14443p4a/src/phpalI14443p4a.o
 .text          0x00000000        0x0 build/default/debug/NxpNfcRdLib/comps/phpalI14443p4mC/src/Sw/phpalI14443p4mC_Sw.o
 .data          0x00000000        0x0 build/default/debug/NxpNfcRdLib/comps/phpalI14443p4mC/src/Sw/phpalI14443p4mC_Sw.o
 .bss           0x00000000        0x0 build/default/debug/NxpNfcRdLib/comps/phpalI14443p4mC/src/Sw/phpalI14443p4mC_Sw.o
 .reginfo       0x00000000       0x18 build/default/debug/NxpNfcRdLib/comps/phpalI14443p4mC/src/Sw/phpalI14443p4mC_Sw.o
 .text          0x00000000        0x0 build/default/debug/NxpNfcRdLib/comps/phpalI14443p4mC/src/Sw/phpalI14443p4mC_Sw_Int.o
 .data          0x00000000        0x0 build/default/debug/NxpNfcRdLib/comps/phpalI14443p4mC/src/Sw/phpalI14443p4mC_Sw_Int.o
 .bss           0x00000000        0x0 build/default/debug/NxpNfcRdLib/comps/phpalI14443p4mC/src/Sw/phpalI14443p4mC_Sw_Int.o
 .reginfo       0x00000000       0x18 build/default/debug/NxpNfcRdLib/comps/phpalI14443p4mC/src/Sw/phpalI14443p4mC_Sw_Int.o
 .text          0x00000000        0x0 build/default/debug/NxpNfcRdLib/comps/phpalI14443p4mC/src/phpalI14443p4mC.o
 .data          0x00000000        0x0 build/default/debug/NxpNfcRdLib/comps/phpalI14443p4mC/src/phpalI14443p4mC.o
 .bss           0x00000000        0x0 build/default/debug/NxpNfcRdLib/comps/phpalI14443p4mC/src/phpalI14443p4mC.o
 .reginfo       0x00000000       0x18 build/default/debug/NxpNfcRdLib/comps/phpalI14443p4mC/src/phpalI14443p4mC.o
 .text          0x00000000        0x0 build/default/debug/NxpNfcRdLib/comps/phpalI18000p3m3/src/Sw/phpalI18000p3m3_Sw.o
 .data          0x00000000        0x0 build/default/debug/NxpNfcRdLib/comps/phpalI18000p3m3/src/Sw/phpalI18000p3m3_Sw.o
 .bss           0x00000000        0x0 build/default/debug/NxpNfcRdLib/comps/phpalI18000p3m3/src/Sw/phpalI18000p3m3_Sw.o
 .reginfo       0x00000000       0x18 build/default/debug/NxpNfcRdLib/comps/phpalI18000p3m3/src/Sw/phpalI18000p3m3_Sw.o
 .text          0x00000000        0x0 build/default/debug/NxpNfcRdLib/comps/phpalI18000p3m3/src/phpalI18000p3m3.o
 .data          0x00000000        0x0 build/default/debug/NxpNfcRdLib/comps/phpalI18000p3m3/src/phpalI18000p3m3.o
 .bss           0x00000000        0x0 build/default/debug/NxpNfcRdLib/comps/phpalI18000p3m3/src/phpalI18000p3m3.o
 .reginfo       0x00000000       0x18 build/default/debug/NxpNfcRdLib/comps/phpalI18000p3m3/src/phpalI18000p3m3.o
 .text          0x00000000        0x0 build/default/debug/NxpNfcRdLib/comps/phpalI18092mPI/src/Sw/phpalI18092mPI_Sw.o
 .data          0x00000000        0x0 build/default/debug/NxpNfcRdLib/comps/phpalI18092mPI/src/Sw/phpalI18092mPI_Sw.o
 .bss           0x00000000        0x0 build/default/debug/NxpNfcRdLib/comps/phpalI18092mPI/src/Sw/phpalI18092mPI_Sw.o
 .reginfo       0x00000000       0x18 build/default/debug/NxpNfcRdLib/comps/phpalI18092mPI/src/Sw/phpalI18092mPI_Sw.o
 .text          0x00000000        0x0 build/default/debug/NxpNfcRdLib/comps/phpalI18092mPI/src/Sw/phpalI18092mPI_Sw_Int.o
 .data          0x00000000        0x0 build/default/debug/NxpNfcRdLib/comps/phpalI18092mPI/src/Sw/phpalI18092mPI_Sw_Int.o
 .bss           0x00000000        0x0 build/default/debug/NxpNfcRdLib/comps/phpalI18092mPI/src/Sw/phpalI18092mPI_Sw_Int.o
 .reginfo       0x00000000       0x18 build/default/debug/NxpNfcRdLib/comps/phpalI18092mPI/src/Sw/phpalI18092mPI_Sw_Int.o
 .text          0x00000000        0x0 build/default/debug/NxpNfcRdLib/comps/phpalI18092mPI/src/phpalI18092mPI.o
 .data          0x00000000        0x0 build/default/debug/NxpNfcRdLib/comps/phpalI18092mPI/src/phpalI18092mPI.o
 .bss           0x00000000        0x0 build/default/debug/NxpNfcRdLib/comps/phpalI18092mPI/src/phpalI18092mPI.o
 .reginfo       0x00000000       0x18 build/default/debug/NxpNfcRdLib/comps/phpalI18092mPI/src/phpalI18092mPI.o
 .text          0x00000000        0x0 build/default/debug/NxpNfcRdLib/comps/phpalI18092mT/src/Sw/phpalI18092mT_Sw.o
 .data          0x00000000        0x0 build/default/debug/NxpNfcRdLib/comps/phpalI18092mT/src/Sw/phpalI18092mT_Sw.o
 .bss           0x00000000        0x0 build/default/debug/NxpNfcRdLib/comps/phpalI18092mT/src/Sw/phpalI18092mT_Sw.o
 .reginfo       0x00000000       0x18 build/default/debug/NxpNfcRdLib/comps/phpalI18092mT/src/Sw/phpalI18092mT_Sw.o
 .text          0x00000000        0x0 build/default/debug/NxpNfcRdLib/comps/phpalI18092mT/src/Sw/phpalI18092mT_Sw_Int.o
 .data          0x00000000        0x0 build/default/debug/NxpNfcRdLib/comps/phpalI18092mT/src/Sw/phpalI18092mT_Sw_Int.o
 .bss           0x00000000        0x0 build/default/debug/NxpNfcRdLib/comps/phpalI18092mT/src/Sw/phpalI18092mT_Sw_Int.o
 .reginfo       0x00000000       0x18 build/default/debug/NxpNfcRdLib/comps/phpalI18092mT/src/Sw/phpalI18092mT_Sw_Int.o
 .text          0x00000000        0x0 build/default/debug/NxpNfcRdLib/comps/phpalI18092mT/src/phpalI18092mT.o
 .data          0x00000000        0x0 build/default/debug/NxpNfcRdLib/comps/phpalI18092mT/src/phpalI18092mT.o
 .bss           0x00000000        0x0 build/default/debug/NxpNfcRdLib/comps/phpalI18092mT/src/phpalI18092mT.o
 .reginfo       0x00000000       0x18 build/default/debug/NxpNfcRdLib/comps/phpalI18092mT/src/phpalI18092mT.o
 .text          0x00000000        0x0 build/default/debug/NxpNfcRdLib/comps/phpalMifare/src/Sw/phpalMifare_Sw.o
 .data          0x00000000        0x0 build/default/debug/NxpNfcRdLib/comps/phpalMifare/src/Sw/phpalMifare_Sw.o
 .bss           0x00000000        0x0 build/default/debug/NxpNfcRdLib/comps/phpalMifare/src/Sw/phpalMifare_Sw.o
 .reginfo       0x00000000       0x18 build/default/debug/NxpNfcRdLib/comps/phpalMifare/src/Sw/phpalMifare_Sw.o
 .text.phpalMifare_Sw_ExchangePc
                0x00000000      0x524 build/default/debug/NxpNfcRdLib/comps/phpalMifare/src/Sw/phpalMifare_Sw.o
 .text.phpalMifare_Sw_ExchangeRaw
                0x00000000      0x2d8 build/default/debug/NxpNfcRdLib/comps/phpalMifare/src/Sw/phpalMifare_Sw.o
 .text.phpalMifare_Sw_MfcAuthenticateKeyNo
                0x00000000       0xe4 build/default/debug/NxpNfcRdLib/comps/phpalMifare/src/Sw/phpalMifare_Sw.o
 .text.phpalMifare_Sw_SetMinFdtPc
                0x00000000       0x74 build/default/debug/NxpNfcRdLib/comps/phpalMifare/src/Sw/phpalMifare_Sw.o
 .text          0x00000000        0x0 build/default/debug/NxpNfcRdLib/comps/phpalMifare/src/phpalMifare.o
 .data          0x00000000        0x0 build/default/debug/NxpNfcRdLib/comps/phpalMifare/src/phpalMifare.o
 .bss           0x00000000        0x0 build/default/debug/NxpNfcRdLib/comps/phpalMifare/src/phpalMifare.o
 .reginfo       0x00000000       0x18 build/default/debug/NxpNfcRdLib/comps/phpalMifare/src/phpalMifare.o
 .text          0x00000000        0x0 build/default/debug/NxpNfcRdLib/comps/phpalSli15693/src/Sw/phpalSli15693_Sw.o
 .data          0x00000000        0x0 build/default/debug/NxpNfcRdLib/comps/phpalSli15693/src/Sw/phpalSli15693_Sw.o
 .bss           0x00000000        0x0 build/default/debug/NxpNfcRdLib/comps/phpalSli15693/src/Sw/phpalSli15693_Sw.o
 .reginfo       0x00000000       0x18 build/default/debug/NxpNfcRdLib/comps/phpalSli15693/src/Sw/phpalSli15693_Sw.o
 .text          0x00000000        0x0 build/default/debug/NxpNfcRdLib/comps/phpalSli15693/src/phpalSli15693.o
 .data          0x00000000        0x0 build/default/debug/NxpNfcRdLib/comps/phpalSli15693/src/phpalSli15693.o
 .bss           0x00000000        0x0 build/default/debug/NxpNfcRdLib/comps/phpalSli15693/src/phpalSli15693.o
 .reginfo       0x00000000       0x18 build/default/debug/NxpNfcRdLib/comps/phpalSli15693/src/phpalSli15693.o
 .text          0x00000000        0x0 build/default/debug/NxpNfcRdLib/comps/phPlatform/src/Port/K81/phPlatform_Port_K81.o
 .data          0x00000000        0x0 build/default/debug/NxpNfcRdLib/comps/phPlatform/src/Port/K81/phPlatform_Port_K81.o
 .bss           0x00000000        0x0 build/default/debug/NxpNfcRdLib/comps/phPlatform/src/Port/K81/phPlatform_Port_K81.o
 .reginfo       0x00000000       0x18 build/default/debug/NxpNfcRdLib/comps/phPlatform/src/Port/K81/phPlatform_Port_K81.o
 .text          0x00000000        0x0 build/default/debug/NxpNfcRdLib/comps/phPlatform/src/Port/K81/phPlatform_Port_KinetisTimer.o
 .data          0x00000000        0x0 build/default/debug/NxpNfcRdLib/comps/phPlatform/src/Port/K81/phPlatform_Port_KinetisTimer.o
 .bss           0x00000000        0x0 build/default/debug/NxpNfcRdLib/comps/phPlatform/src/Port/K81/phPlatform_Port_KinetisTimer.o
 .reginfo       0x00000000       0x18 build/default/debug/NxpNfcRdLib/comps/phPlatform/src/Port/K81/phPlatform_Port_KinetisTimer.o
 .text          0x00000000        0x0 build/default/debug/NxpNfcRdLib/comps/phPlatform/src/Port/K82/phPlatform_Port_K82.o
 .data          0x00000000        0x0 build/default/debug/NxpNfcRdLib/comps/phPlatform/src/Port/K82/phPlatform_Port_K82.o
 .bss           0x00000000        0x0 build/default/debug/NxpNfcRdLib/comps/phPlatform/src/Port/K82/phPlatform_Port_K82.o
 .reginfo       0x00000000       0x18 build/default/debug/NxpNfcRdLib/comps/phPlatform/src/Port/K82/phPlatform_Port_K82.o
 .text          0x00000000        0x0 build/default/debug/NxpNfcRdLib/comps/phPlatform/src/Port/K82/phPlatform_Port_K82Timer.o
 .data          0x00000000        0x0 build/default/debug/NxpNfcRdLib/comps/phPlatform/src/Port/K82/phPlatform_Port_K82Timer.o
 .bss           0x00000000        0x0 build/default/debug/NxpNfcRdLib/comps/phPlatform/src/Port/K82/phPlatform_Port_K82Timer.o
 .reginfo       0x00000000       0x18 build/default/debug/NxpNfcRdLib/comps/phPlatform/src/Port/K82/phPlatform_Port_K82Timer.o
 .text          0x00000000        0x0 build/default/debug/NxpNfcRdLib/comps/phPlatform/src/Port/LPC11u68/cr_startup_lpc11u6x.o
 .data          0x00000000        0x0 build/default/debug/NxpNfcRdLib/comps/phPlatform/src/Port/LPC11u68/cr_startup_lpc11u6x.o
 .bss           0x00000000        0x0 build/default/debug/NxpNfcRdLib/comps/phPlatform/src/Port/LPC11u68/cr_startup_lpc11u6x.o
 .reginfo       0x00000000       0x18 build/default/debug/NxpNfcRdLib/comps/phPlatform/src/Port/LPC11u68/cr_startup_lpc11u6x.o
 .text          0x00000000        0x0 build/default/debug/NxpNfcRdLib/comps/phPlatform/src/Port/LPC11u68/phPlatform_Port_LPC11u68.o
 .data          0x00000000        0x0 build/default/debug/NxpNfcRdLib/comps/phPlatform/src/Port/LPC11u68/phPlatform_Port_LPC11u68.o
 .bss           0x00000000        0x0 build/default/debug/NxpNfcRdLib/comps/phPlatform/src/Port/LPC11u68/phPlatform_Port_LPC11u68.o
 .reginfo       0x00000000       0x18 build/default/debug/NxpNfcRdLib/comps/phPlatform/src/Port/LPC11u68/phPlatform_Port_LPC11u68.o
 .text          0x00000000        0x0 build/default/debug/NxpNfcRdLib/comps/phPlatform/src/Port/LPC1769/cr_startup_lpc175x_6x.o
 .data          0x00000000        0x0 build/default/debug/NxpNfcRdLib/comps/phPlatform/src/Port/LPC1769/cr_startup_lpc175x_6x.o
 .bss           0x00000000        0x0 build/default/debug/NxpNfcRdLib/comps/phPlatform/src/Port/LPC1769/cr_startup_lpc175x_6x.o
 .reginfo       0x00000000       0x18 build/default/debug/NxpNfcRdLib/comps/phPlatform/src/Port/LPC1769/cr_startup_lpc175x_6x.o
 .text          0x00000000        0x0 build/default/debug/NxpNfcRdLib/comps/phPlatform/src/Port/LPC1769/keil_iar_sysinit.o
 .data          0x00000000        0x0 build/default/debug/NxpNfcRdLib/comps/phPlatform/src/Port/LPC1769/keil_iar_sysinit.o
 .bss           0x00000000        0x0 build/default/debug/NxpNfcRdLib/comps/phPlatform/src/Port/LPC1769/keil_iar_sysinit.o
 .reginfo       0x00000000       0x18 build/default/debug/NxpNfcRdLib/comps/phPlatform/src/Port/LPC1769/keil_iar_sysinit.o
 .text          0x00000000        0x0 build/default/debug/NxpNfcRdLib/comps/phPlatform/src/Port/LPC1769/phPlatform_Port_LPC1769.o
 .data          0x00000000        0x0 build/default/debug/NxpNfcRdLib/comps/phPlatform/src/Port/LPC1769/phPlatform_Port_LPC1769.o
 .bss           0x00000000        0x0 build/default/debug/NxpNfcRdLib/comps/phPlatform/src/Port/LPC1769/phPlatform_Port_LPC1769.o
 .reginfo       0x00000000       0x18 build/default/debug/NxpNfcRdLib/comps/phPlatform/src/Port/LPC1769/phPlatform_Port_LPC1769.o
 .text          0x00000000        0x0 build/default/debug/NxpNfcRdLib/comps/phPlatform/src/Port/LPCTimer/phPlatform_Port_LPCTimer.o
 .data          0x00000000        0x0 build/default/debug/NxpNfcRdLib/comps/phPlatform/src/Port/LPCTimer/phPlatform_Port_LPCTimer.o
 .bss           0x00000000        0x0 build/default/debug/NxpNfcRdLib/comps/phPlatform/src/Port/LPCTimer/phPlatform_Port_LPCTimer.o
 .reginfo       0x00000000       0x18 build/default/debug/NxpNfcRdLib/comps/phPlatform/src/Port/LPCTimer/phPlatform_Port_LPCTimer.o
 .text          0x00000000        0x0 build/default/debug/NxpNfcRdLib/comps/phPlatform/src/Port/PIC32MX/phPlatform_Port_PIC32MX.o
 .data          0x00000000        0x0 build/default/debug/NxpNfcRdLib/comps/phPlatform/src/Port/PIC32MX/phPlatform_Port_PIC32MX.o
 .bss           0x00000000        0x0 build/default/debug/NxpNfcRdLib/comps/phPlatform/src/Port/PIC32MX/phPlatform_Port_PIC32MX.o
 .reginfo       0x00000000       0x18 build/default/debug/NxpNfcRdLib/comps/phPlatform/src/Port/PIC32MX/phPlatform_Port_PIC32MX.o
 .text.phPlatform_Controller_Init
                0x00000000       0x24 build/default/debug/NxpNfcRdLib/comps/phPlatform/src/Port/PIC32MX/phPlatform_Port_PIC32MX.o
 .text          0x00000000        0x0 build/default/debug/NxpNfcRdLib/comps/phPlatform/src/Port/PIC32MX/phPlatform_Port_PIC32MXTimer.o
 .data          0x00000000        0x0 build/default/debug/NxpNfcRdLib/comps/phPlatform/src/Port/PIC32MX/phPlatform_Port_PIC32MXTimer.o
 .bss           0x00000000        0x0 build/default/debug/NxpNfcRdLib/comps/phPlatform/src/Port/PIC32MX/phPlatform_Port_PIC32MXTimer.o
 .reginfo       0x00000000       0x18 build/default/debug/NxpNfcRdLib/comps/phPlatform/src/Port/PIC32MX/phPlatform_Port_PIC32MXTimer.o
 .text.phPlatform_Port_Host_HwTimer_Create
                0x00000000       0x34 build/default/debug/NxpNfcRdLib/comps/phPlatform/src/Port/PIC32MX/phPlatform_Port_PIC32MXTimer.o
 .text.phPlatform_Port_Host_HwTimer_Configure
                0x00000000       0x30 build/default/debug/NxpNfcRdLib/comps/phPlatform/src/Port/PIC32MX/phPlatform_Port_PIC32MXTimer.o
 .text.phPlatform_Port_Host_HwTimer_Start
                0x00000000       0x50 build/default/debug/NxpNfcRdLib/comps/phPlatform/src/Port/PIC32MX/phPlatform_Port_PIC32MXTimer.o
 .text.phPlatform_Port_Host_HwTimer_GetElapsedDelay
                0x00000000       0x50 build/default/debug/NxpNfcRdLib/comps/phPlatform/src/Port/PIC32MX/phPlatform_Port_PIC32MXTimer.o
 .text.phPlatform_Port_Host_HwTimer_Stop
                0x00000000       0x38 build/default/debug/NxpNfcRdLib/comps/phPlatform/src/Port/PIC32MX/phPlatform_Port_PIC32MXTimer.o
 .text.phPlatform_Port_Host_HwTimer_Reset
                0x00000000       0x50 build/default/debug/NxpNfcRdLib/comps/phPlatform/src/Port/PIC32MX/phPlatform_Port_PIC32MXTimer.o
 .text.phPlatform_Port_Host_HwTimer_Delete
                0x00000000       0x28 build/default/debug/NxpNfcRdLib/comps/phPlatform/src/Port/PIC32MX/phPlatform_Port_PIC32MXTimer.o
 .text.phPlatform_Port_Host_HwTimer_DeInit
                0x00000000       0x20 build/default/debug/NxpNfcRdLib/comps/phPlatform/src/Port/PIC32MX/phPlatform_Port_PIC32MXTimer.o
 .text.phPlatform_ConfigTick
                0x00000000       0x20 build/default/debug/NxpNfcRdLib/comps/phPlatform/src/Port/PIC32MX/phPlatform_Port_PIC32MXTimer.o
 .text.TIMER0_IRQHandler
                0x00000000       0x20 build/default/debug/NxpNfcRdLib/comps/phPlatform/src/Port/PIC32MX/phPlatform_Port_PIC32MXTimer.o
 .text.TIMER1_IRQHandler
                0x00000000       0x20 build/default/debug/NxpNfcRdLib/comps/phPlatform/src/Port/PIC32MX/phPlatform_Port_PIC32MXTimer.o
 .text.TIMER2_IRQHandler
                0x00000000       0x20 build/default/debug/NxpNfcRdLib/comps/phPlatform/src/Port/PIC32MX/phPlatform_Port_PIC32MXTimer.o
 .text.TIMER3_IRQHandler
                0x00000000       0x20 build/default/debug/NxpNfcRdLib/comps/phPlatform/src/Port/PIC32MX/phPlatform_Port_PIC32MXTimer.o
 .text          0x00000000        0x0 build/default/debug/NxpNfcRdLib/comps/phPlatform/src/Port/PN7462AU/phPlatform_Port_PN7462AU.o
 .data          0x00000000        0x0 build/default/debug/NxpNfcRdLib/comps/phPlatform/src/Port/PN7462AU/phPlatform_Port_PN7462AU.o
 .bss           0x00000000        0x0 build/default/debug/NxpNfcRdLib/comps/phPlatform/src/Port/PN7462AU/phPlatform_Port_PN7462AU.o
 .reginfo       0x00000000       0x18 build/default/debug/NxpNfcRdLib/comps/phPlatform/src/Port/PN7462AU/phPlatform_Port_PN7462AU.o
 .text          0x00000000        0x0 build/default/debug/NxpNfcRdLib/comps/phPlatform/src/Port/RaspberryPi/phPlatform_Port_Pi.o
 .data          0x00000000        0x0 build/default/debug/NxpNfcRdLib/comps/phPlatform/src/Port/RaspberryPi/phPlatform_Port_Pi.o
 .bss           0x00000000        0x0 build/default/debug/NxpNfcRdLib/comps/phPlatform/src/Port/RaspberryPi/phPlatform_Port_Pi.o
 .reginfo       0x00000000       0x18 build/default/debug/NxpNfcRdLib/comps/phPlatform/src/Port/RaspberryPi/phPlatform_Port_Pi.o
 .text          0x00000000        0x0 build/default/debug/NxpNfcRdLib/comps/phPlatform/src/Port/RaspberryPi/phPlatform_Port_PiGpio.o
 .data          0x00000000        0x0 build/default/debug/NxpNfcRdLib/comps/phPlatform/src/Port/RaspberryPi/phPlatform_Port_PiGpio.o
 .bss           0x00000000        0x0 build/default/debug/NxpNfcRdLib/comps/phPlatform/src/Port/RaspberryPi/phPlatform_Port_PiGpio.o
 .reginfo       0x00000000       0x18 build/default/debug/NxpNfcRdLib/comps/phPlatform/src/Port/RaspberryPi/phPlatform_Port_PiGpio.o
 .text          0x00000000        0x0 build/default/debug/NxpNfcRdLib/comps/phPlatform/src/phPlatform.o
 .data          0x00000000        0x0 build/default/debug/NxpNfcRdLib/comps/phPlatform/src/phPlatform.o
 .bss           0x00000000        0x0 build/default/debug/NxpNfcRdLib/comps/phPlatform/src/phPlatform.o
 .reginfo       0x00000000       0x18 build/default/debug/NxpNfcRdLib/comps/phPlatform/src/phPlatform.o
 .text.phPlatform_DeInit
                0x00000000       0x68 build/default/debug/NxpNfcRdLib/comps/phPlatform/src/phPlatform.o
 .text.phPlatform_FE_Powerdown
                0x00000000       0x70 build/default/debug/NxpNfcRdLib/comps/phPlatform/src/phPlatform.o
 .text.phPlatform_Timer_Create
                0x00000000      0x1c4 build/default/debug/NxpNfcRdLib/comps/phPlatform/src/phPlatform.o
 .text.phPlatform_Timer_Configure
                0x00000000       0x64 build/default/debug/NxpNfcRdLib/comps/phPlatform/src/phPlatform.o
 .text.phPlatform_Timer_Start
                0x00000000       0x70 build/default/debug/NxpNfcRdLib/comps/phPlatform/src/phPlatform.o
 .text.phPlatform_Timer_GetElapsedDelay
                0x00000000       0x54 build/default/debug/NxpNfcRdLib/comps/phPlatform/src/phPlatform.o
 .text.phPlatform_Timer_Stop
                0x00000000       0x60 build/default/debug/NxpNfcRdLib/comps/phPlatform/src/phPlatform.o
 .text.phPlatform_Timer_Reset
                0x00000000       0x60 build/default/debug/NxpNfcRdLib/comps/phPlatform/src/phPlatform.o
 .text.phPlatform_Timer_Delete
                0x00000000       0x64 build/default/debug/NxpNfcRdLib/comps/phPlatform/src/phPlatform.o
 .text.phPlatform_Timer_DeInit
                0x00000000       0x94 build/default/debug/NxpNfcRdLib/comps/phPlatform/src/phPlatform.o
 .text.phPlatform_Timer_IsrHandler
                0x00000000       0x80 build/default/debug/NxpNfcRdLib/comps/phPlatform/src/phPlatform.o
 .text          0x00000000        0x0 build/default/debug/NxpNfcRdLib/comps/phTools/src/phTools.o
 .data          0x00000000        0x0 build/default/debug/NxpNfcRdLib/comps/phTools/src/phTools.o
 .bss           0x00000000        0x0 build/default/debug/NxpNfcRdLib/comps/phTools/src/phTools.o
 .reginfo       0x00000000       0x18 build/default/debug/NxpNfcRdLib/comps/phTools/src/phTools.o
 .text.phTools_EncodeParity
                0x00000000      0x40c build/default/debug/NxpNfcRdLib/comps/phTools/src/phTools.o
 .text.phTools_CalculateCrc5
                0x00000000      0x330 build/default/debug/NxpNfcRdLib/comps/phTools/src/phTools.o
 .text.phTools_CalculateCrc8
                0x00000000      0x2cc build/default/debug/NxpNfcRdLib/comps/phTools/src/phTools.o
 .text.phTools_CalculateCrc32
                0x00000000      0x260 build/default/debug/NxpNfcRdLib/comps/phTools/src/phTools.o
 .rodata        0x00000000       0x28 build/default/debug/NxpNfcRdLib/comps/phTools/src/phTools.o
 .text.phTools_GetVersion
                0x00000000      0x110 build/default/debug/NxpNfcRdLib/comps/phTools/src/phTools.o
 .text          0x00000000        0x0 build/default/debug/NxpNfcRdLib/comps/phTools/src/phTools_Q.o
 .data          0x00000000        0x0 build/default/debug/NxpNfcRdLib/comps/phTools/src/phTools_Q.o
 .bss           0x00000000        0x0 build/default/debug/NxpNfcRdLib/comps/phTools/src/phTools_Q.o
 .reginfo       0x00000000       0x18 build/default/debug/NxpNfcRdLib/comps/phTools/src/phTools_Q.o
 .bss.gphTools_Q_Mutex.gphTools_Q_Mutex
                0x00000000        0xc build/default/debug/NxpNfcRdLib/comps/phTools/src/phTools_Q.o
 .bss.gphTools_Q_MsgMutex.gphTools_Q_MsgMutex
                0x00000000        0xc build/default/debug/NxpNfcRdLib/comps/phTools/src/phTools_Q.o
 .bss.gphTools_Q_MsgSema.gphTools_Q_MsgSema
                0x00000000       0x14 build/default/debug/NxpNfcRdLib/comps/phTools/src/phTools_Q.o
 .bss.gsphTools_Q_Pool.gsphTools_Q_Pool
                0x00000000      0x140 build/default/debug/NxpNfcRdLib/comps/phTools/src/phTools_Q.o
 .rodata.bToolsxSemaName.bToolsxSemaName
                0x00000000        0xc build/default/debug/NxpNfcRdLib/comps/phTools/src/phTools_Q.o
 .text.phTools_Q_Init
                0x00000000      0x1d4 build/default/debug/NxpNfcRdLib/comps/phTools/src/phTools_Q.o
 .text.phTools_Q_Receive
                0x00000000       0x94 build/default/debug/NxpNfcRdLib/comps/phTools/src/phTools_Q.o
 .text.phTools_Q_Get
                0x00000000       0x80 build/default/debug/NxpNfcRdLib/comps/phTools/src/phTools_Q.o
 .text.phTools_Q_PopInt
                0x00000000      0x150 build/default/debug/NxpNfcRdLib/comps/phTools/src/phTools_Q.o
 .text.phTools_Q_Release
                0x00000000      0x104 build/default/debug/NxpNfcRdLib/comps/phTools/src/phTools_Q.o
 .text.phTools_Q_SendInt
                0x00000000      0x184 build/default/debug/NxpNfcRdLib/comps/phTools/src/phTools_Q.o
 .text.phTools_Q_Send
                0x00000000       0x54 build/default/debug/NxpNfcRdLib/comps/phTools/src/phTools_Q.o
 .text.phTools_Q_SendFront
                0x00000000       0x54 build/default/debug/NxpNfcRdLib/comps/phTools/src/phTools_Q.o
 .text.phTools_Q_Push
                0x00000000       0xd0 build/default/debug/NxpNfcRdLib/comps/phTools/src/phTools_Q.o
 .text.phTools_Q_DeInit
                0x00000000       0xa8 build/default/debug/NxpNfcRdLib/comps/phTools/src/phTools_Q.o
 .text          0x00000000        0x0 build/default/debug/main.o
 .data          0x00000000        0x0 build/default/debug/main.o
 .bss           0x00000000        0x0 build/default/debug/main.o
 .reginfo       0x00000000       0x18 build/default/debug/main.o
 .rodata.clearCardInfo.clearCardInfo
                0x00000000       0x2c build/default/debug/main.o
 .text.MFC_test
                0x00000000       0xfc build/default/debug/main.o
 .text.MFDF_test
                0x00000000      0x234 build/default/debug/main.o
 .text.setEEPROM_Values
                0x00000000      0x764 build/default/debug/main.o
 .text          0x00000000        0x0 c:/program files (x86)/microchip/xc32/v2.05/bin/bin/../../lib/gcc/pic32mx/4.8.3/../../../../pic32mx/lib/./proc/32MX150F128D\default_isr_vectors.o
 .data          0x00000000        0x0 c:/program files (x86)/microchip/xc32/v2.05/bin/bin/../../lib/gcc/pic32mx/4.8.3/../../../../pic32mx/lib/./proc/32MX150F128D\default_isr_vectors.o
 .bss           0x00000000        0x0 c:/program files (x86)/microchip/xc32/v2.05/bin/bin/../../lib/gcc/pic32mx/4.8.3/../../../../pic32mx/lib/./proc/32MX150F128D\default_isr_vectors.o
 .reginfo       0x00000000       0x18 c:/program files (x86)/microchip/xc32/v2.05/bin/bin/../../lib/gcc/pic32mx/4.8.3/../../../../pic32mx/lib/./proc/32MX150F128D\default_isr_vectors.o
 .discard       0x00000000       0xb0 c:/program files (x86)/microchip/xc32/v2.05/bin/bin/../../lib/gcc/pic32mx/4.8.3/../../../../pic32mx/lib/./proc/32MX150F128D\default_isr_vectors.o
 .data          0x00000000        0x0 c:/program files (x86)/microchip/xc32/v2.05/bin/bin/../../lib/gcc/pic32mx/4.8.3/../../../../pic32mx/lib\pic32_software_reset.o
 .bss           0x00000000        0x0 c:/program files (x86)/microchip/xc32/v2.05/bin/bin/../../lib/gcc/pic32mx/4.8.3/../../../../pic32mx/lib\pic32_software_reset.o
 .reginfo       0x00000000       0x18 c:/program files (x86)/microchip/xc32/v2.05/bin/bin/../../lib/gcc/pic32mx/4.8.3/../../../../pic32mx/lib\pic32_software_reset.o
 .text          0x00000000        0x0 c:/program files (x86)/microchip/xc32/v2.05/bin/bin/../../lib/gcc/pic32mx/4.8.3/../../../../pic32mx/lib/./proc/32MX150F128D\processor.o
 .data          0x00000000        0x0 c:/program files (x86)/microchip/xc32/v2.05/bin/bin/../../lib/gcc/pic32mx/4.8.3/../../../../pic32mx/lib/./proc/32MX150F128D\processor.o
 .bss           0x00000000        0x0 c:/program files (x86)/microchip/xc32/v2.05/bin/bin/../../lib/gcc/pic32mx/4.8.3/../../../../pic32mx/lib/./proc/32MX150F128D\processor.o
 .reginfo       0x00000000       0x18 c:/program files (x86)/microchip/xc32/v2.05/bin/bin/../../lib/gcc/pic32mx/4.8.3/../../../../pic32mx/lib/./proc/32MX150F128D\processor.o
 .data          0x00000000        0x0 c:/program files (x86)/microchip/xc32/v2.05/bin/bin/../../lib/gcc/pic32mx/4.8.3\libgcc.a(floatunsisf.o)
 .bss           0x00000000        0x0 c:/program files (x86)/microchip/xc32/v2.05/bin/bin/../../lib/gcc/pic32mx/4.8.3\libgcc.a(floatunsisf.o)
 .reginfo       0x00000000       0x18 c:/program files (x86)/microchip/xc32/v2.05/bin/bin/../../lib/gcc/pic32mx/4.8.3\libgcc.a(floatunsisf.o)
 .data          0x00000000        0x0 c:/program files (x86)/microchip/xc32/v2.05/bin/bin/../../lib/gcc/pic32mx/4.8.3/../../../../pic32mx/lib\libpic32.a(memcmp.o)
 .bss           0x00000000        0x0 c:/program files (x86)/microchip/xc32/v2.05/bin/bin/../../lib/gcc/pic32mx/4.8.3/../../../../pic32mx/lib\libpic32.a(memcmp.o)
 .reginfo       0x00000000       0x18 c:/program files (x86)/microchip/xc32/v2.05/bin/bin/../../lib/gcc/pic32mx/4.8.3/../../../../pic32mx/lib\libpic32.a(memcmp.o)
 .data          0x00000000        0x0 c:/program files (x86)/microchip/xc32/v2.05/bin/bin/../../lib/gcc/pic32mx/4.8.3/../../../../pic32mx/lib\libpic32.a(memcpy.o)
 .bss           0x00000000        0x0 c:/program files (x86)/microchip/xc32/v2.05/bin/bin/../../lib/gcc/pic32mx/4.8.3/../../../../pic32mx/lib\libpic32.a(memcpy.o)
 .reginfo       0x00000000       0x18 c:/program files (x86)/microchip/xc32/v2.05/bin/bin/../../lib/gcc/pic32mx/4.8.3/../../../../pic32mx/lib\libpic32.a(memcpy.o)
 .data          0x00000000        0x0 c:/program files (x86)/microchip/xc32/v2.05/bin/bin/../../lib/gcc/pic32mx/4.8.3/../../../../pic32mx/lib\libpic32.a(memset.o)
 .bss           0x00000000        0x0 c:/program files (x86)/microchip/xc32/v2.05/bin/bin/../../lib/gcc/pic32mx/4.8.3/../../../../pic32mx/lib\libpic32.a(memset.o)
 .reginfo       0x00000000       0x18 c:/program files (x86)/microchip/xc32/v2.05/bin/bin/../../lib/gcc/pic32mx/4.8.3/../../../../pic32mx/lib\libpic32.a(memset.o)
 .data          0x00000000        0x0 c:/program files (x86)/microchip/xc32/v2.05/bin/bin/../../lib/gcc/pic32mx/4.8.3/../../../../pic32mx/lib\libpic32.a(strcpy.o)
 .bss           0x00000000        0x0 c:/program files (x86)/microchip/xc32/v2.05/bin/bin/../../lib/gcc/pic32mx/4.8.3/../../../../pic32mx/lib\libpic32.a(strcpy.o)
 .reginfo       0x00000000       0x18 c:/program files (x86)/microchip/xc32/v2.05/bin/bin/../../lib/gcc/pic32mx/4.8.3/../../../../pic32mx/lib\libpic32.a(strcpy.o)
 .text          0x00000000        0x0 c:/program files (x86)/microchip/xc32/v2.05/bin/bin/../../lib/gcc/pic32mx/4.8.3/../../../../pic32mx/lib\libpic32.a(default-bootstrap-exception-handler.o)
 .data          0x00000000        0x0 c:/program files (x86)/microchip/xc32/v2.05/bin/bin/../../lib/gcc/pic32mx/4.8.3/../../../../pic32mx/lib\libpic32.a(default-bootstrap-exception-handler.o)
 .bss           0x00000000        0x0 c:/program files (x86)/microchip/xc32/v2.05/bin/bin/../../lib/gcc/pic32mx/4.8.3/../../../../pic32mx/lib\libpic32.a(default-bootstrap-exception-handler.o)
 .reginfo       0x00000000       0x18 c:/program files (x86)/microchip/xc32/v2.05/bin/bin/../../lib/gcc/pic32mx/4.8.3/../../../../pic32mx/lib\libpic32.a(default-bootstrap-exception-handler.o)
 .text          0x00000000        0x0 c:/program files (x86)/microchip/xc32/v2.05/bin/bin/../../lib/gcc/pic32mx/4.8.3/../../../../pic32mx/lib\libpic32.a(default-on-reset.o)
 .data          0x00000000        0x0 c:/program files (x86)/microchip/xc32/v2.05/bin/bin/../../lib/gcc/pic32mx/4.8.3/../../../../pic32mx/lib\libpic32.a(default-on-reset.o)
 .bss           0x00000000        0x0 c:/program files (x86)/microchip/xc32/v2.05/bin/bin/../../lib/gcc/pic32mx/4.8.3/../../../../pic32mx/lib\libpic32.a(default-on-reset.o)
 .reginfo       0x00000000       0x18 c:/program files (x86)/microchip/xc32/v2.05/bin/bin/../../lib/gcc/pic32mx/4.8.3/../../../../pic32mx/lib\libpic32.a(default-on-reset.o)
 .text          0x00000000        0x0 c:/program files (x86)/microchip/xc32/v2.05/bin/bin/../../lib/gcc/pic32mx/4.8.3/../../../../pic32mx/lib\libpic32.a(default-on-bootstrap.o)
 .data          0x00000000        0x0 c:/program files (x86)/microchip/xc32/v2.05/bin/bin/../../lib/gcc/pic32mx/4.8.3/../../../../pic32mx/lib\libpic32.a(default-on-bootstrap.o)
 .bss           0x00000000        0x0 c:/program files (x86)/microchip/xc32/v2.05/bin/bin/../../lib/gcc/pic32mx/4.8.3/../../../../pic32mx/lib\libpic32.a(default-on-bootstrap.o)
 .reginfo       0x00000000       0x18 c:/program files (x86)/microchip/xc32/v2.05/bin/bin/../../lib/gcc/pic32mx/4.8.3/../../../../pic32mx/lib\libpic32.a(default-on-bootstrap.o)
 .data          0x00000000        0x0 c:/program files (x86)/microchip/xc32/v2.05/bin/bin/../../lib/gcc/pic32mx/4.8.3/../../../../pic32mx/lib\libpic32.a(default-nmi-handler.o)
 .bss           0x00000000        0x0 c:/program files (x86)/microchip/xc32/v2.05/bin/bin/../../lib/gcc/pic32mx/4.8.3/../../../../pic32mx/lib\libpic32.a(default-nmi-handler.o)
 .reginfo       0x00000000       0x18 c:/program files (x86)/microchip/xc32/v2.05/bin/bin/../../lib/gcc/pic32mx/4.8.3/../../../../pic32mx/lib\libpic32.a(default-nmi-handler.o)
 .text          0x00000000        0x0 c:/program files (x86)/microchip/xc32/v2.05/bin/bin/../../lib/gcc/pic32mx/4.8.3/../../../../pic32mx/lib\libpic32.a(general-exception.o)
 .data          0x00000000        0x0 c:/program files (x86)/microchip/xc32/v2.05/bin/bin/../../lib/gcc/pic32mx/4.8.3/../../../../pic32mx/lib\libpic32.a(general-exception.o)
 .bss           0x00000000        0x0 c:/program files (x86)/microchip/xc32/v2.05/bin/bin/../../lib/gcc/pic32mx/4.8.3/../../../../pic32mx/lib\libpic32.a(general-exception.o)
 .reginfo       0x00000000       0x18 c:/program files (x86)/microchip/xc32/v2.05/bin/bin/../../lib/gcc/pic32mx/4.8.3/../../../../pic32mx/lib\libpic32.a(general-exception.o)
 .text          0x00000000        0x0 c:/program files (x86)/microchip/xc32/v2.05/bin/bin/../../lib/gcc/pic32mx/4.8.3/../../../../pic32mx/lib\libpic32.a(vector0.o)
 .data          0x00000000        0x0 c:/program files (x86)/microchip/xc32/v2.05/bin/bin/../../lib/gcc/pic32mx/4.8.3/../../../../pic32mx/lib\libpic32.a(vector0.o)
 .bss           0x00000000        0x0 c:/program files (x86)/microchip/xc32/v2.05/bin/bin/../../lib/gcc/pic32mx/4.8.3/../../../../pic32mx/lib\libpic32.a(vector0.o)
 .reginfo       0x00000000       0x18 c:/program files (x86)/microchip/xc32/v2.05/bin/bin/../../lib/gcc/pic32mx/4.8.3/../../../../pic32mx/lib\libpic32.a(vector0.o)
 .text          0x00000000        0x0 c:/program files (x86)/microchip/xc32/v2.05/bin/bin/../../lib/gcc/pic32mx/4.8.3/../../../../pic32mx/lib\libpic32.a(vector1.o)
 .data          0x00000000        0x0 c:/program files (x86)/microchip/xc32/v2.05/bin/bin/../../lib/gcc/pic32mx/4.8.3/../../../../pic32mx/lib\libpic32.a(vector1.o)
 .bss           0x00000000        0x0 c:/program files (x86)/microchip/xc32/v2.05/bin/bin/../../lib/gcc/pic32mx/4.8.3/../../../../pic32mx/lib\libpic32.a(vector1.o)
 .reginfo       0x00000000       0x18 c:/program files (x86)/microchip/xc32/v2.05/bin/bin/../../lib/gcc/pic32mx/4.8.3/../../../../pic32mx/lib\libpic32.a(vector1.o)
 .text          0x00000000        0x0 c:/program files (x86)/microchip/xc32/v2.05/bin/bin/../../lib/gcc/pic32mx/4.8.3/../../../../pic32mx/lib\libpic32.a(vector2.o)
 .data          0x00000000        0x0 c:/program files (x86)/microchip/xc32/v2.05/bin/bin/../../lib/gcc/pic32mx/4.8.3/../../../../pic32mx/lib\libpic32.a(vector2.o)
 .bss           0x00000000        0x0 c:/program files (x86)/microchip/xc32/v2.05/bin/bin/../../lib/gcc/pic32mx/4.8.3/../../../../pic32mx/lib\libpic32.a(vector2.o)
 .reginfo       0x00000000       0x18 c:/program files (x86)/microchip/xc32/v2.05/bin/bin/../../lib/gcc/pic32mx/4.8.3/../../../../pic32mx/lib\libpic32.a(vector2.o)
 .text          0x00000000        0x0 c:/program files (x86)/microchip/xc32/v2.05/bin/bin/../../lib/gcc/pic32mx/4.8.3/../../../../pic32mx/lib\libpic32.a(vector3.o)
 .data          0x00000000        0x0 c:/program files (x86)/microchip/xc32/v2.05/bin/bin/../../lib/gcc/pic32mx/4.8.3/../../../../pic32mx/lib\libpic32.a(vector3.o)
 .bss           0x00000000        0x0 c:/program files (x86)/microchip/xc32/v2.05/bin/bin/../../lib/gcc/pic32mx/4.8.3/../../../../pic32mx/lib\libpic32.a(vector3.o)
 .reginfo       0x00000000       0x18 c:/program files (x86)/microchip/xc32/v2.05/bin/bin/../../lib/gcc/pic32mx/4.8.3/../../../../pic32mx/lib\libpic32.a(vector3.o)
 .text          0x00000000        0x0 c:/program files (x86)/microchip/xc32/v2.05/bin/bin/../../lib/gcc/pic32mx/4.8.3/../../../../pic32mx/lib\libpic32.a(vector5.o)
 .data          0x00000000        0x0 c:/program files (x86)/microchip/xc32/v2.05/bin/bin/../../lib/gcc/pic32mx/4.8.3/../../../../pic32mx/lib\libpic32.a(vector5.o)
 .bss           0x00000000        0x0 c:/program files (x86)/microchip/xc32/v2.05/bin/bin/../../lib/gcc/pic32mx/4.8.3/../../../../pic32mx/lib\libpic32.a(vector5.o)
 .reginfo       0x00000000       0x18 c:/program files (x86)/microchip/xc32/v2.05/bin/bin/../../lib/gcc/pic32mx/4.8.3/../../../../pic32mx/lib\libpic32.a(vector5.o)
 .text          0x00000000        0x0 c:/program files (x86)/microchip/xc32/v2.05/bin/bin/../../lib/gcc/pic32mx/4.8.3/../../../../pic32mx/lib\libpic32.a(vector6.o)
 .data          0x00000000        0x0 c:/program files (x86)/microchip/xc32/v2.05/bin/bin/../../lib/gcc/pic32mx/4.8.3/../../../../pic32mx/lib\libpic32.a(vector6.o)
 .bss           0x00000000        0x0 c:/program files (x86)/microchip/xc32/v2.05/bin/bin/../../lib/gcc/pic32mx/4.8.3/../../../../pic32mx/lib\libpic32.a(vector6.o)
 .reginfo       0x00000000       0x18 c:/program files (x86)/microchip/xc32/v2.05/bin/bin/../../lib/gcc/pic32mx/4.8.3/../../../../pic32mx/lib\libpic32.a(vector6.o)
 .text          0x00000000        0x0 c:/program files (x86)/microchip/xc32/v2.05/bin/bin/../../lib/gcc/pic32mx/4.8.3/../../../../pic32mx/lib\libpic32.a(vector7.o)
 .data          0x00000000        0x0 c:/program files (x86)/microchip/xc32/v2.05/bin/bin/../../lib/gcc/pic32mx/4.8.3/../../../../pic32mx/lib\libpic32.a(vector7.o)
 .bss           0x00000000        0x0 c:/program files (x86)/microchip/xc32/v2.05/bin/bin/../../lib/gcc/pic32mx/4.8.3/../../../../pic32mx/lib\libpic32.a(vector7.o)
 .reginfo       0x00000000       0x18 c:/program files (x86)/microchip/xc32/v2.05/bin/bin/../../lib/gcc/pic32mx/4.8.3/../../../../pic32mx/lib\libpic32.a(vector7.o)
 .text          0x00000000        0x0 c:/program files (x86)/microchip/xc32/v2.05/bin/bin/../../lib/gcc/pic32mx/4.8.3/../../../../pic32mx/lib\libpic32.a(vector9.o)
 .data          0x00000000        0x0 c:/program files (x86)/microchip/xc32/v2.05/bin/bin/../../lib/gcc/pic32mx/4.8.3/../../../../pic32mx/lib\libpic32.a(vector9.o)
 .bss           0x00000000        0x0 c:/program files (x86)/microchip/xc32/v2.05/bin/bin/../../lib/gcc/pic32mx/4.8.3/../../../../pic32mx/lib\libpic32.a(vector9.o)
 .reginfo       0x00000000       0x18 c:/program files (x86)/microchip/xc32/v2.05/bin/bin/../../lib/gcc/pic32mx/4.8.3/../../../../pic32mx/lib\libpic32.a(vector9.o)
 .text          0x00000000        0x0 c:/program files (x86)/microchip/xc32/v2.05/bin/bin/../../lib/gcc/pic32mx/4.8.3/../../../../pic32mx/lib\libpic32.a(vector10.o)
 .data          0x00000000        0x0 c:/program files (x86)/microchip/xc32/v2.05/bin/bin/../../lib/gcc/pic32mx/4.8.3/../../../../pic32mx/lib\libpic32.a(vector10.o)
 .bss           0x00000000        0x0 c:/program files (x86)/microchip/xc32/v2.05/bin/bin/../../lib/gcc/pic32mx/4.8.3/../../../../pic32mx/lib\libpic32.a(vector10.o)
 .reginfo       0x00000000       0x18 c:/program files (x86)/microchip/xc32/v2.05/bin/bin/../../lib/gcc/pic32mx/4.8.3/../../../../pic32mx/lib\libpic32.a(vector10.o)
 .text          0x00000000        0x0 c:/program files (x86)/microchip/xc32/v2.05/bin/bin/../../lib/gcc/pic32mx/4.8.3/../../../../pic32mx/lib\libpic32.a(vector11.o)
 .data          0x00000000        0x0 c:/program files (x86)/microchip/xc32/v2.05/bin/bin/../../lib/gcc/pic32mx/4.8.3/../../../../pic32mx/lib\libpic32.a(vector11.o)
 .bss           0x00000000        0x0 c:/program files (x86)/microchip/xc32/v2.05/bin/bin/../../lib/gcc/pic32mx/4.8.3/../../../../pic32mx/lib\libpic32.a(vector11.o)
 .reginfo       0x00000000       0x18 c:/program files (x86)/microchip/xc32/v2.05/bin/bin/../../lib/gcc/pic32mx/4.8.3/../../../../pic32mx/lib\libpic32.a(vector11.o)
 .text          0x00000000        0x0 c:/program files (x86)/microchip/xc32/v2.05/bin/bin/../../lib/gcc/pic32mx/4.8.3/../../../../pic32mx/lib\libpic32.a(vector12.o)
 .data          0x00000000        0x0 c:/program files (x86)/microchip/xc32/v2.05/bin/bin/../../lib/gcc/pic32mx/4.8.3/../../../../pic32mx/lib\libpic32.a(vector12.o)
 .bss           0x00000000        0x0 c:/program files (x86)/microchip/xc32/v2.05/bin/bin/../../lib/gcc/pic32mx/4.8.3/../../../../pic32mx/lib\libpic32.a(vector12.o)
 .reginfo       0x00000000       0x18 c:/program files (x86)/microchip/xc32/v2.05/bin/bin/../../lib/gcc/pic32mx/4.8.3/../../../../pic32mx/lib\libpic32.a(vector12.o)
 .text          0x00000000        0x0 c:/program files (x86)/microchip/xc32/v2.05/bin/bin/../../lib/gcc/pic32mx/4.8.3/../../../../pic32mx/lib\libpic32.a(vector13.o)
 .data          0x00000000        0x0 c:/program files (x86)/microchip/xc32/v2.05/bin/bin/../../lib/gcc/pic32mx/4.8.3/../../../../pic32mx/lib\libpic32.a(vector13.o)
 .bss           0x00000000        0x0 c:/program files (x86)/microchip/xc32/v2.05/bin/bin/../../lib/gcc/pic32mx/4.8.3/../../../../pic32mx/lib\libpic32.a(vector13.o)
 .reginfo       0x00000000       0x18 c:/program files (x86)/microchip/xc32/v2.05/bin/bin/../../lib/gcc/pic32mx/4.8.3/../../../../pic32mx/lib\libpic32.a(vector13.o)
 .text          0x00000000        0x0 c:/program files (x86)/microchip/xc32/v2.05/bin/bin/../../lib/gcc/pic32mx/4.8.3/../../../../pic32mx/lib\libpic32.a(vector14.o)
 .data          0x00000000        0x0 c:/program files (x86)/microchip/xc32/v2.05/bin/bin/../../lib/gcc/pic32mx/4.8.3/../../../../pic32mx/lib\libpic32.a(vector14.o)
 .bss           0x00000000        0x0 c:/program files (x86)/microchip/xc32/v2.05/bin/bin/../../lib/gcc/pic32mx/4.8.3/../../../../pic32mx/lib\libpic32.a(vector14.o)
 .reginfo       0x00000000       0x18 c:/program files (x86)/microchip/xc32/v2.05/bin/bin/../../lib/gcc/pic32mx/4.8.3/../../../../pic32mx/lib\libpic32.a(vector14.o)
 .text          0x00000000        0x0 c:/program files (x86)/microchip/xc32/v2.05/bin/bin/../../lib/gcc/pic32mx/4.8.3/../../../../pic32mx/lib\libpic32.a(vector15.o)
 .data          0x00000000        0x0 c:/program files (x86)/microchip/xc32/v2.05/bin/bin/../../lib/gcc/pic32mx/4.8.3/../../../../pic32mx/lib\libpic32.a(vector15.o)
 .bss           0x00000000        0x0 c:/program files (x86)/microchip/xc32/v2.05/bin/bin/../../lib/gcc/pic32mx/4.8.3/../../../../pic32mx/lib\libpic32.a(vector15.o)
 .reginfo       0x00000000       0x18 c:/program files (x86)/microchip/xc32/v2.05/bin/bin/../../lib/gcc/pic32mx/4.8.3/../../../../pic32mx/lib\libpic32.a(vector15.o)
 .text          0x00000000        0x0 c:/program files (x86)/microchip/xc32/v2.05/bin/bin/../../lib/gcc/pic32mx/4.8.3/../../../../pic32mx/lib\libpic32.a(vector16.o)
 .data          0x00000000        0x0 c:/program files (x86)/microchip/xc32/v2.05/bin/bin/../../lib/gcc/pic32mx/4.8.3/../../../../pic32mx/lib\libpic32.a(vector16.o)
 .bss           0x00000000        0x0 c:/program files (x86)/microchip/xc32/v2.05/bin/bin/../../lib/gcc/pic32mx/4.8.3/../../../../pic32mx/lib\libpic32.a(vector16.o)
 .reginfo       0x00000000       0x18 c:/program files (x86)/microchip/xc32/v2.05/bin/bin/../../lib/gcc/pic32mx/4.8.3/../../../../pic32mx/lib\libpic32.a(vector16.o)
 .text          0x00000000        0x0 c:/program files (x86)/microchip/xc32/v2.05/bin/bin/../../lib/gcc/pic32mx/4.8.3/../../../../pic32mx/lib\libpic32.a(vector17.o)
 .data          0x00000000        0x0 c:/program files (x86)/microchip/xc32/v2.05/bin/bin/../../lib/gcc/pic32mx/4.8.3/../../../../pic32mx/lib\libpic32.a(vector17.o)
 .bss           0x00000000        0x0 c:/program files (x86)/microchip/xc32/v2.05/bin/bin/../../lib/gcc/pic32mx/4.8.3/../../../../pic32mx/lib\libpic32.a(vector17.o)
 .reginfo       0x00000000       0x18 c:/program files (x86)/microchip/xc32/v2.05/bin/bin/../../lib/gcc/pic32mx/4.8.3/../../../../pic32mx/lib\libpic32.a(vector17.o)
 .text          0x00000000        0x0 c:/program files (x86)/microchip/xc32/v2.05/bin/bin/../../lib/gcc/pic32mx/4.8.3/../../../../pic32mx/lib\libpic32.a(vector18.o)
 .data          0x00000000        0x0 c:/program files (x86)/microchip/xc32/v2.05/bin/bin/../../lib/gcc/pic32mx/4.8.3/../../../../pic32mx/lib\libpic32.a(vector18.o)
 .bss           0x00000000        0x0 c:/program files (x86)/microchip/xc32/v2.05/bin/bin/../../lib/gcc/pic32mx/4.8.3/../../../../pic32mx/lib\libpic32.a(vector18.o)
 .reginfo       0x00000000       0x18 c:/program files (x86)/microchip/xc32/v2.05/bin/bin/../../lib/gcc/pic32mx/4.8.3/../../../../pic32mx/lib\libpic32.a(vector18.o)
 .text          0x00000000        0x0 c:/program files (x86)/microchip/xc32/v2.05/bin/bin/../../lib/gcc/pic32mx/4.8.3/../../../../pic32mx/lib\libpic32.a(vector19.o)
 .data          0x00000000        0x0 c:/program files (x86)/microchip/xc32/v2.05/bin/bin/../../lib/gcc/pic32mx/4.8.3/../../../../pic32mx/lib\libpic32.a(vector19.o)
 .bss           0x00000000        0x0 c:/program files (x86)/microchip/xc32/v2.05/bin/bin/../../lib/gcc/pic32mx/4.8.3/../../../../pic32mx/lib\libpic32.a(vector19.o)
 .reginfo       0x00000000       0x18 c:/program files (x86)/microchip/xc32/v2.05/bin/bin/../../lib/gcc/pic32mx/4.8.3/../../../../pic32mx/lib\libpic32.a(vector19.o)
 .text          0x00000000        0x0 c:/program files (x86)/microchip/xc32/v2.05/bin/bin/../../lib/gcc/pic32mx/4.8.3/../../../../pic32mx/lib\libpic32.a(vector20.o)
 .data          0x00000000        0x0 c:/program files (x86)/microchip/xc32/v2.05/bin/bin/../../lib/gcc/pic32mx/4.8.3/../../../../pic32mx/lib\libpic32.a(vector20.o)
 .bss           0x00000000        0x0 c:/program files (x86)/microchip/xc32/v2.05/bin/bin/../../lib/gcc/pic32mx/4.8.3/../../../../pic32mx/lib\libpic32.a(vector20.o)
 .reginfo       0x00000000       0x18 c:/program files (x86)/microchip/xc32/v2.05/bin/bin/../../lib/gcc/pic32mx/4.8.3/../../../../pic32mx/lib\libpic32.a(vector20.o)
 .text          0x00000000        0x0 c:/program files (x86)/microchip/xc32/v2.05/bin/bin/../../lib/gcc/pic32mx/4.8.3/../../../../pic32mx/lib\libpic32.a(vector21.o)
 .data          0x00000000        0x0 c:/program files (x86)/microchip/xc32/v2.05/bin/bin/../../lib/gcc/pic32mx/4.8.3/../../../../pic32mx/lib\libpic32.a(vector21.o)
 .bss           0x00000000        0x0 c:/program files (x86)/microchip/xc32/v2.05/bin/bin/../../lib/gcc/pic32mx/4.8.3/../../../../pic32mx/lib\libpic32.a(vector21.o)
 .reginfo       0x00000000       0x18 c:/program files (x86)/microchip/xc32/v2.05/bin/bin/../../lib/gcc/pic32mx/4.8.3/../../../../pic32mx/lib\libpic32.a(vector21.o)
 .text          0x00000000        0x0 c:/program files (x86)/microchip/xc32/v2.05/bin/bin/../../lib/gcc/pic32mx/4.8.3/../../../../pic32mx/lib\libpic32.a(vector22.o)
 .data          0x00000000        0x0 c:/program files (x86)/microchip/xc32/v2.05/bin/bin/../../lib/gcc/pic32mx/4.8.3/../../../../pic32mx/lib\libpic32.a(vector22.o)
 .bss           0x00000000        0x0 c:/program files (x86)/microchip/xc32/v2.05/bin/bin/../../lib/gcc/pic32mx/4.8.3/../../../../pic32mx/lib\libpic32.a(vector22.o)
 .reginfo       0x00000000       0x18 c:/program files (x86)/microchip/xc32/v2.05/bin/bin/../../lib/gcc/pic32mx/4.8.3/../../../../pic32mx/lib\libpic32.a(vector22.o)
 .text          0x00000000        0x0 c:/program files (x86)/microchip/xc32/v2.05/bin/bin/../../lib/gcc/pic32mx/4.8.3/../../../../pic32mx/lib\libpic32.a(vector24.o)
 .data          0x00000000        0x0 c:/program files (x86)/microchip/xc32/v2.05/bin/bin/../../lib/gcc/pic32mx/4.8.3/../../../../pic32mx/lib\libpic32.a(vector24.o)
 .bss           0x00000000        0x0 c:/program files (x86)/microchip/xc32/v2.05/bin/bin/../../lib/gcc/pic32mx/4.8.3/../../../../pic32mx/lib\libpic32.a(vector24.o)
 .reginfo       0x00000000       0x18 c:/program files (x86)/microchip/xc32/v2.05/bin/bin/../../lib/gcc/pic32mx/4.8.3/../../../../pic32mx/lib\libpic32.a(vector24.o)
 .text          0x00000000        0x0 c:/program files (x86)/microchip/xc32/v2.05/bin/bin/../../lib/gcc/pic32mx/4.8.3/../../../../pic32mx/lib\libpic32.a(vector25.o)
 .data          0x00000000        0x0 c:/program files (x86)/microchip/xc32/v2.05/bin/bin/../../lib/gcc/pic32mx/4.8.3/../../../../pic32mx/lib\libpic32.a(vector25.o)
 .bss           0x00000000        0x0 c:/program files (x86)/microchip/xc32/v2.05/bin/bin/../../lib/gcc/pic32mx/4.8.3/../../../../pic32mx/lib\libpic32.a(vector25.o)
 .reginfo       0x00000000       0x18 c:/program files (x86)/microchip/xc32/v2.05/bin/bin/../../lib/gcc/pic32mx/4.8.3/../../../../pic32mx/lib\libpic32.a(vector25.o)
 .text          0x00000000        0x0 c:/program files (x86)/microchip/xc32/v2.05/bin/bin/../../lib/gcc/pic32mx/4.8.3/../../../../pic32mx/lib\libpic32.a(vector26.o)
 .data          0x00000000        0x0 c:/program files (x86)/microchip/xc32/v2.05/bin/bin/../../lib/gcc/pic32mx/4.8.3/../../../../pic32mx/lib\libpic32.a(vector26.o)
 .bss           0x00000000        0x0 c:/program files (x86)/microchip/xc32/v2.05/bin/bin/../../lib/gcc/pic32mx/4.8.3/../../../../pic32mx/lib\libpic32.a(vector26.o)
 .reginfo       0x00000000       0x18 c:/program files (x86)/microchip/xc32/v2.05/bin/bin/../../lib/gcc/pic32mx/4.8.3/../../../../pic32mx/lib\libpic32.a(vector26.o)
 .text          0x00000000        0x0 c:/program files (x86)/microchip/xc32/v2.05/bin/bin/../../lib/gcc/pic32mx/4.8.3/../../../../pic32mx/lib\libpic32.a(vector27.o)
 .data          0x00000000        0x0 c:/program files (x86)/microchip/xc32/v2.05/bin/bin/../../lib/gcc/pic32mx/4.8.3/../../../../pic32mx/lib\libpic32.a(vector27.o)
 .bss           0x00000000        0x0 c:/program files (x86)/microchip/xc32/v2.05/bin/bin/../../lib/gcc/pic32mx/4.8.3/../../../../pic32mx/lib\libpic32.a(vector27.o)
 .reginfo       0x00000000       0x18 c:/program files (x86)/microchip/xc32/v2.05/bin/bin/../../lib/gcc/pic32mx/4.8.3/../../../../pic32mx/lib\libpic32.a(vector27.o)
 .text          0x00000000        0x0 c:/program files (x86)/microchip/xc32/v2.05/bin/bin/../../lib/gcc/pic32mx/4.8.3/../../../../pic32mx/lib\libpic32.a(vector28.o)
 .data          0x00000000        0x0 c:/program files (x86)/microchip/xc32/v2.05/bin/bin/../../lib/gcc/pic32mx/4.8.3/../../../../pic32mx/lib\libpic32.a(vector28.o)
 .bss           0x00000000        0x0 c:/program files (x86)/microchip/xc32/v2.05/bin/bin/../../lib/gcc/pic32mx/4.8.3/../../../../pic32mx/lib\libpic32.a(vector28.o)
 .reginfo       0x00000000       0x18 c:/program files (x86)/microchip/xc32/v2.05/bin/bin/../../lib/gcc/pic32mx/4.8.3/../../../../pic32mx/lib\libpic32.a(vector28.o)
 .text          0x00000000        0x0 c:/program files (x86)/microchip/xc32/v2.05/bin/bin/../../lib/gcc/pic32mx/4.8.3/../../../../pic32mx/lib\libpic32.a(vector29.o)
 .data          0x00000000        0x0 c:/program files (x86)/microchip/xc32/v2.05/bin/bin/../../lib/gcc/pic32mx/4.8.3/../../../../pic32mx/lib\libpic32.a(vector29.o)
 .bss           0x00000000        0x0 c:/program files (x86)/microchip/xc32/v2.05/bin/bin/../../lib/gcc/pic32mx/4.8.3/../../../../pic32mx/lib\libpic32.a(vector29.o)
 .reginfo       0x00000000       0x18 c:/program files (x86)/microchip/xc32/v2.05/bin/bin/../../lib/gcc/pic32mx/4.8.3/../../../../pic32mx/lib\libpic32.a(vector29.o)
 .text          0x00000000        0x0 c:/program files (x86)/microchip/xc32/v2.05/bin/bin/../../lib/gcc/pic32mx/4.8.3/../../../../pic32mx/lib\libpic32.a(vector30.o)
 .data          0x00000000        0x0 c:/program files (x86)/microchip/xc32/v2.05/bin/bin/../../lib/gcc/pic32mx/4.8.3/../../../../pic32mx/lib\libpic32.a(vector30.o)
 .bss           0x00000000        0x0 c:/program files (x86)/microchip/xc32/v2.05/bin/bin/../../lib/gcc/pic32mx/4.8.3/../../../../pic32mx/lib\libpic32.a(vector30.o)
 .reginfo       0x00000000       0x18 c:/program files (x86)/microchip/xc32/v2.05/bin/bin/../../lib/gcc/pic32mx/4.8.3/../../../../pic32mx/lib\libpic32.a(vector30.o)
 .text          0x00000000        0x0 c:/program files (x86)/microchip/xc32/v2.05/bin/bin/../../lib/gcc/pic32mx/4.8.3/../../../../pic32mx/lib\libpic32.a(vector31.o)
 .data          0x00000000        0x0 c:/program files (x86)/microchip/xc32/v2.05/bin/bin/../../lib/gcc/pic32mx/4.8.3/../../../../pic32mx/lib\libpic32.a(vector31.o)
 .bss           0x00000000        0x0 c:/program files (x86)/microchip/xc32/v2.05/bin/bin/../../lib/gcc/pic32mx/4.8.3/../../../../pic32mx/lib\libpic32.a(vector31.o)
 .reginfo       0x00000000       0x18 c:/program files (x86)/microchip/xc32/v2.05/bin/bin/../../lib/gcc/pic32mx/4.8.3/../../../../pic32mx/lib\libpic32.a(vector31.o)
 .text          0x00000000        0x0 c:/program files (x86)/microchip/xc32/v2.05/bin/bin/../../lib/gcc/pic32mx/4.8.3/../../../../pic32mx/lib\libpic32.a(vector33.o)
 .data          0x00000000        0x0 c:/program files (x86)/microchip/xc32/v2.05/bin/bin/../../lib/gcc/pic32mx/4.8.3/../../../../pic32mx/lib\libpic32.a(vector33.o)
 .bss           0x00000000        0x0 c:/program files (x86)/microchip/xc32/v2.05/bin/bin/../../lib/gcc/pic32mx/4.8.3/../../../../pic32mx/lib\libpic32.a(vector33.o)
 .reginfo       0x00000000       0x18 c:/program files (x86)/microchip/xc32/v2.05/bin/bin/../../lib/gcc/pic32mx/4.8.3/../../../../pic32mx/lib\libpic32.a(vector33.o)
 .text          0x00000000        0x0 c:/program files (x86)/microchip/xc32/v2.05/bin/bin/../../lib/gcc/pic32mx/4.8.3/../../../../pic32mx/lib\libpic32.a(vector35.o)
 .data          0x00000000        0x0 c:/program files (x86)/microchip/xc32/v2.05/bin/bin/../../lib/gcc/pic32mx/4.8.3/../../../../pic32mx/lib\libpic32.a(vector35.o)
 .bss           0x00000000        0x0 c:/program files (x86)/microchip/xc32/v2.05/bin/bin/../../lib/gcc/pic32mx/4.8.3/../../../../pic32mx/lib\libpic32.a(vector35.o)
 .reginfo       0x00000000       0x18 c:/program files (x86)/microchip/xc32/v2.05/bin/bin/../../lib/gcc/pic32mx/4.8.3/../../../../pic32mx/lib\libpic32.a(vector35.o)
 .text          0x00000000        0x0 c:/program files (x86)/microchip/xc32/v2.05/bin/bin/../../lib/gcc/pic32mx/4.8.3/../../../../pic32mx/lib\libpic32.a(vector36.o)
 .data          0x00000000        0x0 c:/program files (x86)/microchip/xc32/v2.05/bin/bin/../../lib/gcc/pic32mx/4.8.3/../../../../pic32mx/lib\libpic32.a(vector36.o)
 .bss           0x00000000        0x0 c:/program files (x86)/microchip/xc32/v2.05/bin/bin/../../lib/gcc/pic32mx/4.8.3/../../../../pic32mx/lib\libpic32.a(vector36.o)
 .reginfo       0x00000000       0x18 c:/program files (x86)/microchip/xc32/v2.05/bin/bin/../../lib/gcc/pic32mx/4.8.3/../../../../pic32mx/lib\libpic32.a(vector36.o)
 .text          0x00000000        0x0 c:/program files (x86)/microchip/xc32/v2.05/bin/bin/../../lib/gcc/pic32mx/4.8.3/../../../../pic32mx/lib\libpic32.a(vector37.o)
 .data          0x00000000        0x0 c:/program files (x86)/microchip/xc32/v2.05/bin/bin/../../lib/gcc/pic32mx/4.8.3/../../../../pic32mx/lib\libpic32.a(vector37.o)
 .bss           0x00000000        0x0 c:/program files (x86)/microchip/xc32/v2.05/bin/bin/../../lib/gcc/pic32mx/4.8.3/../../../../pic32mx/lib\libpic32.a(vector37.o)
 .reginfo       0x00000000       0x18 c:/program files (x86)/microchip/xc32/v2.05/bin/bin/../../lib/gcc/pic32mx/4.8.3/../../../../pic32mx/lib\libpic32.a(vector37.o)
 .text          0x00000000        0x0 c:/program files (x86)/microchip/xc32/v2.05/bin/bin/../../lib/gcc/pic32mx/4.8.3/../../../../pic32mx/lib\libpic32.a(vector38.o)
 .data          0x00000000        0x0 c:/program files (x86)/microchip/xc32/v2.05/bin/bin/../../lib/gcc/pic32mx/4.8.3/../../../../pic32mx/lib\libpic32.a(vector38.o)
 .bss           0x00000000        0x0 c:/program files (x86)/microchip/xc32/v2.05/bin/bin/../../lib/gcc/pic32mx/4.8.3/../../../../pic32mx/lib\libpic32.a(vector38.o)
 .reginfo       0x00000000       0x18 c:/program files (x86)/microchip/xc32/v2.05/bin/bin/../../lib/gcc/pic32mx/4.8.3/../../../../pic32mx/lib\libpic32.a(vector38.o)
 .text          0x00000000        0x0 c:/program files (x86)/microchip/xc32/v2.05/bin/bin/../../lib/gcc/pic32mx/4.8.3/../../../../pic32mx/lib\libpic32.a(vector39.o)
 .data          0x00000000        0x0 c:/program files (x86)/microchip/xc32/v2.05/bin/bin/../../lib/gcc/pic32mx/4.8.3/../../../../pic32mx/lib\libpic32.a(vector39.o)
 .bss           0x00000000        0x0 c:/program files (x86)/microchip/xc32/v2.05/bin/bin/../../lib/gcc/pic32mx/4.8.3/../../../../pic32mx/lib\libpic32.a(vector39.o)
 .reginfo       0x00000000       0x18 c:/program files (x86)/microchip/xc32/v2.05/bin/bin/../../lib/gcc/pic32mx/4.8.3/../../../../pic32mx/lib\libpic32.a(vector39.o)
 .text          0x00000000        0x0 c:/program files (x86)/microchip/xc32/v2.05/bin/bin/../../lib/gcc/pic32mx/4.8.3/../../../../pic32mx/lib\libpic32.a(vector40.o)
 .data          0x00000000        0x0 c:/program files (x86)/microchip/xc32/v2.05/bin/bin/../../lib/gcc/pic32mx/4.8.3/../../../../pic32mx/lib\libpic32.a(vector40.o)
 .bss           0x00000000        0x0 c:/program files (x86)/microchip/xc32/v2.05/bin/bin/../../lib/gcc/pic32mx/4.8.3/../../../../pic32mx/lib\libpic32.a(vector40.o)
 .reginfo       0x00000000       0x18 c:/program files (x86)/microchip/xc32/v2.05/bin/bin/../../lib/gcc/pic32mx/4.8.3/../../../../pic32mx/lib\libpic32.a(vector40.o)
 .text          0x00000000        0x0 c:/program files (x86)/microchip/xc32/v2.05/bin/bin/../../lib/gcc/pic32mx/4.8.3/../../../../pic32mx/lib\libpic32.a(vector41.o)
 .data          0x00000000        0x0 c:/program files (x86)/microchip/xc32/v2.05/bin/bin/../../lib/gcc/pic32mx/4.8.3/../../../../pic32mx/lib\libpic32.a(vector41.o)
 .bss           0x00000000        0x0 c:/program files (x86)/microchip/xc32/v2.05/bin/bin/../../lib/gcc/pic32mx/4.8.3/../../../../pic32mx/lib\libpic32.a(vector41.o)
 .reginfo       0x00000000       0x18 c:/program files (x86)/microchip/xc32/v2.05/bin/bin/../../lib/gcc/pic32mx/4.8.3/../../../../pic32mx/lib\libpic32.a(vector41.o)
 .text          0x00000000        0x0 c:/program files (x86)/microchip/xc32/v2.05/bin/bin/../../lib/gcc/pic32mx/4.8.3/../../../../pic32mx/lib\libpic32.a(vector42.o)
 .data          0x00000000        0x0 c:/program files (x86)/microchip/xc32/v2.05/bin/bin/../../lib/gcc/pic32mx/4.8.3/../../../../pic32mx/lib\libpic32.a(vector42.o)
 .bss           0x00000000        0x0 c:/program files (x86)/microchip/xc32/v2.05/bin/bin/../../lib/gcc/pic32mx/4.8.3/../../../../pic32mx/lib\libpic32.a(vector42.o)
 .reginfo       0x00000000       0x18 c:/program files (x86)/microchip/xc32/v2.05/bin/bin/../../lib/gcc/pic32mx/4.8.3/../../../../pic32mx/lib\libpic32.a(vector42.o)
 .text          0x00000000        0x0 c:/program files (x86)/microchip/xc32/v2.05/bin/bin/../../lib/gcc/pic32mx/4.8.3/../../../../pic32mx/lib\libpic32.a(vector43.o)
 .data          0x00000000        0x0 c:/program files (x86)/microchip/xc32/v2.05/bin/bin/../../lib/gcc/pic32mx/4.8.3/../../../../pic32mx/lib\libpic32.a(vector43.o)
 .bss           0x00000000        0x0 c:/program files (x86)/microchip/xc32/v2.05/bin/bin/../../lib/gcc/pic32mx/4.8.3/../../../../pic32mx/lib\libpic32.a(vector43.o)
 .reginfo       0x00000000       0x18 c:/program files (x86)/microchip/xc32/v2.05/bin/bin/../../lib/gcc/pic32mx/4.8.3/../../../../pic32mx/lib\libpic32.a(vector43.o)
 .text          0x00000000        0x0 c:/program files (x86)/microchip/xc32/v2.05/bin/bin/../../lib/gcc/pic32mx/4.8.3/../../../../pic32mx/lib\libpic32.a(defaultinterrupt.o)
 .data          0x00000000        0x0 c:/program files (x86)/microchip/xc32/v2.05/bin/bin/../../lib/gcc/pic32mx/4.8.3/../../../../pic32mx/lib\libpic32.a(defaultinterrupt.o)
 .bss           0x00000000        0x0 c:/program files (x86)/microchip/xc32/v2.05/bin/bin/../../lib/gcc/pic32mx/4.8.3/../../../../pic32mx/lib\libpic32.a(defaultinterrupt.o)
 .reginfo       0x00000000       0x18 c:/program files (x86)/microchip/xc32/v2.05/bin/bin/../../lib/gcc/pic32mx/4.8.3/../../../../pic32mx/lib\libpic32.a(defaultinterrupt.o)
 .text          0x00000000        0x0 c:/program files (x86)/microchip/xc32/v2.05/bin/bin/../../lib/gcc/pic32mx/4.8.3/../../../../pic32mx/lib\libm.a(fp32div.o)
 .data          0x00000000        0x0 c:/program files (x86)/microchip/xc32/v2.05/bin/bin/../../lib/gcc/pic32mx/4.8.3/../../../../pic32mx/lib\libm.a(fp32div.o)
 .bss           0x00000000        0x0 c:/program files (x86)/microchip/xc32/v2.05/bin/bin/../../lib/gcc/pic32mx/4.8.3/../../../../pic32mx/lib\libm.a(fp32div.o)
 .reginfo       0x00000000       0x18 c:/program files (x86)/microchip/xc32/v2.05/bin/bin/../../lib/gcc/pic32mx/4.8.3/../../../../pic32mx/lib\libm.a(fp32div.o)
 .text          0x00000000        0x0 c:/program files (x86)/microchip/xc32/v2.05/bin/bin/../../lib/gcc/pic32mx/4.8.3/../../../../pic32mx/lib\libm.a(fp32mul.o)
 .data          0x00000000        0x0 c:/program files (x86)/microchip/xc32/v2.05/bin/bin/../../lib/gcc/pic32mx/4.8.3/../../../../pic32mx/lib\libm.a(fp32mul.o)
 .bss           0x00000000        0x0 c:/program files (x86)/microchip/xc32/v2.05/bin/bin/../../lib/gcc/pic32mx/4.8.3/../../../../pic32mx/lib\libm.a(fp32mul.o)
 .reginfo       0x00000000       0x18 c:/program files (x86)/microchip/xc32/v2.05/bin/bin/../../lib/gcc/pic32mx/4.8.3/../../../../pic32mx/lib\libm.a(fp32mul.o)
 .text          0x00000000        0x0 c:/program files (x86)/microchip/xc32/v2.05/bin/bin/../../lib/gcc/pic32mx/4.8.3/../../../../pic32mx/lib\libm.a(fp32subadd.o)
 .data          0x00000000        0x0 c:/program files (x86)/microchip/xc32/v2.05/bin/bin/../../lib/gcc/pic32mx/4.8.3/../../../../pic32mx/lib\libm.a(fp32subadd.o)
 .bss           0x00000000        0x0 c:/program files (x86)/microchip/xc32/v2.05/bin/bin/../../lib/gcc/pic32mx/4.8.3/../../../../pic32mx/lib\libm.a(fp32subadd.o)
 .reginfo       0x00000000       0x18 c:/program files (x86)/microchip/xc32/v2.05/bin/bin/../../lib/gcc/pic32mx/4.8.3/../../../../pic32mx/lib\libm.a(fp32subadd.o)
 .text          0x00000000        0x0 c:/program files (x86)/microchip/xc32/v2.05/bin/bin/../../lib/gcc/pic32mx/4.8.3/../../../../pic32mx/lib\libm.a(fpcmp.o)
 .data          0x00000000        0x0 c:/program files (x86)/microchip/xc32/v2.05/bin/bin/../../lib/gcc/pic32mx/4.8.3/../../../../pic32mx/lib\libm.a(fpcmp.o)
 .bss           0x00000000        0x0 c:/program files (x86)/microchip/xc32/v2.05/bin/bin/../../lib/gcc/pic32mx/4.8.3/../../../../pic32mx/lib\libm.a(fpcmp.o)
 .reginfo       0x00000000       0x18 c:/program files (x86)/microchip/xc32/v2.05/bin/bin/../../lib/gcc/pic32mx/4.8.3/../../../../pic32mx/lib\libm.a(fpcmp.o)
 .text.fpcmp    0x00000000       0x9c c:/program files (x86)/microchip/xc32/v2.05/bin/bin/../../lib/gcc/pic32mx/4.8.3/../../../../pic32mx/lib\libm.a(fpcmp.o)
 .text          0x00000000        0x0 c:/program files (x86)/microchip/xc32/v2.05/bin/bin/../../lib/gcc/pic32mx/4.8.3/../../../../pic32mx/lib\libm.a(fptoul.o)
 .data          0x00000000        0x0 c:/program files (x86)/microchip/xc32/v2.05/bin/bin/../../lib/gcc/pic32mx/4.8.3/../../../../pic32mx/lib\libm.a(fptoul.o)
 .bss           0x00000000        0x0 c:/program files (x86)/microchip/xc32/v2.05/bin/bin/../../lib/gcc/pic32mx/4.8.3/../../../../pic32mx/lib\libm.a(fptoul.o)
 .reginfo       0x00000000       0x18 c:/program files (x86)/microchip/xc32/v2.05/bin/bin/../../lib/gcc/pic32mx/4.8.3/../../../../pic32mx/lib\libm.a(fptoul.o)
 .text          0x00000000        0x0 c:/program files (x86)/microchip/xc32/v2.05/bin/bin/../../lib/gcc/pic32mx/4.8.3/../../../../pic32mx/lib\libm.a(sitofp.o)
 .data          0x00000000        0x0 c:/program files (x86)/microchip/xc32/v2.05/bin/bin/../../lib/gcc/pic32mx/4.8.3/../../../../pic32mx/lib\libm.a(sitofp.o)
 .bss           0x00000000        0x0 c:/program files (x86)/microchip/xc32/v2.05/bin/bin/../../lib/gcc/pic32mx/4.8.3/../../../../pic32mx/lib\libm.a(sitofp.o)
 .reginfo       0x00000000       0x18 c:/program files (x86)/microchip/xc32/v2.05/bin/bin/../../lib/gcc/pic32mx/4.8.3/../../../../pic32mx/lib\libm.a(sitofp.o)

Memory Configuration

Name             Origin             Length             Attributes
kseg0_data_mem   0x80000000         0x00000200
kseg1_data_mem   0xa0000000         0x00008000         w !x
kseg0_boot_mem   0x9fc00490         0x00000000
kseg1_boot_mem   0xbfc00000         0x00000490
kseg0_program_mem 0x9d000000         0x0001f000         xr
exception_mem    0x9d01f000         0x00001000
debug_exec_mem   0x9fc00490         0x00000760
config3          0xbfc00bf0         0x00000004
config2          0xbfc00bf4         0x00000004
config1          0xbfc00bf8         0x00000004
config0          0xbfc00bfc         0x00000004
sfrs             0xbf800000         0x00100000
configsfrs       0xbfc00bf0         0x00000010
*default*        0x00000000         0xffffffff

Linker script and memory map


reserve_data_0_kseg0
                0x80000000      0x200
                0x80000000        0x2 SHORT 0x0
                0x000001fd                . = 0x1fd
 *fill*         0x80000002      0x1fb 
                0x80000200                . = ALIGN (0x4)
 *fill*         0x800001fd        0x3 

reserve_data_0_kseg1
                0xa0000000      0x200
                0xa0000000        0x2 SHORT 0x0
                0x000001fd                . = 0x1fd
 *fill*         0xa0000002      0x1fb 
                0xa0000200                . = ALIGN (0x4)
 *fill*         0xa00001fd        0x3 

reserve_boot_0x1fc00490_kseg0
                0x9fc00490      0x760
                0x9fc00490        0x2 SHORT 0x0
                0x00000760                . = 0x760
 *fill*         0x9fc00492      0x75e 
                0x9fc00bf0                . = ALIGN (0x4)

reserve_boot_0x1fc00490_kseg1
                0xbfc00490      0x760
                0xbfc00490        0x2 SHORT 0x0
                0x00000760                . = 0x760
 *fill*         0xbfc00492      0x75e 
                0xbfc00bf0                . = ALIGN (0x4)
LOAD c:/program files (x86)/microchip/xc32/v2.05/bin/bin/../../lib/gcc/pic32mx/4.8.3/../../../../pic32mx/lib/./proc/32MX150F128D/crt0_mips32r2.o
LOAD c:/program files (x86)/microchip/xc32/v2.05/bin/bin/../../lib/gcc/pic32mx/4.8.3/../../../../pic32mx/lib\software-debug-break.o
LOAD build/default/debug/mcc_generated_files/tmr2.o
LOAD build/default/debug/mcc_generated_files/uart1.o
LOAD build/default/debug/mcc_generated_files/interrupt_manager.o
LOAD build/default/debug/mcc_generated_files/tmr1.o
LOAD build/default/debug/mcc_generated_files/mcc.o
LOAD build/default/debug/mcc_generated_files/pin_manager.o
LOAD build/default/debug/mcc_generated_files/spi1.o
LOAD build/default/debug/mcc_generated_files/adc1.o
LOAD build/default/debug/mcc_generated_files/spi2.o
LOAD build/default/debug/nxp_reader_config_files/phApp_Init.o
LOAD build/default/debug/NxpNfcRdLib/comps/phacDiscLoop/src/Sw/phacDiscLoop_Sw.o
LOAD build/default/debug/NxpNfcRdLib/comps/phacDiscLoop/src/Sw/phacDiscLoop_Sw_Int.o
LOAD build/default/debug/NxpNfcRdLib/comps/phacDiscLoop/src/Sw/phacDiscLoop_Sw_Int_A.o
LOAD build/default/debug/NxpNfcRdLib/comps/phacDiscLoop/src/Sw/phacDiscLoop_Sw_Int_B.o
LOAD build/default/debug/NxpNfcRdLib/comps/phacDiscLoop/src/Sw/phacDiscLoop_Sw_Int_F.o
LOAD build/default/debug/NxpNfcRdLib/comps/phacDiscLoop/src/Sw/phacDiscLoop_Sw_Int_I18000p3m3.o
LOAD build/default/debug/NxpNfcRdLib/comps/phacDiscLoop/src/Sw/phacDiscLoop_Sw_Int_V.o
LOAD build/default/debug/NxpNfcRdLib/comps/phacDiscLoop/src/phacDiscLoop.o
LOAD build/default/debug/NxpNfcRdLib/comps/phalFelica/src/Sw/phalFelica_Sw.o
LOAD build/default/debug/NxpNfcRdLib/comps/phalFelica/src/phalFelica.o
LOAD build/default/debug/NxpNfcRdLib/comps/phalI15693/src/Sw/phalI15693_Sw.o
LOAD build/default/debug/NxpNfcRdLib/comps/phalI15693/src/phalI15693.o
LOAD build/default/debug/NxpNfcRdLib/comps/phalI18000p3m3/src/Sw/phalI18000p3m3_Sw.o
LOAD build/default/debug/NxpNfcRdLib/comps/phalI18000p3m3/src/Sw/phalI18000p3m3_Sw_Int.o
LOAD build/default/debug/NxpNfcRdLib/comps/phalI18000p3m3/src/phalI18000p3m3.o
LOAD build/default/debug/NxpNfcRdLib/comps/phalMfc/src/Sw/phalMfc_Sw.o
LOAD build/default/debug/NxpNfcRdLib/comps/phalMfc/src/phalMfc.o
LOAD build/default/debug/NxpNfcRdLib/comps/phalMfc/src/phalMfc_Int.o
LOAD build/default/debug/NxpNfcRdLib/comps/phalMfdf/src/Sw/phalMfdf_Sw.o
LOAD build/default/debug/NxpNfcRdLib/comps/phalMfdf/src/Sw/phalMfdf_Sw_Int.o
LOAD build/default/debug/NxpNfcRdLib/comps/phalMfdf/src/phalMfdf.o
LOAD build/default/debug/NxpNfcRdLib/comps/phalMfdf/src/phalMfdf_Int.o
LOAD build/default/debug/NxpNfcRdLib/comps/phalMful/src/Sw/phalMful_Sw.o
LOAD build/default/debug/NxpNfcRdLib/comps/phalMful/src/phalMful.o
LOAD build/default/debug/NxpNfcRdLib/comps/phalMful/src/phalMful_Int.o
LOAD build/default/debug/NxpNfcRdLib/comps/phalSli/src/Sw/phalSli_Sw.o
LOAD build/default/debug/NxpNfcRdLib/comps/phalSli/src/phalSli.o
LOAD build/default/debug/NxpNfcRdLib/comps/phalT1T/src/Sw/phalT1T_Sw.o
LOAD build/default/debug/NxpNfcRdLib/comps/phalT1T/src/phalT1T.o
LOAD build/default/debug/NxpNfcRdLib/comps/phalTop/src/Sw/phalTop_Sw.o
LOAD build/default/debug/NxpNfcRdLib/comps/phalTop/src/Sw/phalTop_Sw_Int_T1T.o
LOAD build/default/debug/NxpNfcRdLib/comps/phalTop/src/Sw/phalTop_Sw_Int_T2T.o
LOAD build/default/debug/NxpNfcRdLib/comps/phalTop/src/Sw/phalTop_Sw_Int_T3T.o
LOAD build/default/debug/NxpNfcRdLib/comps/phalTop/src/Sw/phalTop_Sw_Int_T4T.o
LOAD build/default/debug/NxpNfcRdLib/comps/phalTop/src/Sw/phalTop_Sw_Int_T5T.o
LOAD build/default/debug/NxpNfcRdLib/comps/phalTop/src/phalTop.o
LOAD build/default/debug/NxpNfcRdLib/comps/phbalReg/src/KinetisI2C/phbalReg_KinetisI2C.o
LOAD build/default/debug/NxpNfcRdLib/comps/phbalReg/src/KinetisSPI/phbalReg_KinetisSpi.o
LOAD build/default/debug/NxpNfcRdLib/comps/phbalReg/src/LinuxKernelSpi/phbalReg_LinuxKernelSpi.o
LOAD build/default/debug/NxpNfcRdLib/comps/phbalReg/src/LinuxUserI2C/phbalReg_LinuxUserI2C.o
LOAD build/default/debug/NxpNfcRdLib/comps/phbalReg/src/LinuxUserSpi/phbalReg_LinuxUserSpi.o
LOAD build/default/debug/NxpNfcRdLib/comps/phbalReg/src/LpcOpenI2C/phbalReg_LpcOpenI2c.o
LOAD build/default/debug/NxpNfcRdLib/comps/phbalReg/src/LpcOpenSPI/phbalReg_LpcOpenSpi.o
LOAD build/default/debug/NxpNfcRdLib/comps/phbalReg/src/Pic32mxSPI/phbalReg_Pic32mxSpi.o
LOAD build/default/debug/NxpNfcRdLib/comps/phbalReg/src/phbalReg.o
LOAD build/default/debug/NxpNfcRdLib/comps/phceT4T/src/Sw/phceT4T_Sw.o
LOAD build/default/debug/NxpNfcRdLib/comps/phceT4T/src/Sw/phceT4T_Sw_Int.o
LOAD build/default/debug/NxpNfcRdLib/comps/phceT4T/src/phceT4T.o
LOAD build/default/debug/NxpNfcRdLib/comps/phCidManager/src/Sw/phCidManager_Sw.o
LOAD build/default/debug/NxpNfcRdLib/comps/phCidManager/src/phCidManager.o
LOAD build/default/debug/NxpNfcRdLib/comps/phCryptoRng/src/Sw/phCryptoRng_Sw.o
LOAD build/default/debug/NxpNfcRdLib/comps/phCryptoRng/src/phCryptoRng.o
LOAD build/default/debug/NxpNfcRdLib/comps/phCryptoSym/src/Sw/phCryptoSym_Sw.o
LOAD build/default/debug/NxpNfcRdLib/comps/phCryptoSym/src/Sw/phCryptoSym_Sw_Aes.o
LOAD build/default/debug/NxpNfcRdLib/comps/phCryptoSym/src/Sw/phCryptoSym_Sw_Des.o
LOAD build/default/debug/NxpNfcRdLib/comps/phCryptoSym/src/Sw/phCryptoSym_Sw_Int.o
LOAD build/default/debug/NxpNfcRdLib/comps/phCryptoSym/src/phCryptoSym.o
LOAD build/default/debug/NxpNfcRdLib/comps/phhalHw/src/Pn5180/phhalHw_Pn5180.o
LOAD build/default/debug/NxpNfcRdLib/comps/phhalHw/src/Pn5180/phhalHw_Pn5180_Instr.o
LOAD build/default/debug/NxpNfcRdLib/comps/phhalHw/src/Pn5180/phhalHw_Pn5180_Int.o
LOAD build/default/debug/NxpNfcRdLib/comps/phhalHw/src/Pn5180/phhalHw_Pn5180_Wait.o
LOAD build/default/debug/NxpNfcRdLib/comps/phhalHw/src/PN7462AU/phhalHw_PN7462AU.o
LOAD build/default/debug/NxpNfcRdLib/comps/phhalHw/src/PN7462AU/phhalHw_PN7462AU_Int.o
LOAD build/default/debug/NxpNfcRdLib/comps/phhalHw/src/Rc523/phhalHw_Rc523.o
LOAD build/default/debug/NxpNfcRdLib/comps/phhalHw/src/Rc523/phhalHw_Rc523_Cmd.o
LOAD build/default/debug/NxpNfcRdLib/comps/phhalHw/src/Rc523/phhalHw_Rc523_Int.o
LOAD build/default/debug/NxpNfcRdLib/comps/phhalHw/src/Rc523/phhalHw_Rc523_Wait.o
LOAD build/default/debug/NxpNfcRdLib/comps/phhalHw/src/Rc663/phhalHw_Rc663.o
LOAD build/default/debug/NxpNfcRdLib/comps/phhalHw/src/Rc663/phhalHw_Rc663_Cmd.o
LOAD build/default/debug/NxpNfcRdLib/comps/phhalHw/src/Rc663/phhalHw_Rc663_Int.o
LOAD build/default/debug/NxpNfcRdLib/comps/phhalHw/src/Rc663/phhalHw_Rc663_Wait.o
LOAD build/default/debug/NxpNfcRdLib/comps/phhalHw/src/phhalHw.o
LOAD build/default/debug/NxpNfcRdLib/comps/phKeyStore/src/Rc663/phKeyStore_Rc663.o
LOAD build/default/debug/NxpNfcRdLib/comps/phKeyStore/src/Sw/phKeyStore_Sw.o
LOAD build/default/debug/NxpNfcRdLib/comps/phKeyStore/src/phKeyStore.o
LOAD build/default/debug/NxpNfcRdLib/comps/phlnLlcp/src/Sw/phlnLlcp_Sw.o
LOAD build/default/debug/NxpNfcRdLib/comps/phlnLlcp/src/Sw/phlnLlcp_Sw_Int.o
LOAD build/default/debug/NxpNfcRdLib/comps/phlnLlcp/src/Sw/phlnLlcp_Sw_Mac.o
LOAD build/default/debug/NxpNfcRdLib/comps/phlnLlcp/src/Sw/phlnLlcp_Sw_Transport.o
LOAD build/default/debug/NxpNfcRdLib/comps/phlnLlcp/src/Sw/phlnLlcp_Sw_Transport_Connection.o
LOAD build/default/debug/NxpNfcRdLib/comps/phlnLlcp/src/Sw/phlnLlcp_Sw_Transport_Connectionless.o
LOAD build/default/debug/NxpNfcRdLib/comps/phlnLlcp/src/Sw/phlnLlcp_Timers.o
LOAD build/default/debug/NxpNfcRdLib/comps/phlnLlcp/src/phlnLlcp.o
LOAD build/default/debug/NxpNfcRdLib/comps/phLog/src/phLog.o
LOAD build/default/debug/NxpNfcRdLib/comps/phNfcLib/src/phNfcLib.o
LOAD build/default/debug/NxpNfcRdLib/comps/phNfcLib/src/phNfcLib_15693.o
LOAD build/default/debug/NxpNfcRdLib/comps/phNfcLib/src/phNfcLib_18000p3m3.o
LOAD build/default/debug/NxpNfcRdLib/comps/phNfcLib/src/phNfcLib_MFC.o
LOAD build/default/debug/NxpNfcRdLib/comps/phNfcLib/src/phNfcLib_MFDF.o
LOAD build/default/debug/NxpNfcRdLib/comps/phNfcLib/src/phNfcLib_MFUL.o
LOAD build/default/debug/NxpNfcRdLib/comps/phNfcLib/src/phNfcLib_Utility.o
LOAD build/default/debug/NxpNfcRdLib/comps/phnpSnep/src/Sw/phnpSnep_Sw.o
LOAD build/default/debug/NxpNfcRdLib/comps/phnpSnep/src/phnpSnep.o
LOAD build/default/debug/NxpNfcRdLib/comps/phOsal/src/Freertos/phOsal_Freertos.o
LOAD build/default/debug/NxpNfcRdLib/comps/phOsal/src/Linux/phOsal_Linux.o
LOAD build/default/debug/NxpNfcRdLib/comps/phOsal/src/NullOs/phOsal_NullOs.o
LOAD build/default/debug/NxpNfcRdLib/comps/phpalEpcUid/src/Sw/phpalEpcUid_Sw.o
LOAD build/default/debug/NxpNfcRdLib/comps/phpalEpcUid/src/phpalEpcUid.o
LOAD build/default/debug/NxpNfcRdLib/comps/phpalFelica/src/Sw/phpalFelica_Sw.o
LOAD build/default/debug/NxpNfcRdLib/comps/phpalFelica/src/phpalFelica.o
LOAD build/default/debug/NxpNfcRdLib/comps/phpalI14443p3a/src/Sw/phpalI14443p3a_Sw.o
LOAD build/default/debug/NxpNfcRdLib/comps/phpalI14443p3a/src/phpalI14443p3a.o
LOAD build/default/debug/NxpNfcRdLib/comps/phpalI14443p3b/src/Sw/phpalI14443p3b_Sw.o
LOAD build/default/debug/NxpNfcRdLib/comps/phpalI14443p3b/src/phpalI14443p3b.o
LOAD build/default/debug/NxpNfcRdLib/comps/phpalI14443p4/src/Sw/phpalI14443p4_Sw.o
LOAD build/default/debug/NxpNfcRdLib/comps/phpalI14443p4/src/phpalI14443p4.o
LOAD build/default/debug/NxpNfcRdLib/comps/phpalI14443p4a/src/Sw/phpalI14443p4a_Sw.o
LOAD build/default/debug/NxpNfcRdLib/comps/phpalI14443p4a/src/phpalI14443p4a.o
LOAD build/default/debug/NxpNfcRdLib/comps/phpalI14443p4mC/src/Sw/phpalI14443p4mC_Sw.o
LOAD build/default/debug/NxpNfcRdLib/comps/phpalI14443p4mC/src/Sw/phpalI14443p4mC_Sw_Int.o
LOAD build/default/debug/NxpNfcRdLib/comps/phpalI14443p4mC/src/phpalI14443p4mC.o
LOAD build/default/debug/NxpNfcRdLib/comps/phpalI18000p3m3/src/Sw/phpalI18000p3m3_Sw.o
LOAD build/default/debug/NxpNfcRdLib/comps/phpalI18000p3m3/src/phpalI18000p3m3.o
LOAD build/default/debug/NxpNfcRdLib/comps/phpalI18092mPI/src/Sw/phpalI18092mPI_Sw.o
LOAD build/default/debug/NxpNfcRdLib/comps/phpalI18092mPI/src/Sw/phpalI18092mPI_Sw_Int.o
LOAD build/default/debug/NxpNfcRdLib/comps/phpalI18092mPI/src/phpalI18092mPI.o
LOAD build/default/debug/NxpNfcRdLib/comps/phpalI18092mT/src/Sw/phpalI18092mT_Sw.o
LOAD build/default/debug/NxpNfcRdLib/comps/phpalI18092mT/src/Sw/phpalI18092mT_Sw_Int.o
LOAD build/default/debug/NxpNfcRdLib/comps/phpalI18092mT/src/phpalI18092mT.o
LOAD build/default/debug/NxpNfcRdLib/comps/phpalMifare/src/Sw/phpalMifare_Sw.o
LOAD build/default/debug/NxpNfcRdLib/comps/phpalMifare/src/phpalMifare.o
LOAD build/default/debug/NxpNfcRdLib/comps/phpalSli15693/src/Sw/phpalSli15693_Sw.o
LOAD build/default/debug/NxpNfcRdLib/comps/phpalSli15693/src/phpalSli15693.o
LOAD build/default/debug/NxpNfcRdLib/comps/phPlatform/src/Port/K81/phPlatform_Port_K81.o
LOAD build/default/debug/NxpNfcRdLib/comps/phPlatform/src/Port/K81/phPlatform_Port_KinetisTimer.o
LOAD build/default/debug/NxpNfcRdLib/comps/phPlatform/src/Port/K82/phPlatform_Port_K82.o
LOAD build/default/debug/NxpNfcRdLib/comps/phPlatform/src/Port/K82/phPlatform_Port_K82Timer.o
LOAD build/default/debug/NxpNfcRdLib/comps/phPlatform/src/Port/LPC11u68/cr_startup_lpc11u6x.o
LOAD build/default/debug/NxpNfcRdLib/comps/phPlatform/src/Port/LPC11u68/phPlatform_Port_LPC11u68.o
LOAD build/default/debug/NxpNfcRdLib/comps/phPlatform/src/Port/LPC1769/cr_startup_lpc175x_6x.o
LOAD build/default/debug/NxpNfcRdLib/comps/phPlatform/src/Port/LPC1769/keil_iar_sysinit.o
LOAD build/default/debug/NxpNfcRdLib/comps/phPlatform/src/Port/LPC1769/phPlatform_Port_LPC1769.o
LOAD build/default/debug/NxpNfcRdLib/comps/phPlatform/src/Port/LPCTimer/phPlatform_Port_LPCTimer.o
LOAD build/default/debug/NxpNfcRdLib/comps/phPlatform/src/Port/PIC32MX/phPlatform_Port_PIC32MX.o
LOAD build/default/debug/NxpNfcRdLib/comps/phPlatform/src/Port/PIC32MX/phPlatform_Port_PIC32MXTimer.o
LOAD build/default/debug/NxpNfcRdLib/comps/phPlatform/src/Port/PN7462AU/phPlatform_Port_PN7462AU.o
LOAD build/default/debug/NxpNfcRdLib/comps/phPlatform/src/Port/RaspberryPi/phPlatform_Port_Pi.o
LOAD build/default/debug/NxpNfcRdLib/comps/phPlatform/src/Port/RaspberryPi/phPlatform_Port_PiGpio.o
LOAD build/default/debug/NxpNfcRdLib/comps/phPlatform/src/phPlatform.o
LOAD build/default/debug/NxpNfcRdLib/comps/phTools/src/phTools.o
LOAD build/default/debug/NxpNfcRdLib/comps/phTools/src/phTools_Q.o
LOAD build/default/debug/main.o
                0x00000001                __MPLAB_BUILD = 0x1
                0x00000001                __MPLAB_DEBUG = 0x1
                0x00000001                __DEBUG = 0x1
                0x00000001                ICD3PlatformTool = 0x1
LOAD c:/program files (x86)/microchip/xc32/v2.05/bin/bin/../../lib/gcc/pic32mx/4.8.3/../../../../pic32mx/lib/./proc/32MX150F128D\default_isr_vectors.o
LOAD c:/program files (x86)/microchip/xc32/v2.05/bin/bin/../../lib/gcc/pic32mx/4.8.3/../../../../pic32mx/lib\pic32_software_reset.o
                0x00000400                PROVIDE (_min_stack_size, 0x400)
LOAD c:/program files (x86)/microchip/xc32/v2.05/bin/bin/../../lib/gcc/pic32mx/4.8.3/../../../../pic32mx/lib/./proc/32MX150F128D\processor.o
START GROUP
LOAD libmchp_peripheral.a
END GROUP
START GROUP
LOAD libmchp_peripheral_32MX150F128D.a
END GROUP
                0x00000001                PROVIDE (_vector_spacing, 0x1)
                0x9d01f000                PROVIDE (_ebase_address, 0x9d01f000)
                0xbfc00000                _RESET_ADDR = 0xbfc00000
                0xbfc00380                _BEV_EXCPT_ADDR = 0xbfc00380
                0xbfc00480                _DBG_EXCPT_ADDR = 0xbfc00480
                0x9fc00490                _DBG_CODE_ADDR = 0x9fc00490
                0x00000760                _DBG_CODE_SIZE = 0x760
                0x9d01f180                _GEN_EXCPT_ADDR = (_ebase_address + 0x180)

.config_BFC00BF0
                0xbfc00bf0        0x4
 *(.config_BFC00BF0)
 .config_BFC00BF0
                0xbfc00bf0        0x4 build/default/debug/mcc_generated_files/mcc.o

.config_BFC00BF4
                0xbfc00bf4        0x4
 *(.config_BFC00BF4)
 .config_BFC00BF4
                0xbfc00bf4        0x4 build/default/debug/mcc_generated_files/mcc.o

.config_BFC00BF8
                0xbfc00bf8        0x4
 *(.config_BFC00BF8)
 .config_BFC00BF8
                0xbfc00bf8        0x4 build/default/debug/mcc_generated_files/mcc.o

.config_BFC00BFC
                0xbfc00bfc        0x4
 *(.config_BFC00BFC)
 .config_BFC00BFC
                0xbfc00bfc        0x4 build/default/debug/mcc_generated_files/mcc.o
                0xbfc02000                PROVIDE (_DBG_CODE_ADDR, 0xbfc02000)
                0x00000ff0                PROVIDE (_DBG_CODE_SIZE, 0xff0)

.reset          0xbfc00000      0x1e4
 *(.reset)
 .reset         0xbfc00000        0x8 c:/program files (x86)/microchip/xc32/v2.05/bin/bin/../../lib/gcc/pic32mx/4.8.3/../../../../pic32mx/lib/./proc/32MX150F128D/crt0_mips32r2.o
                0xbfc00000                _reset
 *(.reset.startup)
 .reset.startup
                0xbfc00008      0x1dc c:/program files (x86)/microchip/xc32/v2.05/bin/bin/../../lib/gcc/pic32mx/4.8.3/../../../../pic32mx/lib/./proc/32MX150F128D/crt0_mips32r2.o
                0xbfc00008                _startup

.bev_excpt      0xbfc00380       0x10
 *(.bev_handler)
 .bev_handler   0xbfc00380       0x10 c:/program files (x86)/microchip/xc32/v2.05/bin/bin/../../lib/gcc/pic32mx/4.8.3/../../../../pic32mx/lib/./proc/32MX150F128D/crt0_mips32r2.o

.dbg_excpt      0xbfc00480        0x0
                0xbfc00480                . = (. + DEFINED (_DEBUGGER)?0x8:0x0)

.dbg_code       0x9fc00490        0x0
                0x9fc00490                . = (. + DEFINED (_DEBUGGER)?_DBG_CODE_SIZE:0x0)

.app_excpt      0x9d01f180       0x10
 *(.gen_handler)
 .gen_handler   0x9d01f180       0x10 c:/program files (x86)/microchip/xc32/v2.05/bin/bin/../../lib/gcc/pic32mx/4.8.3/../../../../pic32mx/lib/./proc/32MX150F128D/crt0_mips32r2.o

.vector_0       0x9d01f200        0x8
 *(.vector_0)
 .vector_0      0x9d01f200        0x8 c:/program files (x86)/microchip/xc32/v2.05/bin/bin/../../lib/gcc/pic32mx/4.8.3/../../../../pic32mx/lib\libpic32.a(vector0.o)
                0x9d01f200                __vector_dispatch_0
                0x00000001                ASSERT (((_vector_spacing == 0x0) || (SIZEOF (.vector_0) <= (_vector_spacing << 0x5))), function at exception vector 0 too large)

.vector_1       0x9d01f220        0x8
 *(.vector_1)
 .vector_1      0x9d01f220        0x8 c:/program files (x86)/microchip/xc32/v2.05/bin/bin/../../lib/gcc/pic32mx/4.8.3/../../../../pic32mx/lib\libpic32.a(vector1.o)
                0x9d01f220                __vector_dispatch_1
                0x00000001                ASSERT (((_vector_spacing == 0x0) || (SIZEOF (.vector_1) <= (_vector_spacing << 0x5))), function at exception vector 1 too large)

.vector_2       0x9d01f240        0x8
 *(.vector_2)
 .vector_2      0x9d01f240        0x8 c:/program files (x86)/microchip/xc32/v2.05/bin/bin/../../lib/gcc/pic32mx/4.8.3/../../../../pic32mx/lib\libpic32.a(vector2.o)
                0x9d01f240                __vector_dispatch_2
                0x00000001                ASSERT (((_vector_spacing == 0x0) || (SIZEOF (.vector_2) <= (_vector_spacing << 0x5))), function at exception vector 2 too large)

.vector_3       0x9d01f260        0x8
 *(.vector_3)
 .vector_3      0x9d01f260        0x8 c:/program files (x86)/microchip/xc32/v2.05/bin/bin/../../lib/gcc/pic32mx/4.8.3/../../../../pic32mx/lib\libpic32.a(vector3.o)
                0x9d01f260                __vector_dispatch_3
                0x00000001                ASSERT (((_vector_spacing == 0x0) || (SIZEOF (.vector_3) <= (_vector_spacing << 0x5))), function at exception vector 3 too large)

.vector_4       0x9d01f280        0x8
 *(.vector_4)
 .vector_4      0x9d01f280        0x8 build/default/debug/mcc_generated_files/tmr1.o
                0x9d01f280                __vector_dispatch_4
                0x00000001                ASSERT (((_vector_spacing == 0x0) || (SIZEOF (.vector_4) <= (_vector_spacing << 0x5))), function at exception vector 4 too large)

.vector_5       0x9d01f2a0        0x8
 *(.vector_5)
 .vector_5      0x9d01f2a0        0x8 c:/program files (x86)/microchip/xc32/v2.05/bin/bin/../../lib/gcc/pic32mx/4.8.3/../../../../pic32mx/lib\libpic32.a(vector5.o)
                0x9d01f2a0                __vector_dispatch_5
                0x00000001                ASSERT (((_vector_spacing == 0x0) || (SIZEOF (.vector_5) <= (_vector_spacing << 0x5))), function at exception vector 5 too large)

.vector_6       0x9d01f2c0        0x8
 *(.vector_6)
 .vector_6      0x9d01f2c0        0x8 c:/program files (x86)/microchip/xc32/v2.05/bin/bin/../../lib/gcc/pic32mx/4.8.3/../../../../pic32mx/lib\libpic32.a(vector6.o)
                0x9d01f2c0                __vector_dispatch_6
                0x00000001                ASSERT (((_vector_spacing == 0x0) || (SIZEOF (.vector_6) <= (_vector_spacing << 0x5))), function at exception vector 6 too large)

.vector_7       0x9d01f2e0        0x8
 *(.vector_7)
 .vector_7      0x9d01f2e0        0x8 c:/program files (x86)/microchip/xc32/v2.05/bin/bin/../../lib/gcc/pic32mx/4.8.3/../../../../pic32mx/lib\libpic32.a(vector7.o)
                0x9d01f2e0                __vector_dispatch_7
                0x00000001                ASSERT (((_vector_spacing == 0x0) || (SIZEOF (.vector_7) <= (_vector_spacing << 0x5))), function at exception vector 7 too large)

.vector_8       0x9d01f300        0x8
 *(.vector_8)
 .vector_8      0x9d01f300        0x8 build/default/debug/mcc_generated_files/tmr2.o
                0x9d01f300                __vector_dispatch_8
                0x00000001                ASSERT (((_vector_spacing == 0x0) || (SIZEOF (.vector_8) <= (_vector_spacing << 0x5))), function at exception vector 8 too large)

.vector_9       0x9d01f320        0x8
 *(.vector_9)
 .vector_9      0x9d01f320        0x8 c:/program files (x86)/microchip/xc32/v2.05/bin/bin/../../lib/gcc/pic32mx/4.8.3/../../../../pic32mx/lib\libpic32.a(vector9.o)
                0x9d01f320                __vector_dispatch_9
                0x00000001                ASSERT (((_vector_spacing == 0x0) || (SIZEOF (.vector_9) <= (_vector_spacing << 0x5))), function at exception vector 9 too large)

.vector_10      0x9d01f340        0x8
 *(.vector_10)
 .vector_10     0x9d01f340        0x8 c:/program files (x86)/microchip/xc32/v2.05/bin/bin/../../lib/gcc/pic32mx/4.8.3/../../../../pic32mx/lib\libpic32.a(vector10.o)
                0x9d01f340                __vector_dispatch_10
                0x00000001                ASSERT (((_vector_spacing == 0x0) || (SIZEOF (.vector_10) <= (_vector_spacing << 0x5))), function at exception vector 10 too large)

.vector_11      0x9d01f360        0x8
 *(.vector_11)
 .vector_11     0x9d01f360        0x8 c:/program files (x86)/microchip/xc32/v2.05/bin/bin/../../lib/gcc/pic32mx/4.8.3/../../../../pic32mx/lib\libpic32.a(vector11.o)
                0x9d01f360                __vector_dispatch_11
                0x00000001                ASSERT (((_vector_spacing == 0x0) || (SIZEOF (.vector_11) <= (_vector_spacing << 0x5))), function at exception vector 11 too large)

.vector_12      0x9d01f380        0x8
 *(.vector_12)
 .vector_12     0x9d01f380        0x8 c:/program files (x86)/microchip/xc32/v2.05/bin/bin/../../lib/gcc/pic32mx/4.8.3/../../../../pic32mx/lib\libpic32.a(vector12.o)
                0x9d01f380                __vector_dispatch_12
                0x00000001                ASSERT (((_vector_spacing == 0x0) || (SIZEOF (.vector_12) <= (_vector_spacing << 0x5))), function at exception vector 12 too large)

.vector_13      0x9d01f3a0        0x8
 *(.vector_13)
 .vector_13     0x9d01f3a0        0x8 c:/program files (x86)/microchip/xc32/v2.05/bin/bin/../../lib/gcc/pic32mx/4.8.3/../../../../pic32mx/lib\libpic32.a(vector13.o)
                0x9d01f3a0                __vector_dispatch_13
                0x00000001                ASSERT (((_vector_spacing == 0x0) || (SIZEOF (.vector_13) <= (_vector_spacing << 0x5))), function at exception vector 13 too large)

.vector_14      0x9d01f3c0        0x8
 *(.vector_14)
 .vector_14     0x9d01f3c0        0x8 c:/program files (x86)/microchip/xc32/v2.05/bin/bin/../../lib/gcc/pic32mx/4.8.3/../../../../pic32mx/lib\libpic32.a(vector14.o)
                0x9d01f3c0                __vector_dispatch_14
                0x00000001                ASSERT (((_vector_spacing == 0x0) || (SIZEOF (.vector_14) <= (_vector_spacing << 0x5))), function at exception vector 14 too large)

.vector_15      0x9d01f3e0        0x8
 *(.vector_15)
 .vector_15     0x9d01f3e0        0x8 c:/program files (x86)/microchip/xc32/v2.05/bin/bin/../../lib/gcc/pic32mx/4.8.3/../../../../pic32mx/lib\libpic32.a(vector15.o)
                0x9d01f3e0                __vector_dispatch_15
                0x00000001                ASSERT (((_vector_spacing == 0x0) || (SIZEOF (.vector_15) <= (_vector_spacing << 0x5))), function at exception vector 15 too large)

.vector_16      0x9d01f400        0x8
 *(.vector_16)
 .vector_16     0x9d01f400        0x8 c:/program files (x86)/microchip/xc32/v2.05/bin/bin/../../lib/gcc/pic32mx/4.8.3/../../../../pic32mx/lib\libpic32.a(vector16.o)
                0x9d01f400                __vector_dispatch_16
                0x00000001                ASSERT (((_vector_spacing == 0x0) || (SIZEOF (.vector_16) <= (_vector_spacing << 0x5))), function at exception vector 16 too large)

.vector_17      0x9d01f420        0x8
 *(.vector_17)
 .vector_17     0x9d01f420        0x8 c:/program files (x86)/microchip/xc32/v2.05/bin/bin/../../lib/gcc/pic32mx/4.8.3/../../../../pic32mx/lib\libpic32.a(vector17.o)
                0x9d01f420                __vector_dispatch_17
                0x00000001                ASSERT (((_vector_spacing == 0x0) || (SIZEOF (.vector_17) <= (_vector_spacing << 0x5))), function at exception vector 17 too large)

.vector_18      0x9d01f440        0x8
 *(.vector_18)
 .vector_18     0x9d01f440        0x8 c:/program files (x86)/microchip/xc32/v2.05/bin/bin/../../lib/gcc/pic32mx/4.8.3/../../../../pic32mx/lib\libpic32.a(vector18.o)
                0x9d01f440                __vector_dispatch_18
                0x00000001                ASSERT (((_vector_spacing == 0x0) || (SIZEOF (.vector_18) <= (_vector_spacing << 0x5))), function at exception vector 18 too large)

.vector_19      0x9d01f460        0x8
 *(.vector_19)
 .vector_19     0x9d01f460        0x8 c:/program files (x86)/microchip/xc32/v2.05/bin/bin/../../lib/gcc/pic32mx/4.8.3/../../../../pic32mx/lib\libpic32.a(vector19.o)
                0x9d01f460                __vector_dispatch_19
                0x00000001                ASSERT (((_vector_spacing == 0x0) || (SIZEOF (.vector_19) <= (_vector_spacing << 0x5))), function at exception vector 19 too large)

.vector_20      0x9d01f480        0x8
 *(.vector_20)
 .vector_20     0x9d01f480        0x8 c:/program files (x86)/microchip/xc32/v2.05/bin/bin/../../lib/gcc/pic32mx/4.8.3/../../../../pic32mx/lib\libpic32.a(vector20.o)
                0x9d01f480                __vector_dispatch_20
                0x00000001                ASSERT (((_vector_spacing == 0x0) || (SIZEOF (.vector_20) <= (_vector_spacing << 0x5))), function at exception vector 20 too large)

.vector_21      0x9d01f4a0        0x8
 *(.vector_21)
 .vector_21     0x9d01f4a0        0x8 c:/program files (x86)/microchip/xc32/v2.05/bin/bin/../../lib/gcc/pic32mx/4.8.3/../../../../pic32mx/lib\libpic32.a(vector21.o)
                0x9d01f4a0                __vector_dispatch_21
                0x00000001                ASSERT (((_vector_spacing == 0x0) || (SIZEOF (.vector_21) <= (_vector_spacing << 0x5))), function at exception vector 21 too large)

.vector_22      0x9d01f4c0        0x8
 *(.vector_22)
 .vector_22     0x9d01f4c0        0x8 c:/program files (x86)/microchip/xc32/v2.05/bin/bin/../../lib/gcc/pic32mx/4.8.3/../../../../pic32mx/lib\libpic32.a(vector22.o)
                0x9d01f4c0                __vector_dispatch_22
                0x00000001                ASSERT (((_vector_spacing == 0x0) || (SIZEOF (.vector_22) <= (_vector_spacing << 0x5))), function at exception vector 22 too large)

.vector_23      0x9d01f4e0        0x8
 *(.vector_23)
 .vector_23     0x9d01f4e0        0x8 build/default/debug/mcc_generated_files/adc1.o
                0x9d01f4e0                __vector_dispatch_23
                0x00000001                ASSERT (((_vector_spacing == 0x0) || (SIZEOF (.vector_23) <= (_vector_spacing << 0x5))), function at exception vector 23 too large)

.vector_24      0x9d01f500        0x8
 *(.vector_24)
 .vector_24     0x9d01f500        0x8 c:/program files (x86)/microchip/xc32/v2.05/bin/bin/../../lib/gcc/pic32mx/4.8.3/../../../../pic32mx/lib\libpic32.a(vector24.o)
                0x9d01f500                __vector_dispatch_24
                0x00000001                ASSERT (((_vector_spacing == 0x0) || (SIZEOF (.vector_24) <= (_vector_spacing << 0x5))), function at exception vector 24 too large)

.vector_25      0x9d01f520        0x8
 *(.vector_25)
 .vector_25     0x9d01f520        0x8 c:/program files (x86)/microchip/xc32/v2.05/bin/bin/../../lib/gcc/pic32mx/4.8.3/../../../../pic32mx/lib\libpic32.a(vector25.o)
                0x9d01f520                __vector_dispatch_25
                0x00000001                ASSERT (((_vector_spacing == 0x0) || (SIZEOF (.vector_25) <= (_vector_spacing << 0x5))), function at exception vector 25 too large)

.vector_26      0x9d01f540        0x8
 *(.vector_26)
 .vector_26     0x9d01f540        0x8 c:/program files (x86)/microchip/xc32/v2.05/bin/bin/../../lib/gcc/pic32mx/4.8.3/../../../../pic32mx/lib\libpic32.a(vector26.o)
                0x9d01f540                __vector_dispatch_26
                0x00000001                ASSERT (((_vector_spacing == 0x0) || (SIZEOF (.vector_26) <= (_vector_spacing << 0x5))), function at exception vector 26 too large)

.vector_27      0x9d01f560        0x8
 *(.vector_27)
 .vector_27     0x9d01f560        0x8 c:/program files (x86)/microchip/xc32/v2.05/bin/bin/../../lib/gcc/pic32mx/4.8.3/../../../../pic32mx/lib\libpic32.a(vector27.o)
                0x9d01f560                __vector_dispatch_27
                0x00000001                ASSERT (((_vector_spacing == 0x0) || (SIZEOF (.vector_27) <= (_vector_spacing << 0x5))), function at exception vector 27 too large)

.vector_28      0x9d01f580        0x8
 *(.vector_28)
 .vector_28     0x9d01f580        0x8 c:/program files (x86)/microchip/xc32/v2.05/bin/bin/../../lib/gcc/pic32mx/4.8.3/../../../../pic32mx/lib\libpic32.a(vector28.o)
                0x9d01f580                __vector_dispatch_28
                0x00000001                ASSERT (((_vector_spacing == 0x0) || (SIZEOF (.vector_28) <= (_vector_spacing << 0x5))), function at exception vector 28 too large)

.vector_29      0x9d01f5a0        0x8
 *(.vector_29)
 .vector_29     0x9d01f5a0        0x8 c:/program files (x86)/microchip/xc32/v2.05/bin/bin/../../lib/gcc/pic32mx/4.8.3/../../../../pic32mx/lib\libpic32.a(vector29.o)
                0x9d01f5a0                __vector_dispatch_29
                0x00000001                ASSERT (((_vector_spacing == 0x0) || (SIZEOF (.vector_29) <= (_vector_spacing << 0x5))), function at exception vector 29 too large)

.vector_30      0x9d01f5c0        0x8
 *(.vector_30)
 .vector_30     0x9d01f5c0        0x8 c:/program files (x86)/microchip/xc32/v2.05/bin/bin/../../lib/gcc/pic32mx/4.8.3/../../../../pic32mx/lib\libpic32.a(vector30.o)
                0x9d01f5c0                __vector_dispatch_30
                0x00000001                ASSERT (((_vector_spacing == 0x0) || (SIZEOF (.vector_30) <= (_vector_spacing << 0x5))), function at exception vector 30 too large)

.vector_31      0x9d01f5e0        0x8
 *(.vector_31)
 .vector_31     0x9d01f5e0        0x8 c:/program files (x86)/microchip/xc32/v2.05/bin/bin/../../lib/gcc/pic32mx/4.8.3/../../../../pic32mx/lib\libpic32.a(vector31.o)
                0x9d01f5e0                __vector_dispatch_31
                0x00000001                ASSERT (((_vector_spacing == 0x0) || (SIZEOF (.vector_31) <= (_vector_spacing << 0x5))), function at exception vector 31 too large)

.vector_32      0x9d01f600        0x8
 *(.vector_32)
 .vector_32     0x9d01f600        0x8 build/default/debug/mcc_generated_files/uart1.o
                0x9d01f600                __vector_dispatch_32
                0x00000001                ASSERT (((_vector_spacing == 0x0) || (SIZEOF (.vector_32) <= (_vector_spacing << 0x5))), function at exception vector 32 too large)

.vector_33      0x9d01f620        0x8
 *(.vector_33)
 .vector_33     0x9d01f620        0x8 c:/program files (x86)/microchip/xc32/v2.05/bin/bin/../../lib/gcc/pic32mx/4.8.3/../../../../pic32mx/lib\libpic32.a(vector33.o)
                0x9d01f620                __vector_dispatch_33
                0x00000001                ASSERT (((_vector_spacing == 0x0) || (SIZEOF (.vector_33) <= (_vector_spacing << 0x5))), function at exception vector 33 too large)

.vector_34      0x9d01f640        0x8
 *(.vector_34)
 .vector_34     0x9d01f640        0x8 build/default/debug/mcc_generated_files/pin_manager.o
                0x9d01f640                __vector_dispatch_34
                0x00000001                ASSERT (((_vector_spacing == 0x0) || (SIZEOF (.vector_34) <= (_vector_spacing << 0x5))), function at exception vector 34 too large)

.vector_35      0x9d01f660        0x8
 *(.vector_35)
 .vector_35     0x9d01f660        0x8 c:/program files (x86)/microchip/xc32/v2.05/bin/bin/../../lib/gcc/pic32mx/4.8.3/../../../../pic32mx/lib\libpic32.a(vector35.o)
                0x9d01f660                __vector_dispatch_35
                0x00000001                ASSERT (((_vector_spacing == 0x0) || (SIZEOF (.vector_35) <= (_vector_spacing << 0x5))), function at exception vector 35 too large)

.vector_36      0x9d01f680        0x8
 *(.vector_36)
 .vector_36     0x9d01f680        0x8 c:/program files (x86)/microchip/xc32/v2.05/bin/bin/../../lib/gcc/pic32mx/4.8.3/../../../../pic32mx/lib\libpic32.a(vector36.o)
                0x9d01f680                __vector_dispatch_36
                0x00000001                ASSERT (((_vector_spacing == 0x0) || (SIZEOF (.vector_36) <= (_vector_spacing << 0x5))), function at exception vector 36 too large)

.vector_37      0x9d01f6a0        0x8
 *(.vector_37)
 .vector_37     0x9d01f6a0        0x8 c:/program files (x86)/microchip/xc32/v2.05/bin/bin/../../lib/gcc/pic32mx/4.8.3/../../../../pic32mx/lib\libpic32.a(vector37.o)
                0x9d01f6a0                __vector_dispatch_37
                0x00000001                ASSERT (((_vector_spacing == 0x0) || (SIZEOF (.vector_37) <= (_vector_spacing << 0x5))), function at exception vector 37 too large)

.vector_38      0x9d01f6c0        0x8
 *(.vector_38)
 .vector_38     0x9d01f6c0        0x8 c:/program files (x86)/microchip/xc32/v2.05/bin/bin/../../lib/gcc/pic32mx/4.8.3/../../../../pic32mx/lib\libpic32.a(vector38.o)
                0x9d01f6c0                __vector_dispatch_38
                0x00000001                ASSERT (((_vector_spacing == 0x0) || (SIZEOF (.vector_38) <= (_vector_spacing << 0x5))), function at exception vector 38 too large)

.vector_39      0x9d01f6e0        0x8
 *(.vector_39)
 .vector_39     0x9d01f6e0        0x8 c:/program files (x86)/microchip/xc32/v2.05/bin/bin/../../lib/gcc/pic32mx/4.8.3/../../../../pic32mx/lib\libpic32.a(vector39.o)
                0x9d01f6e0                __vector_dispatch_39
                0x00000001                ASSERT (((_vector_spacing == 0x0) || (SIZEOF (.vector_39) <= (_vector_spacing << 0x5))), function at exception vector 39 too large)

.vector_40      0x9d01f700        0x8
 *(.vector_40)
 .vector_40     0x9d01f700        0x8 c:/program files (x86)/microchip/xc32/v2.05/bin/bin/../../lib/gcc/pic32mx/4.8.3/../../../../pic32mx/lib\libpic32.a(vector40.o)
                0x9d01f700                __vector_dispatch_40
                0x00000001                ASSERT (((_vector_spacing == 0x0) || (SIZEOF (.vector_40) <= (_vector_spacing << 0x5))), function at exception vector 40 too large)

.vector_41      0x9d01f720        0x8
 *(.vector_41)
 .vector_41     0x9d01f720        0x8 c:/program files (x86)/microchip/xc32/v2.05/bin/bin/../../lib/gcc/pic32mx/4.8.3/../../../../pic32mx/lib\libpic32.a(vector41.o)
                0x9d01f720                __vector_dispatch_41
                0x00000001                ASSERT (((_vector_spacing == 0x0) || (SIZEOF (.vector_41) <= (_vector_spacing << 0x5))), function at exception vector 41 too large)

.vector_42      0x9d01f740        0x8
 *(.vector_42)
 .vector_42     0x9d01f740        0x8 c:/program files (x86)/microchip/xc32/v2.05/bin/bin/../../lib/gcc/pic32mx/4.8.3/../../../../pic32mx/lib\libpic32.a(vector42.o)
                0x9d01f740                __vector_dispatch_42
                0x00000001                ASSERT (((_vector_spacing == 0x0) || (SIZEOF (.vector_42) <= (_vector_spacing << 0x5))), function at exception vector 42 too large)

.vector_43      0x9d01f760        0x8
 *(.vector_43)
 .vector_43     0x9d01f760        0x8 c:/program files (x86)/microchip/xc32/v2.05/bin/bin/../../lib/gcc/pic32mx/4.8.3/../../../../pic32mx/lib\libpic32.a(vector43.o)
                0x9d01f760                __vector_dispatch_43
                0x00000001                ASSERT (((_vector_spacing == 0x0) || (SIZEOF (.vector_43) <= (_vector_spacing << 0x5))), function at exception vector 43 too large)

.vector_44      0x9d01f780        0x0
 *(.vector_44)
                0x00000001                ASSERT (((_vector_spacing == 0x0) || (SIZEOF (.vector_44) <= (_vector_spacing << 0x5))), function at exception vector 44 too large)

.vector_45      0x9d01f7a0        0x0
 *(.vector_45)
                0x00000001                ASSERT (((_vector_spacing == 0x0) || (SIZEOF (.vector_45) <= (_vector_spacing << 0x5))), function at exception vector 45 too large)

.vector_46      0x9d01f7c0        0x0
 *(.vector_46)
                0x00000001                ASSERT (((_vector_spacing == 0x0) || (SIZEOF (.vector_46) <= (_vector_spacing << 0x5))), function at exception vector 46 too large)

.vector_47      0x9d01f7e0        0x0
 *(.vector_47)
                0x00000001                ASSERT (((_vector_spacing == 0x0) || (SIZEOF (.vector_47) <= (_vector_spacing << 0x5))), function at exception vector 47 too large)

.vector_48      0x9d01f800        0x0
 *(.vector_48)
                0x00000001                ASSERT (((_vector_spacing == 0x0) || (SIZEOF (.vector_48) <= (_vector_spacing << 0x5))), function at exception vector 48 too large)

.vector_49      0x9d01f820        0x0
 *(.vector_49)
                0x00000001                ASSERT (((_vector_spacing == 0x0) || (SIZEOF (.vector_49) <= (_vector_spacing << 0x5))), function at exception vector 49 too large)

.vector_50      0x9d01f840        0x0
 *(.vector_50)
                0x00000001                ASSERT (((_vector_spacing == 0x0) || (SIZEOF (.vector_50) <= (_vector_spacing << 0x5))), function at exception vector 50 too large)

.vector_51      0x9d01f860        0x0
 *(.vector_51)
                0x00000001                ASSERT (((_vector_spacing == 0x0) || (SIZEOF (.vector_51) <= (_vector_spacing << 0x5))), function at exception vector 51 too large)

.vector_52      0x9d01f880        0x0
 *(.vector_52)
                0x00000001                ASSERT (((_vector_spacing == 0x0) || (SIZEOF (.vector_52) <= (_vector_spacing << 0x5))), function at exception vector 52 too large)

.vector_53      0x9d01f8a0        0x0
 *(.vector_53)
                0x00000001                ASSERT (((_vector_spacing == 0x0) || (SIZEOF (.vector_53) <= (_vector_spacing << 0x5))), function at exception vector 53 too large)

.vector_54      0x9d01f8c0        0x0
 *(.vector_54)
                0x00000001                ASSERT (((_vector_spacing == 0x0) || (SIZEOF (.vector_54) <= (_vector_spacing << 0x5))), function at exception vector 54 too large)

.vector_55      0x9d01f8e0        0x0
 *(.vector_55)
                0x00000001                ASSERT (((_vector_spacing == 0x0) || (SIZEOF (.vector_55) <= (_vector_spacing << 0x5))), function at exception vector 55 too large)

.vector_56      0x9d01f900        0x0
 *(.vector_56)
                0x00000001                ASSERT (((_vector_spacing == 0x0) || (SIZEOF (.vector_56) <= (_vector_spacing << 0x5))), function at exception vector 56 too large)

.vector_57      0x9d01f920        0x0
 *(.vector_57)
                0x00000001                ASSERT (((_vector_spacing == 0x0) || (SIZEOF (.vector_57) <= (_vector_spacing << 0x5))), function at exception vector 57 too large)

.vector_58      0x9d01f940        0x0
 *(.vector_58)
                0x00000001                ASSERT (((_vector_spacing == 0x0) || (SIZEOF (.vector_58) <= (_vector_spacing << 0x5))), function at exception vector 58 too large)

.vector_59      0x9d01f960        0x0
 *(.vector_59)
                0x00000001                ASSERT (((_vector_spacing == 0x0) || (SIZEOF (.vector_59) <= (_vector_spacing << 0x5))), function at exception vector 59 too large)

.vector_60      0x9d01f980        0x0
 *(.vector_60)
                0x00000001                ASSERT (((_vector_spacing == 0x0) || (SIZEOF (.vector_60) <= (_vector_spacing << 0x5))), function at exception vector 60 too large)

.vector_61      0x9d01f9a0        0x0
 *(.vector_61)
                0x00000001                ASSERT (((_vector_spacing == 0x0) || (SIZEOF (.vector_61) <= (_vector_spacing << 0x5))), function at exception vector 61 too large)

.vector_62      0x9d01f9c0        0x0
 *(.vector_62)
                0x00000001                ASSERT (((_vector_spacing == 0x0) || (SIZEOF (.vector_62) <= (_vector_spacing << 0x5))), function at exception vector 62 too large)

.vector_63      0x9d01f9e0        0x0
 *(.vector_63)
                0x00000001                ASSERT (((_vector_spacing == 0x0) || (SIZEOF (.vector_63) <= (_vector_spacing << 0x5))), function at exception vector 63 too large)

.startup
 *(.startup)

.text           0x9d000000        0x0
 *(.stub .gnu.linkonce.t.*)
 *(.text.*personality*)
 *(.mips16.fn.*)
 *(.mips16.call.*)
 *(.gnu.warning)
                0x9d000000                . = ALIGN (0x4)

.init           0x9d000000        0x0
 *crti.o(.init)
 *crtbegin.o(.init)
 *(EXCLUDE_FILE(*crtn.o *crtend?.o *crtend.o) .init)
 *crtend.o(.init)
 *crtn.o(.init)
                0x9d000000                . = ALIGN (0x4)

.fini           0x9d000000        0x0
 *(.fini)
                0x9d000000                . = ALIGN (0x4)

.preinit_array  0x9d000000        0x0
                0x9d000000                PROVIDE (__preinit_array_start, .)
 *(.preinit_array)
                0x9d000000                PROVIDE (__preinit_array_end, .)
                0x9d000000                . = ALIGN (0x4)

.init_array     0x9d000000        0x0
                0x9d000000                PROVIDE (__init_array_start, .)
 *(SORT(.init_array.*))
 *(.init_array)
                0x9d000000                PROVIDE (__init_array_end, .)
                0x9d000000                . = ALIGN (0x4)

.fini_array     0x9d000000        0x0
                0x9d000000                PROVIDE (__fini_array_start, .)
 *(SORT(.fini_array.*))
 *(.fini_array)
                0x9d000000                PROVIDE (__fini_array_end, .)
                0x9d000000                . = ALIGN (0x4)

.ctors          0x9d000000        0x0
 *crtbegin.o(.ctors)
 *crtbegin?.o(.ctors)
 *(EXCLUDE_FILE(*crtend?.o *crtend.o) .ctors)
 *(SORT(.ctors.*))
 *(.ctors)
                0x9d000000                . = ALIGN (0x4)

.dtors          0x9d000000        0x0
 *crtbegin.o(.dtors)
 *crtbegin?.o(.dtors)
 *(EXCLUDE_FILE(*crtend?.o *crtend.o) .dtors)
 *(SORT(.dtors.*))
 *(.dtors)
                0x9d000000                . = ALIGN (0x4)

.rodata         0x9d000000        0x0
 *(.gnu.linkonce.r.*)
 *(.rodata1)
                0x9d000000                . = ALIGN (0x4)

.sdata2         0x9fc00490        0x0
 *(.sdata2 .sdata2.* .gnu.linkonce.s2.*)
                0x9fc00490                . = ALIGN (0x4)

.sbss2          0x9fc00490        0x0
 *(.sbss2 .sbss2.* .gnu.linkonce.sb2.*)
                0x9fc00490                . = ALIGN (0x4)

.eh_frame_hdr
 *(.eh_frame_hdr)
                0x9fc00490                . = ALIGN (0x4)

.eh_frame
 *(.eh_frame)
                0x9fc00490                . = ALIGN (0x4)

.gcc_except_table
 *(.gcc_except_table .gcc_except_table.*)
                0x9fc00490                . = ALIGN (0x4)

.dbg_data       0xa0000200        0x0
                0xa0000200                . = (. + DEFINED (_DEBUGGER)?0x200:0x0)

.jcr            0xa0000200        0x0
 *(.jcr)
                0xa0000200                . = ALIGN (0x4)

.eh_frame
 *(.eh_frame)
                0xa0000200                . = ALIGN (0x4)

.gcc_except_table
 *(.gcc_except_table .gcc_except_table.*)
                0xa0000200                . = ALIGN (0x4)

.persist        0xa0000200        0x0
                0xa0000200                _persist_begin = .
 *(.persist .persist.*)
 *(.pbss .pbss.*)
                0xa0000200                . = ALIGN (0x4)
                0xa0000200                _persist_end = .

.data           0xa0000200        0x0
 *(.gnu.linkonce.d.*)
 *(.data1)
                0xa0000200                . = ALIGN (0x4)
                0xa0000200                . = .
                0xa00081f0                _gp = (ALIGN (0x10) + 0x7ff0)

.got            0xa0000200        0x0
 *(.got.plt)
 *(.got)
                0xa0000200                . = ALIGN (0x4)

.sdata          0xa0000200       0x24
                0xa0000200                _sdata_begin = .
 *(.sdata .sdata.* .gnu.linkonce.s.*)
 .sdata.Key.Key
                0xa0000200        0x8 build/default/debug/main.o
                0xa0000200                Key
 .sdata.Original_Key.Original_Key
                0xa0000208        0x8 build/default/debug/main.o
                0xa0000208                Original_Key
 .sdata.pMfcTypeName.pMfcTypeName
                0xa0000210        0x4 build/default/debug/main.o
                0xa0000210                pMfcTypeName
 .sdata.pMfdfTypeName.pMfdfTypeName
                0xa0000214        0x4 build/default/debug/main.o
                0xa0000214                pMfdfTypeName
 .sdata.rats.8637.rats
                0xa0000218        0x4 build/default/debug/main.o
 .sdata.pps.8638.pps
                0xa000021c        0x4 build/default/debug/main.o
 .sdata.AID.8639.AID
                0xa0000220        0x4 build/default/debug/main.o
                0xa0000224                . = ALIGN (0x4)
                0xa0000224                _sdata_end = .

.lit8
 *(.lit8)

.lit4
 *(.lit4)
                0xa0000224                . = ALIGN (0x4)
                0xa0000224                _data_end = .
                0xa0000224                _bss_begin = .

.sbss           0xa0000224       0x70
                0xa0000224                _sbss_begin = .
 *(.dynsbss)
 *(.sbss .sbss.* .gnu.linkonce.sb.*)
 .sbss.tmr2_obj.tmr2_obj
                0xa0000224        0x4 build/default/debug/mcc_generated_files/tmr2.o
 .sbss.uart1_txByteQ.uart1_txByteQ
                0xa0000228        0x8 build/default/debug/mcc_generated_files/uart1.o
 .sbss.uart1_rxByteQ.uart1_rxByteQ
                0xa0000230        0x8 build/default/debug/mcc_generated_files/uart1.o
 .sbss.tmr1_obj.tmr1_obj
                0xa0000238        0x8 build/default/debug/mcc_generated_files/tmr1.o
 .sbss.CountCallBack.7096.CountCallBack
                0xa0000240        0x4 build/default/debug/mcc_generated_files/tmr1.o
 .sbss.gbWaitTimedOut.gbWaitTimedOut
                0xa0000244        0x1 build/default/debug/NxpNfcRdLib/comps/phOsal/src/NullOs/phOsal_NullOs.o
 *fill*         0xa0000245        0x3 
 .sbss.gdwEventBitMap.gdwEventBitMap
                0xa0000248        0x4 build/default/debug/NxpNfcRdLib/comps/phOsal/src/NullOs/phOsal_NullOs.o
 .sbss.gCurrentEventHandle.gCurrentEventHandle
                0xa000024c        0x4 build/default/debug/NxpNfcRdLib/comps/phOsal/src/NullOs/phOsal_NullOs.o
 .sbss.pTickCallBack.pTickCallBack
                0xa0000250        0x4 build/default/debug/NxpNfcRdLib/comps/phPlatform/src/Port/PIC32MX/phPlatform_Port_PIC32MXTimer.o
 *fill*         0xa0000254        0x4 
 .sbss.qwLoadValue.qwLoadValue
                0xa0000258        0x8 build/default/debug/NxpNfcRdLib/comps/phPlatform/src/Port/PIC32MX/phPlatform_Port_PIC32MXTimer.o
 .sbss.dwSysTickTimerFreq.dwSysTickTimerFreq
                0xa0000260        0x4 build/default/debug/NxpNfcRdLib/comps/phPlatform/src/Port/PIC32MX/phPlatform_Port_PIC32MXTimer.o
 .sbss.dwTimerBusyFlags.dwTimerBusyFlags
                0xa0000264        0x4 build/default/debug/NxpNfcRdLib/comps/phPlatform/src/Port/PIC32MX/phPlatform_Port_PIC32MXTimer.o
 .sbss.gpphTools_Q_PoolHead.gpphTools_Q_PoolHead
                0xa0000268        0x4 build/default/debug/NxpNfcRdLib/comps/phTools/src/phTools_Q.o
 .sbss.gpphTools_Q_Msgs.gpphTools_Q_Msgs
                0xa000026c        0x4 build/default/debug/NxpNfcRdLib/comps/phTools/src/phTools_Q.o
 .sbss.bQCount.bQCount
                0xa0000270        0x1 build/default/debug/NxpNfcRdLib/comps/phTools/src/phTools_Q.o
 .sbss.bNoOfMsgs.1852.bNoOfMsgs
                0xa0000271        0x1 build/default/debug/NxpNfcRdLib/comps/phTools/src/phTools_Q.o
 *(.scommon)
 *fill*         0xa0000272        0x2 
 .scommon       0xa0000274        0x4 build/default/debug/nxp_reader_config_files/phApp_Init.o
                0xa0000274                pHal
 .scommon       0xa0000278        0x4 build/default/debug/NxpNfcRdLib/comps/phPlatform/src/phPlatform.o
                0xa0000278                gpphPlatform_DataParams
 .scommon       0xa000027c       0x16 build/default/debug/main.o
                0xa000027c                sKUCEntries
                0xa0000284                bSak
                0xa0000288                sKeyEntries
                0xa0000290                wAtqa
                0xa0000292                _sbss_end = .
                0xa0000294                . = ALIGN (0x4)
 *fill*         0xa0000292        0x2 

.bss            0xa0000294      0x4f0
 *(.dynbss)
 *(COMMON)
 COMMON         0xa0000294      0x368 build/default/debug/nxp_reader_config_files/phApp_Init.o
                0xa0000294                sDiscLoop
                0xa0000308                spalI14443p4
                0xa000031c                aResponseHolder
                0xa000035c                spalI14443p4a
                0xa0000370                sPlatform
                0xa0000564                salMFDF
                0xa00005cc                spalI14443p3a
                0xa00005e4                salMFC
                0xa00005f0                spalMifare
 COMMON         0xa00005fc      0x188 build/default/debug/main.o
                0xa00005fc                sKeyVersionPairs
                0xa0000684                bHalBufferRx
                0xa0000704                bHalBufferTx
                0xa0000784                . = ALIGN ((. != 0x0)?0x4:0x1)
                0xa0000784                . = ALIGN (0x4)
                0xa0000784                _end = .
                0xa0000784                _bss_end = .
                0x00008000                _bmxdudba_address = 0x8000
                0x00008000                _bmxdupba_address = 0x8000

/DISCARD/
 *(.pdr)
 *(.rel.dyn)
 *(.note.GNU-stack)
 *(.note.GNU-stack)
 *(.gnu_debuglink)
 *(.gnu.lto_*)
 *(.discard)

.gptab.sdata
 *(.gptab.data)
 *(.gptab.sdata)

.gptab.sbss
 *(.gptab.bss)
 *(.gptab.sbss)

.mdebug.abi32   0xa0000784        0x0
 *(.mdebug.abi32)
 .mdebug.abi32  0xa0000784        0x0 c:/program files (x86)/microchip/xc32/v2.05/bin/bin/../../lib/gcc/pic32mx/4.8.3/../../../../pic32mx/lib\software-debug-break.o
 .mdebug.abi32  0xa0000784        0x0 build/default/debug/mcc_generated_files/tmr2.o
 .mdebug.abi32  0xa0000784        0x0 build/default/debug/mcc_generated_files/uart1.o
 .mdebug.abi32  0xa0000784        0x0 build/default/debug/mcc_generated_files/interrupt_manager.o
 .mdebug.abi32  0xa0000784        0x0 build/default/debug/mcc_generated_files/tmr1.o
 .mdebug.abi32  0xa0000784        0x0 build/default/debug/mcc_generated_files/mcc.o
 .mdebug.abi32  0xa0000784        0x0 build/default/debug/mcc_generated_files/pin_manager.o
 .mdebug.abi32  0xa0000784        0x0 build/default/debug/mcc_generated_files/spi1.o
 .mdebug.abi32  0xa0000784        0x0 build/default/debug/mcc_generated_files/adc1.o
 .mdebug.abi32  0xa0000784        0x0 build/default/debug/mcc_generated_files/spi2.o
 .mdebug.abi32  0xa0000784        0x0 build/default/debug/nxp_reader_config_files/phApp_Init.o
 .mdebug.abi32  0xa0000784        0x0 build/default/debug/NxpNfcRdLib/comps/phacDiscLoop/src/Sw/phacDiscLoop_Sw.o
 .mdebug.abi32  0xa0000784        0x0 build/default/debug/NxpNfcRdLib/comps/phacDiscLoop/src/Sw/phacDiscLoop_Sw_Int.o
 .mdebug.abi32  0xa0000784        0x0 build/default/debug/NxpNfcRdLib/comps/phacDiscLoop/src/Sw/phacDiscLoop_Sw_Int_A.o
 .mdebug.abi32  0xa0000784        0x0 build/default/debug/NxpNfcRdLib/comps/phacDiscLoop/src/Sw/phacDiscLoop_Sw_Int_B.o
 .mdebug.abi32  0xa0000784        0x0 build/default/debug/NxpNfcRdLib/comps/phacDiscLoop/src/Sw/phacDiscLoop_Sw_Int_F.o
 .mdebug.abi32  0xa0000784        0x0 build/default/debug/NxpNfcRdLib/comps/phacDiscLoop/src/Sw/phacDiscLoop_Sw_Int_I18000p3m3.o
 .mdebug.abi32  0xa0000784        0x0 build/default/debug/NxpNfcRdLib/comps/phacDiscLoop/src/Sw/phacDiscLoop_Sw_Int_V.o
 .mdebug.abi32  0xa0000784        0x0 build/default/debug/NxpNfcRdLib/comps/phacDiscLoop/src/phacDiscLoop.o
 .mdebug.abi32  0xa0000784        0x0 build/default/debug/NxpNfcRdLib/comps/phalFelica/src/Sw/phalFelica_Sw.o
 .mdebug.abi32  0xa0000784        0x0 build/default/debug/NxpNfcRdLib/comps/phalFelica/src/phalFelica.o
 .mdebug.abi32  0xa0000784        0x0 build/default/debug/NxpNfcRdLib/comps/phalI15693/src/Sw/phalI15693_Sw.o
 .mdebug.abi32  0xa0000784        0x0 build/default/debug/NxpNfcRdLib/comps/phalI15693/src/phalI15693.o
 .mdebug.abi32  0xa0000784        0x0 build/default/debug/NxpNfcRdLib/comps/phalI18000p3m3/src/Sw/phalI18000p3m3_Sw.o
 .mdebug.abi32  0xa0000784        0x0 build/default/debug/NxpNfcRdLib/comps/phalI18000p3m3/src/Sw/phalI18000p3m3_Sw_Int.o
 .mdebug.abi32  0xa0000784        0x0 build/default/debug/NxpNfcRdLib/comps/phalI18000p3m3/src/phalI18000p3m3.o
 .mdebug.abi32  0xa0000784        0x0 build/default/debug/NxpNfcRdLib/comps/phalMfc/src/Sw/phalMfc_Sw.o
 .mdebug.abi32  0xa0000784        0x0 build/default/debug/NxpNfcRdLib/comps/phalMfc/src/phalMfc.o
 .mdebug.abi32  0xa0000784        0x0 build/default/debug/NxpNfcRdLib/comps/phalMfc/src/phalMfc_Int.o
 .mdebug.abi32  0xa0000784        0x0 build/default/debug/NxpNfcRdLib/comps/phalMfdf/src/Sw/phalMfdf_Sw.o
 .mdebug.abi32  0xa0000784        0x0 build/default/debug/NxpNfcRdLib/comps/phalMfdf/src/Sw/phalMfdf_Sw_Int.o
 .mdebug.abi32  0xa0000784        0x0 build/default/debug/NxpNfcRdLib/comps/phalMfdf/src/phalMfdf.o
 .mdebug.abi32  0xa0000784        0x0 build/default/debug/NxpNfcRdLib/comps/phalMfdf/src/phalMfdf_Int.o
 .mdebug.abi32  0xa0000784        0x0 build/default/debug/NxpNfcRdLib/comps/phalMful/src/Sw/phalMful_Sw.o
 .mdebug.abi32  0xa0000784        0x0 build/default/debug/NxpNfcRdLib/comps/phalMful/src/phalMful.o
 .mdebug.abi32  0xa0000784        0x0 build/default/debug/NxpNfcRdLib/comps/phalMful/src/phalMful_Int.o
 .mdebug.abi32  0xa0000784        0x0 build/default/debug/NxpNfcRdLib/comps/phalSli/src/Sw/phalSli_Sw.o
 .mdebug.abi32  0xa0000784        0x0 build/default/debug/NxpNfcRdLib/comps/phalSli/src/phalSli.o
 .mdebug.abi32  0xa0000784        0x0 build/default/debug/NxpNfcRdLib/comps/phalT1T/src/Sw/phalT1T_Sw.o
 .mdebug.abi32  0xa0000784        0x0 build/default/debug/NxpNfcRdLib/comps/phalT1T/src/phalT1T.o
 .mdebug.abi32  0xa0000784        0x0 build/default/debug/NxpNfcRdLib/comps/phalTop/src/Sw/phalTop_Sw.o
 .mdebug.abi32  0xa0000784        0x0 build/default/debug/NxpNfcRdLib/comps/phalTop/src/Sw/phalTop_Sw_Int_T1T.o
 .mdebug.abi32  0xa0000784        0x0 build/default/debug/NxpNfcRdLib/comps/phalTop/src/Sw/phalTop_Sw_Int_T2T.o
 .mdebug.abi32  0xa0000784        0x0 build/default/debug/NxpNfcRdLib/comps/phalTop/src/Sw/phalTop_Sw_Int_T3T.o
 .mdebug.abi32  0xa0000784        0x0 build/default/debug/NxpNfcRdLib/comps/phalTop/src/Sw/phalTop_Sw_Int_T4T.o
 .mdebug.abi32  0xa0000784        0x0 build/default/debug/NxpNfcRdLib/comps/phalTop/src/Sw/phalTop_Sw_Int_T5T.o
 .mdebug.abi32  0xa0000784        0x0 build/default/debug/NxpNfcRdLib/comps/phalTop/src/phalTop.o
 .mdebug.abi32  0xa0000784        0x0 build/default/debug/NxpNfcRdLib/comps/phbalReg/src/KinetisI2C/phbalReg_KinetisI2C.o
 .mdebug.abi32  0xa0000784        0x0 build/default/debug/NxpNfcRdLib/comps/phbalReg/src/KinetisSPI/phbalReg_KinetisSpi.o
 .mdebug.abi32  0xa0000784        0x0 build/default/debug/NxpNfcRdLib/comps/phbalReg/src/LinuxKernelSpi/phbalReg_LinuxKernelSpi.o
 .mdebug.abi32  0xa0000784        0x0 build/default/debug/NxpNfcRdLib/comps/phbalReg/src/LinuxUserI2C/phbalReg_LinuxUserI2C.o
 .mdebug.abi32  0xa0000784        0x0 build/default/debug/NxpNfcRdLib/comps/phbalReg/src/LinuxUserSpi/phbalReg_LinuxUserSpi.o
 .mdebug.abi32  0xa0000784        0x0 build/default/debug/NxpNfcRdLib/comps/phbalReg/src/LpcOpenI2C/phbalReg_LpcOpenI2c.o
 .mdebug.abi32  0xa0000784        0x0 build/default/debug/NxpNfcRdLib/comps/phbalReg/src/LpcOpenSPI/phbalReg_LpcOpenSpi.o
 .mdebug.abi32  0xa0000784        0x0 build/default/debug/NxpNfcRdLib/comps/phbalReg/src/Pic32mxSPI/phbalReg_Pic32mxSpi.o
 .mdebug.abi32  0xa0000784        0x0 build/default/debug/NxpNfcRdLib/comps/phbalReg/src/phbalReg.o
 .mdebug.abi32  0xa0000784        0x0 build/default/debug/NxpNfcRdLib/comps/phceT4T/src/Sw/phceT4T_Sw.o
 .mdebug.abi32  0xa0000784        0x0 build/default/debug/NxpNfcRdLib/comps/phceT4T/src/Sw/phceT4T_Sw_Int.o
 .mdebug.abi32  0xa0000784        0x0 build/default/debug/NxpNfcRdLib/comps/phceT4T/src/phceT4T.o
 .mdebug.abi32  0xa0000784        0x0 build/default/debug/NxpNfcRdLib/comps/phCidManager/src/Sw/phCidManager_Sw.o
 .mdebug.abi32  0xa0000784        0x0 build/default/debug/NxpNfcRdLib/comps/phCidManager/src/phCidManager.o
 .mdebug.abi32  0xa0000784        0x0 build/default/debug/NxpNfcRdLib/comps/phCryptoRng/src/Sw/phCryptoRng_Sw.o
 .mdebug.abi32  0xa0000784        0x0 build/default/debug/NxpNfcRdLib/comps/phCryptoRng/src/phCryptoRng.o
 .mdebug.abi32  0xa0000784        0x0 build/default/debug/NxpNfcRdLib/comps/phCryptoSym/src/Sw/phCryptoSym_Sw.o
 .mdebug.abi32  0xa0000784        0x0 build/default/debug/NxpNfcRdLib/comps/phCryptoSym/src/Sw/phCryptoSym_Sw_Aes.o
 .mdebug.abi32  0xa0000784        0x0 build/default/debug/NxpNfcRdLib/comps/phCryptoSym/src/Sw/phCryptoSym_Sw_Des.o
 .mdebug.abi32  0xa0000784        0x0 build/default/debug/NxpNfcRdLib/comps/phCryptoSym/src/Sw/phCryptoSym_Sw_Int.o
 .mdebug.abi32  0xa0000784        0x0 build/default/debug/NxpNfcRdLib/comps/phCryptoSym/src/phCryptoSym.o
 .mdebug.abi32  0xa0000784        0x0 build/default/debug/NxpNfcRdLib/comps/phhalHw/src/Pn5180/phhalHw_Pn5180.o
 .mdebug.abi32  0xa0000784        0x0 build/default/debug/NxpNfcRdLib/comps/phhalHw/src/Pn5180/phhalHw_Pn5180_Instr.o
 .mdebug.abi32  0xa0000784        0x0 build/default/debug/NxpNfcRdLib/comps/phhalHw/src/Pn5180/phhalHw_Pn5180_Int.o
 .mdebug.abi32  0xa0000784        0x0 build/default/debug/NxpNfcRdLib/comps/phhalHw/src/Pn5180/phhalHw_Pn5180_Wait.o
 .mdebug.abi32  0xa0000784        0x0 build/default/debug/NxpNfcRdLib/comps/phhalHw/src/PN7462AU/phhalHw_PN7462AU.o
 .mdebug.abi32  0xa0000784        0x0 build/default/debug/NxpNfcRdLib/comps/phhalHw/src/PN7462AU/phhalHw_PN7462AU_Int.o
 .mdebug.abi32  0xa0000784        0x0 build/default/debug/NxpNfcRdLib/comps/phhalHw/src/Rc523/phhalHw_Rc523.o
 .mdebug.abi32  0xa0000784        0x0 build/default/debug/NxpNfcRdLib/comps/phhalHw/src/Rc523/phhalHw_Rc523_Cmd.o
 .mdebug.abi32  0xa0000784        0x0 build/default/debug/NxpNfcRdLib/comps/phhalHw/src/Rc523/phhalHw_Rc523_Int.o
 .mdebug.abi32  0xa0000784        0x0 build/default/debug/NxpNfcRdLib/comps/phhalHw/src/Rc523/phhalHw_Rc523_Wait.o
 .mdebug.abi32  0xa0000784        0x0 build/default/debug/NxpNfcRdLib/comps/phhalHw/src/Rc663/phhalHw_Rc663.o
 .mdebug.abi32  0xa0000784        0x0 build/default/debug/NxpNfcRdLib/comps/phhalHw/src/Rc663/phhalHw_Rc663_Cmd.o
 .mdebug.abi32  0xa0000784        0x0 build/default/debug/NxpNfcRdLib/comps/phhalHw/src/Rc663/phhalHw_Rc663_Int.o
 .mdebug.abi32  0xa0000784        0x0 build/default/debug/NxpNfcRdLib/comps/phhalHw/src/Rc663/phhalHw_Rc663_Wait.o
 .mdebug.abi32  0xa0000784        0x0 build/default/debug/NxpNfcRdLib/comps/phhalHw/src/phhalHw.o
 .mdebug.abi32  0xa0000784        0x0 build/default/debug/NxpNfcRdLib/comps/phKeyStore/src/Rc663/phKeyStore_Rc663.o
 .mdebug.abi32  0xa0000784        0x0 build/default/debug/NxpNfcRdLib/comps/phKeyStore/src/Sw/phKeyStore_Sw.o
 .mdebug.abi32  0xa0000784        0x0 build/default/debug/NxpNfcRdLib/comps/phKeyStore/src/phKeyStore.o
 .mdebug.abi32  0xa0000784        0x0 build/default/debug/NxpNfcRdLib/comps/phlnLlcp/src/Sw/phlnLlcp_Sw.o
 .mdebug.abi32  0xa0000784        0x0 build/default/debug/NxpNfcRdLib/comps/phlnLlcp/src/Sw/phlnLlcp_Sw_Int.o
 .mdebug.abi32  0xa0000784        0x0 build/default/debug/NxpNfcRdLib/comps/phlnLlcp/src/Sw/phlnLlcp_Sw_Mac.o
 .mdebug.abi32  0xa0000784        0x0 build/default/debug/NxpNfcRdLib/comps/phlnLlcp/src/Sw/phlnLlcp_Sw_Transport.o
 .mdebug.abi32  0xa0000784        0x0 build/default/debug/NxpNfcRdLib/comps/phlnLlcp/src/Sw/phlnLlcp_Sw_Transport_Connection.o
 .mdebug.abi32  0xa0000784        0x0 build/default/debug/NxpNfcRdLib/comps/phlnLlcp/src/Sw/phlnLlcp_Sw_Transport_Connectionless.o
 .mdebug.abi32  0xa0000784        0x0 build/default/debug/NxpNfcRdLib/comps/phlnLlcp/src/Sw/phlnLlcp_Timers.o
 .mdebug.abi32  0xa0000784        0x0 build/default/debug/NxpNfcRdLib/comps/phlnLlcp/src/phlnLlcp.o
 .mdebug.abi32  0xa0000784        0x0 build/default/debug/NxpNfcRdLib/comps/phLog/src/phLog.o
 .mdebug.abi32  0xa0000784        0x0 build/default/debug/NxpNfcRdLib/comps/phNfcLib/src/phNfcLib.o
 .mdebug.abi32  0xa0000784        0x0 build/default/debug/NxpNfcRdLib/comps/phNfcLib/src/phNfcLib_15693.o
 .mdebug.abi32  0xa0000784        0x0 build/default/debug/NxpNfcRdLib/comps/phNfcLib/src/phNfcLib_18000p3m3.o
 .mdebug.abi32  0xa0000784        0x0 build/default/debug/NxpNfcRdLib/comps/phNfcLib/src/phNfcLib_MFC.o
 .mdebug.abi32  0xa0000784        0x0 build/default/debug/NxpNfcRdLib/comps/phNfcLib/src/phNfcLib_MFDF.o
 .mdebug.abi32  0xa0000784        0x0 build/default/debug/NxpNfcRdLib/comps/phNfcLib/src/phNfcLib_MFUL.o
 .mdebug.abi32  0xa0000784        0x0 build/default/debug/NxpNfcRdLib/comps/phNfcLib/src/phNfcLib_Utility.o
 .mdebug.abi32  0xa0000784        0x0 build/default/debug/NxpNfcRdLib/comps/phnpSnep/src/Sw/phnpSnep_Sw.o
 .mdebug.abi32  0xa0000784        0x0 build/default/debug/NxpNfcRdLib/comps/phnpSnep/src/phnpSnep.o
 .mdebug.abi32  0xa0000784        0x0 build/default/debug/NxpNfcRdLib/comps/phOsal/src/Freertos/phOsal_Freertos.o
 .mdebug.abi32  0xa0000784        0x0 build/default/debug/NxpNfcRdLib/comps/phOsal/src/Linux/phOsal_Linux.o
 .mdebug.abi32  0xa0000784        0x0 build/default/debug/NxpNfcRdLib/comps/phOsal/src/NullOs/phOsal_NullOs.o
 .mdebug.abi32  0xa0000784        0x0 build/default/debug/NxpNfcRdLib/comps/phpalEpcUid/src/Sw/phpalEpcUid_Sw.o
 .mdebug.abi32  0xa0000784        0x0 build/default/debug/NxpNfcRdLib/comps/phpalEpcUid/src/phpalEpcUid.o
 .mdebug.abi32  0xa0000784        0x0 build/default/debug/NxpNfcRdLib/comps/phpalFelica/src/Sw/phpalFelica_Sw.o
 .mdebug.abi32  0xa0000784        0x0 build/default/debug/NxpNfcRdLib/comps/phpalFelica/src/phpalFelica.o
 .mdebug.abi32  0xa0000784        0x0 build/default/debug/NxpNfcRdLib/comps/phpalI14443p3a/src/Sw/phpalI14443p3a_Sw.o
 .mdebug.abi32  0xa0000784        0x0 build/default/debug/NxpNfcRdLib/comps/phpalI14443p3a/src/phpalI14443p3a.o
 .mdebug.abi32  0xa0000784        0x0 build/default/debug/NxpNfcRdLib/comps/phpalI14443p3b/src/Sw/phpalI14443p3b_Sw.o
 .mdebug.abi32  0xa0000784        0x0 build/default/debug/NxpNfcRdLib/comps/phpalI14443p3b/src/phpalI14443p3b.o
 .mdebug.abi32  0xa0000784        0x0 build/default/debug/NxpNfcRdLib/comps/phpalI14443p4/src/Sw/phpalI14443p4_Sw.o
 .mdebug.abi32  0xa0000784        0x0 build/default/debug/NxpNfcRdLib/comps/phpalI14443p4/src/phpalI14443p4.o
 .mdebug.abi32  0xa0000784        0x0 build/default/debug/NxpNfcRdLib/comps/phpalI14443p4a/src/Sw/phpalI14443p4a_Sw.o
 .mdebug.abi32  0xa0000784        0x0 build/default/debug/NxpNfcRdLib/comps/phpalI14443p4a/src/phpalI14443p4a.o
 .mdebug.abi32  0xa0000784        0x0 build/default/debug/NxpNfcRdLib/comps/phpalI14443p4mC/src/Sw/phpalI14443p4mC_Sw.o
 .mdebug.abi32  0xa0000784        0x0 build/default/debug/NxpNfcRdLib/comps/phpalI14443p4mC/src/Sw/phpalI14443p4mC_Sw_Int.o
 .mdebug.abi32  0xa0000784        0x0 build/default/debug/NxpNfcRdLib/comps/phpalI14443p4mC/src/phpalI14443p4mC.o
 .mdebug.abi32  0xa0000784        0x0 build/default/debug/NxpNfcRdLib/comps/phpalI18000p3m3/src/Sw/phpalI18000p3m3_Sw.o
 .mdebug.abi32  0xa0000784        0x0 build/default/debug/NxpNfcRdLib/comps/phpalI18000p3m3/src/phpalI18000p3m3.o
 .mdebug.abi32  0xa0000784        0x0 build/default/debug/NxpNfcRdLib/comps/phpalI18092mPI/src/Sw/phpalI18092mPI_Sw.o
 .mdebug.abi32  0xa0000784        0x0 build/default/debug/NxpNfcRdLib/comps/phpalI18092mPI/src/Sw/phpalI18092mPI_Sw_Int.o
 .mdebug.abi32  0xa0000784        0x0 build/default/debug/NxpNfcRdLib/comps/phpalI18092mPI/src/phpalI18092mPI.o
 .mdebug.abi32  0xa0000784        0x0 build/default/debug/NxpNfcRdLib/comps/phpalI18092mT/src/Sw/phpalI18092mT_Sw.o
 .mdebug.abi32  0xa0000784        0x0 build/default/debug/NxpNfcRdLib/comps/phpalI18092mT/src/Sw/phpalI18092mT_Sw_Int.o
 .mdebug.abi32  0xa0000784        0x0 build/default/debug/NxpNfcRdLib/comps/phpalI18092mT/src/phpalI18092mT.o
 .mdebug.abi32  0xa0000784        0x0 build/default/debug/NxpNfcRdLib/comps/phpalMifare/src/Sw/phpalMifare_Sw.o
 .mdebug.abi32  0xa0000784        0x0 build/default/debug/NxpNfcRdLib/comps/phpalMifare/src/phpalMifare.o
 .mdebug.abi32  0xa0000784        0x0 build/default/debug/NxpNfcRdLib/comps/phpalSli15693/src/Sw/phpalSli15693_Sw.o
 .mdebug.abi32  0xa0000784        0x0 build/default/debug/NxpNfcRdLib/comps/phpalSli15693/src/phpalSli15693.o
 .mdebug.abi32  0xa0000784        0x0 build/default/debug/NxpNfcRdLib/comps/phPlatform/src/Port/K81/phPlatform_Port_K81.o
 .mdebug.abi32  0xa0000784        0x0 build/default/debug/NxpNfcRdLib/comps/phPlatform/src/Port/K81/phPlatform_Port_KinetisTimer.o
 .mdebug.abi32  0xa0000784        0x0 build/default/debug/NxpNfcRdLib/comps/phPlatform/src/Port/K82/phPlatform_Port_K82.o
 .mdebug.abi32  0xa0000784        0x0 build/default/debug/NxpNfcRdLib/comps/phPlatform/src/Port/K82/phPlatform_Port_K82Timer.o
 .mdebug.abi32  0xa0000784        0x0 build/default/debug/NxpNfcRdLib/comps/phPlatform/src/Port/LPC11u68/cr_startup_lpc11u6x.o
 .mdebug.abi32  0xa0000784        0x0 build/default/debug/NxpNfcRdLib/comps/phPlatform/src/Port/LPC11u68/phPlatform_Port_LPC11u68.o
 .mdebug.abi32  0xa0000784        0x0 build/default/debug/NxpNfcRdLib/comps/phPlatform/src/Port/LPC1769/cr_startup_lpc175x_6x.o
 .mdebug.abi32  0xa0000784        0x0 build/default/debug/NxpNfcRdLib/comps/phPlatform/src/Port/LPC1769/keil_iar_sysinit.o
 .mdebug.abi32  0xa0000784        0x0 build/default/debug/NxpNfcRdLib/comps/phPlatform/src/Port/LPC1769/phPlatform_Port_LPC1769.o
 .mdebug.abi32  0xa0000784        0x0 build/default/debug/NxpNfcRdLib/comps/phPlatform/src/Port/LPCTimer/phPlatform_Port_LPCTimer.o
 .mdebug.abi32  0xa0000784        0x0 build/default/debug/NxpNfcRdLib/comps/phPlatform/src/Port/PIC32MX/phPlatform_Port_PIC32MX.o
 .mdebug.abi32  0xa0000784        0x0 build/default/debug/NxpNfcRdLib/comps/phPlatform/src/Port/PIC32MX/phPlatform_Port_PIC32MXTimer.o
 .mdebug.abi32  0xa0000784        0x0 build/default/debug/NxpNfcRdLib/comps/phPlatform/src/Port/PN7462AU/phPlatform_Port_PN7462AU.o
 .mdebug.abi32  0xa0000784        0x0 build/default/debug/NxpNfcRdLib/comps/phPlatform/src/Port/RaspberryPi/phPlatform_Port_Pi.o
 .mdebug.abi32  0xa0000784        0x0 build/default/debug/NxpNfcRdLib/comps/phPlatform/src/Port/RaspberryPi/phPlatform_Port_PiGpio.o
 .mdebug.abi32  0xa0000784        0x0 build/default/debug/NxpNfcRdLib/comps/phPlatform/src/phPlatform.o
 .mdebug.abi32  0xa0000784        0x0 build/default/debug/NxpNfcRdLib/comps/phTools/src/phTools.o
 .mdebug.abi32  0xa0000784        0x0 build/default/debug/NxpNfcRdLib/comps/phTools/src/phTools_Q.o
 .mdebug.abi32  0xa0000784        0x0 build/default/debug/main.o
 .mdebug.abi32  0xa0000784        0x0 c:/program files (x86)/microchip/xc32/v2.05/bin/bin/../../lib/gcc/pic32mx/4.8.3\libgcc.a(floatunsisf.o)
 .mdebug.abi32  0xa0000784        0x0 c:/program files (x86)/microchip/xc32/v2.05/bin/bin/../../lib/gcc/pic32mx/4.8.3/../../../../pic32mx/lib\libpic32.a(default-bootstrap-exception-handler.o)
 .mdebug.abi32  0xa0000784        0x0 c:/program files (x86)/microchip/xc32/v2.05/bin/bin/../../lib/gcc/pic32mx/4.8.3/../../../../pic32mx/lib\libpic32.a(default-on-reset.o)
 .mdebug.abi32  0xa0000784        0x0 c:/program files (x86)/microchip/xc32/v2.05/bin/bin/../../lib/gcc/pic32mx/4.8.3/../../../../pic32mx/lib\libpic32.a(default-on-bootstrap.o)
 .mdebug.abi32  0xa0000784        0x0 c:/program files (x86)/microchip/xc32/v2.05/bin/bin/../../lib/gcc/pic32mx/4.8.3/../../../../pic32mx/lib\libpic32.a(defaultinterrupt.o)

.mdebug.abiN32
 *(.mdebug.abiN32)

.mdebug.abi64
 *(.mdebug.abi64)

.mdebug.abiO64
 *(.mdebug.abiO64)

.mdebug.eabi32
 *(.mdebug.eabi32)

.mdebug.eabi64
 *(.mdebug.eabi64)

.gcc_compiled_long32
 *(.gcc_compiled_long32)

.gcc_compiled_long64
 *(.gcc_compiled_long64)

.stab
 *(.stab)

.stabstr
 *(.stabstr)

.stab.excl
 *(.stab.excl)

.stab.exclstr
 *(.stab.exclstr)

.stab.index
 *(.stab.index)

.stab.indexstr
 *(.stab.indexstr)

.comment        0x00000000       0x85
 *(.comment)
 .comment       0x00000000       0x3c c:/program files (x86)/microchip/xc32/v2.05/bin/bin/../../lib/gcc/pic32mx/4.8.3/../../../../pic32mx/lib\software-debug-break.o
                                 0x3d (size before relaxing)
 .comment       0x00000000       0x3d build/default/debug/mcc_generated_files/tmr2.o
 .comment       0x00000000       0x3d build/default/debug/mcc_generated_files/uart1.o
 .comment       0x00000000       0x3d build/default/debug/mcc_generated_files/interrupt_manager.o
 .comment       0x00000000       0x3d build/default/debug/mcc_generated_files/tmr1.o
 .comment       0x00000000       0x3d build/default/debug/mcc_generated_files/mcc.o
 .comment       0x00000000       0x3d build/default/debug/mcc_generated_files/pin_manager.o
 .comment       0x00000000       0x3d build/default/debug/mcc_generated_files/spi1.o
 .comment       0x00000000       0x3d build/default/debug/mcc_generated_files/adc1.o
 .comment       0x00000000       0x3d build/default/debug/mcc_generated_files/spi2.o
 .comment       0x00000000       0x3d build/default/debug/nxp_reader_config_files/phApp_Init.o
 .comment       0x00000000       0x3d build/default/debug/NxpNfcRdLib/comps/phacDiscLoop/src/Sw/phacDiscLoop_Sw.o
 .comment       0x00000000       0x3d build/default/debug/NxpNfcRdLib/comps/phacDiscLoop/src/Sw/phacDiscLoop_Sw_Int.o
 .comment       0x00000000       0x3d build/default/debug/NxpNfcRdLib/comps/phacDiscLoop/src/Sw/phacDiscLoop_Sw_Int_A.o
 .comment       0x00000000       0x3d build/default/debug/NxpNfcRdLib/comps/phacDiscLoop/src/Sw/phacDiscLoop_Sw_Int_B.o
 .comment       0x00000000       0x3d build/default/debug/NxpNfcRdLib/comps/phacDiscLoop/src/Sw/phacDiscLoop_Sw_Int_F.o
 .comment       0x00000000       0x3d build/default/debug/NxpNfcRdLib/comps/phacDiscLoop/src/Sw/phacDiscLoop_Sw_Int_I18000p3m3.o
 .comment       0x00000000       0x3d build/default/debug/NxpNfcRdLib/comps/phacDiscLoop/src/Sw/phacDiscLoop_Sw_Int_V.o
 .comment       0x00000000       0x3d build/default/debug/NxpNfcRdLib/comps/phacDiscLoop/src/phacDiscLoop.o
 .comment       0x00000000       0x3d build/default/debug/NxpNfcRdLib/comps/phalFelica/src/Sw/phalFelica_Sw.o
 .comment       0x00000000       0x3d build/default/debug/NxpNfcRdLib/comps/phalFelica/src/phalFelica.o
 .comment       0x00000000       0x3d build/default/debug/NxpNfcRdLib/comps/phalI15693/src/Sw/phalI15693_Sw.o
 .comment       0x00000000       0x3d build/default/debug/NxpNfcRdLib/comps/phalI15693/src/phalI15693.o
 .comment       0x00000000       0x3d build/default/debug/NxpNfcRdLib/comps/phalI18000p3m3/src/Sw/phalI18000p3m3_Sw.o
 .comment       0x00000000       0x3d build/default/debug/NxpNfcRdLib/comps/phalI18000p3m3/src/Sw/phalI18000p3m3_Sw_Int.o
 .comment       0x00000000       0x3d build/default/debug/NxpNfcRdLib/comps/phalI18000p3m3/src/phalI18000p3m3.o
 .comment       0x00000000       0x3d build/default/debug/NxpNfcRdLib/comps/phalMfc/src/Sw/phalMfc_Sw.o
 .comment       0x00000000       0x3d build/default/debug/NxpNfcRdLib/comps/phalMfc/src/phalMfc.o
 .comment       0x00000000       0x3d build/default/debug/NxpNfcRdLib/comps/phalMfc/src/phalMfc_Int.o
 .comment       0x00000000       0x3d build/default/debug/NxpNfcRdLib/comps/phalMfdf/src/Sw/phalMfdf_Sw.o
 .comment       0x00000000       0x3d build/default/debug/NxpNfcRdLib/comps/phalMfdf/src/Sw/phalMfdf_Sw_Int.o
 .comment       0x00000000       0x3d build/default/debug/NxpNfcRdLib/comps/phalMfdf/src/phalMfdf.o
 .comment       0x00000000       0x3d build/default/debug/NxpNfcRdLib/comps/phalMfdf/src/phalMfdf_Int.o
 .comment       0x00000000       0x3d build/default/debug/NxpNfcRdLib/comps/phalMful/src/Sw/phalMful_Sw.o
 .comment       0x00000000       0x3d build/default/debug/NxpNfcRdLib/comps/phalMful/src/phalMful.o
 .comment       0x00000000       0x3d build/default/debug/NxpNfcRdLib/comps/phalMful/src/phalMful_Int.o
 .comment       0x00000000       0x3d build/default/debug/NxpNfcRdLib/comps/phalSli/src/Sw/phalSli_Sw.o
 .comment       0x00000000       0x3d build/default/debug/NxpNfcRdLib/comps/phalSli/src/phalSli.o
 .comment       0x00000000       0x3d build/default/debug/NxpNfcRdLib/comps/phalT1T/src/Sw/phalT1T_Sw.o
 .comment       0x00000000       0x3d build/default/debug/NxpNfcRdLib/comps/phalT1T/src/phalT1T.o
 .comment       0x00000000       0x3d build/default/debug/NxpNfcRdLib/comps/phalTop/src/Sw/phalTop_Sw.o
 .comment       0x00000000       0x3d build/default/debug/NxpNfcRdLib/comps/phalTop/src/Sw/phalTop_Sw_Int_T1T.o
 .comment       0x00000000       0x3d build/default/debug/NxpNfcRdLib/comps/phalTop/src/Sw/phalTop_Sw_Int_T2T.o
 .comment       0x00000000       0x3d build/default/debug/NxpNfcRdLib/comps/phalTop/src/Sw/phalTop_Sw_Int_T3T.o
 .comment       0x00000000       0x3d build/default/debug/NxpNfcRdLib/comps/phalTop/src/Sw/phalTop_Sw_Int_T4T.o
 .comment       0x00000000       0x3d build/default/debug/NxpNfcRdLib/comps/phalTop/src/Sw/phalTop_Sw_Int_T5T.o
 .comment       0x00000000       0x3d build/default/debug/NxpNfcRdLib/comps/phalTop/src/phalTop.o
 .comment       0x00000000       0x3d build/default/debug/NxpNfcRdLib/comps/phbalReg/src/KinetisI2C/phbalReg_KinetisI2C.o
 .comment       0x00000000       0x3d build/default/debug/NxpNfcRdLib/comps/phbalReg/src/KinetisSPI/phbalReg_KinetisSpi.o
 .comment       0x00000000       0x3d build/default/debug/NxpNfcRdLib/comps/phbalReg/src/LinuxKernelSpi/phbalReg_LinuxKernelSpi.o
 .comment       0x00000000       0x3d build/default/debug/NxpNfcRdLib/comps/phbalReg/src/LinuxUserI2C/phbalReg_LinuxUserI2C.o
 .comment       0x00000000       0x3d build/default/debug/NxpNfcRdLib/comps/phbalReg/src/LinuxUserSpi/phbalReg_LinuxUserSpi.o
 .comment       0x00000000       0x3d build/default/debug/NxpNfcRdLib/comps/phbalReg/src/LpcOpenI2C/phbalReg_LpcOpenI2c.o
 .comment       0x00000000       0x3d build/default/debug/NxpNfcRdLib/comps/phbalReg/src/LpcOpenSPI/phbalReg_LpcOpenSpi.o
 .comment       0x00000000       0x3d build/default/debug/NxpNfcRdLib/comps/phbalReg/src/Pic32mxSPI/phbalReg_Pic32mxSpi.o
 .comment       0x00000000       0x3d build/default/debug/NxpNfcRdLib/comps/phbalReg/src/phbalReg.o
 .comment       0x00000000       0x3d build/default/debug/NxpNfcRdLib/comps/phceT4T/src/Sw/phceT4T_Sw.o
 .comment       0x00000000       0x3d build/default/debug/NxpNfcRdLib/comps/phceT4T/src/Sw/phceT4T_Sw_Int.o
 .comment       0x00000000       0x3d build/default/debug/NxpNfcRdLib/comps/phceT4T/src/phceT4T.o
 .comment       0x00000000       0x3d build/default/debug/NxpNfcRdLib/comps/phCidManager/src/Sw/phCidManager_Sw.o
 .comment       0x00000000       0x3d build/default/debug/NxpNfcRdLib/comps/phCidManager/src/phCidManager.o
 .comment       0x00000000       0x3d build/default/debug/NxpNfcRdLib/comps/phCryptoRng/src/Sw/phCryptoRng_Sw.o
 .comment       0x00000000       0x3d build/default/debug/NxpNfcRdLib/comps/phCryptoRng/src/phCryptoRng.o
 .comment       0x00000000       0x3d build/default/debug/NxpNfcRdLib/comps/phCryptoSym/src/Sw/phCryptoSym_Sw.o
 .comment       0x00000000       0x3d build/default/debug/NxpNfcRdLib/comps/phCryptoSym/src/Sw/phCryptoSym_Sw_Aes.o
 .comment       0x00000000       0x3d build/default/debug/NxpNfcRdLib/comps/phCryptoSym/src/Sw/phCryptoSym_Sw_Des.o
 .comment       0x00000000       0x3d build/default/debug/NxpNfcRdLib/comps/phCryptoSym/src/Sw/phCryptoSym_Sw_Int.o
 .comment       0x00000000       0x3d build/default/debug/NxpNfcRdLib/comps/phCryptoSym/src/phCryptoSym.o
 .comment       0x00000000       0x3d build/default/debug/NxpNfcRdLib/comps/phhalHw/src/Pn5180/phhalHw_Pn5180.o
 .comment       0x00000000       0x3d build/default/debug/NxpNfcRdLib/comps/phhalHw/src/Pn5180/phhalHw_Pn5180_Instr.o
 .comment       0x00000000       0x3d build/default/debug/NxpNfcRdLib/comps/phhalHw/src/Pn5180/phhalHw_Pn5180_Int.o
 .comment       0x00000000       0x3d build/default/debug/NxpNfcRdLib/comps/phhalHw/src/Pn5180/phhalHw_Pn5180_Wait.o
 .comment       0x00000000       0x3d build/default/debug/NxpNfcRdLib/comps/phhalHw/src/PN7462AU/phhalHw_PN7462AU.o
 .comment       0x00000000       0x3d build/default/debug/NxpNfcRdLib/comps/phhalHw/src/PN7462AU/phhalHw_PN7462AU_Int.o
 .comment       0x00000000       0x3d build/default/debug/NxpNfcRdLib/comps/phhalHw/src/Rc523/phhalHw_Rc523.o
 .comment       0x00000000       0x3d build/default/debug/NxpNfcRdLib/comps/phhalHw/src/Rc523/phhalHw_Rc523_Cmd.o
 .comment       0x00000000       0x3d build/default/debug/NxpNfcRdLib/comps/phhalHw/src/Rc523/phhalHw_Rc523_Int.o
 .comment       0x00000000       0x3d build/default/debug/NxpNfcRdLib/comps/phhalHw/src/Rc523/phhalHw_Rc523_Wait.o
 .comment       0x00000000       0x3d build/default/debug/NxpNfcRdLib/comps/phhalHw/src/Rc663/phhalHw_Rc663.o
 .comment       0x00000000       0x3d build/default/debug/NxpNfcRdLib/comps/phhalHw/src/Rc663/phhalHw_Rc663_Cmd.o
 .comment       0x00000000       0x3d build/default/debug/NxpNfcRdLib/comps/phhalHw/src/Rc663/phhalHw_Rc663_Int.o
 .comment       0x00000000       0x3d build/default/debug/NxpNfcRdLib/comps/phhalHw/src/Rc663/phhalHw_Rc663_Wait.o
 .comment       0x00000000       0x3d build/default/debug/NxpNfcRdLib/comps/phhalHw/src/phhalHw.o
 .comment       0x00000000       0x3d build/default/debug/NxpNfcRdLib/comps/phKeyStore/src/Rc663/phKeyStore_Rc663.o
 .comment       0x00000000       0x3d build/default/debug/NxpNfcRdLib/comps/phKeyStore/src/Sw/phKeyStore_Sw.o
 .comment       0x00000000       0x3d build/default/debug/NxpNfcRdLib/comps/phKeyStore/src/phKeyStore.o
 .comment       0x00000000       0x3d build/default/debug/NxpNfcRdLib/comps/phlnLlcp/src/Sw/phlnLlcp_Sw.o
 .comment       0x00000000       0x3d build/default/debug/NxpNfcRdLib/comps/phlnLlcp/src/Sw/phlnLlcp_Sw_Int.o
 .comment       0x00000000       0x3d build/default/debug/NxpNfcRdLib/comps/phlnLlcp/src/Sw/phlnLlcp_Sw_Mac.o
 .comment       0x00000000       0x3d build/default/debug/NxpNfcRdLib/comps/phlnLlcp/src/Sw/phlnLlcp_Sw_Transport.o
 .comment       0x00000000       0x3d build/default/debug/NxpNfcRdLib/comps/phlnLlcp/src/Sw/phlnLlcp_Sw_Transport_Connection.o
 .comment       0x00000000       0x3d build/default/debug/NxpNfcRdLib/comps/phlnLlcp/src/Sw/phlnLlcp_Sw_Transport_Connectionless.o
 .comment       0x00000000       0x3d build/default/debug/NxpNfcRdLib/comps/phlnLlcp/src/Sw/phlnLlcp_Timers.o
 .comment       0x00000000       0x3d build/default/debug/NxpNfcRdLib/comps/phlnLlcp/src/phlnLlcp.o
 .comment       0x00000000       0x3d build/default/debug/NxpNfcRdLib/comps/phLog/src/phLog.o
 .comment       0x00000000       0x3d build/default/debug/NxpNfcRdLib/comps/phNfcLib/src/phNfcLib.o
 .comment       0x00000000       0x3d build/default/debug/NxpNfcRdLib/comps/phNfcLib/src/phNfcLib_15693.o
 .comment       0x00000000       0x3d build/default/debug/NxpNfcRdLib/comps/phNfcLib/src/phNfcLib_18000p3m3.o
 .comment       0x00000000       0x3d build/default/debug/NxpNfcRdLib/comps/phNfcLib/src/phNfcLib_MFC.o
 .comment       0x00000000       0x3d build/default/debug/NxpNfcRdLib/comps/phNfcLib/src/phNfcLib_MFDF.o
 .comment       0x00000000       0x3d build/default/debug/NxpNfcRdLib/comps/phNfcLib/src/phNfcLib_MFUL.o
 .comment       0x00000000       0x3d build/default/debug/NxpNfcRdLib/comps/phNfcLib/src/phNfcLib_Utility.o
 .comment       0x00000000       0x3d build/default/debug/NxpNfcRdLib/comps/phnpSnep/src/Sw/phnpSnep_Sw.o
 .comment       0x00000000       0x3d build/default/debug/NxpNfcRdLib/comps/phnpSnep/src/phnpSnep.o
 .comment       0x00000000       0x3d build/default/debug/NxpNfcRdLib/comps/phOsal/src/Freertos/phOsal_Freertos.o
 .comment       0x00000000       0x3d build/default/debug/NxpNfcRdLib/comps/phOsal/src/Linux/phOsal_Linux.o
 .comment       0x00000000       0x3d build/default/debug/NxpNfcRdLib/comps/phOsal/src/NullOs/phOsal_NullOs.o
 .comment       0x00000000       0x3d build/default/debug/NxpNfcRdLib/comps/phpalEpcUid/src/Sw/phpalEpcUid_Sw.o
 .comment       0x00000000       0x3d build/default/debug/NxpNfcRdLib/comps/phpalEpcUid/src/phpalEpcUid.o
 .comment       0x00000000       0x3d build/default/debug/NxpNfcRdLib/comps/phpalFelica/src/Sw/phpalFelica_Sw.o
 .comment       0x00000000       0x3d build/default/debug/NxpNfcRdLib/comps/phpalFelica/src/phpalFelica.o
 .comment       0x00000000       0x3d build/default/debug/NxpNfcRdLib/comps/phpalI14443p3a/src/Sw/phpalI14443p3a_Sw.o
 .comment       0x00000000       0x3d build/default/debug/NxpNfcRdLib/comps/phpalI14443p3a/src/phpalI14443p3a.o
 .comment       0x00000000       0x3d build/default/debug/NxpNfcRdLib/comps/phpalI14443p3b/src/Sw/phpalI14443p3b_Sw.o
 .comment       0x00000000       0x3d build/default/debug/NxpNfcRdLib/comps/phpalI14443p3b/src/phpalI14443p3b.o
 .comment       0x00000000       0x3d build/default/debug/NxpNfcRdLib/comps/phpalI14443p4/src/Sw/phpalI14443p4_Sw.o
 .comment       0x00000000       0x3d build/default/debug/NxpNfcRdLib/comps/phpalI14443p4/src/phpalI14443p4.o
 .comment       0x00000000       0x3d build/default/debug/NxpNfcRdLib/comps/phpalI14443p4a/src/Sw/phpalI14443p4a_Sw.o
 .comment       0x00000000       0x3d build/default/debug/NxpNfcRdLib/comps/phpalI14443p4a/src/phpalI14443p4a.o
 .comment       0x00000000       0x3d build/default/debug/NxpNfcRdLib/comps/phpalI14443p4mC/src/Sw/phpalI14443p4mC_Sw.o
 .comment       0x00000000       0x3d build/default/debug/NxpNfcRdLib/comps/phpalI14443p4mC/src/Sw/phpalI14443p4mC_Sw_Int.o
 .comment       0x00000000       0x3d build/default/debug/NxpNfcRdLib/comps/phpalI14443p4mC/src/phpalI14443p4mC.o
 .comment       0x00000000       0x3d build/default/debug/NxpNfcRdLib/comps/phpalI18000p3m3/src/Sw/phpalI18000p3m3_Sw.o
 .comment       0x00000000       0x3d build/default/debug/NxpNfcRdLib/comps/phpalI18000p3m3/src/phpalI18000p3m3.o
 .comment       0x00000000       0x3d build/default/debug/NxpNfcRdLib/comps/phpalI18092mPI/src/Sw/phpalI18092mPI_Sw.o
 .comment       0x00000000       0x3d build/default/debug/NxpNfcRdLib/comps/phpalI18092mPI/src/Sw/phpalI18092mPI_Sw_Int.o
 .comment       0x00000000       0x3d build/default/debug/NxpNfcRdLib/comps/phpalI18092mPI/src/phpalI18092mPI.o
 .comment       0x00000000       0x3d build/default/debug/NxpNfcRdLib/comps/phpalI18092mT/src/Sw/phpalI18092mT_Sw.o
 .comment       0x00000000       0x3d build/default/debug/NxpNfcRdLib/comps/phpalI18092mT/src/Sw/phpalI18092mT_Sw_Int.o
 .comment       0x00000000       0x3d build/default/debug/NxpNfcRdLib/comps/phpalI18092mT/src/phpalI18092mT.o
 .comment       0x00000000       0x3d build/default/debug/NxpNfcRdLib/comps/phpalMifare/src/Sw/phpalMifare_Sw.o
 .comment       0x00000000       0x3d build/default/debug/NxpNfcRdLib/comps/phpalMifare/src/phpalMifare.o
 .comment       0x00000000       0x3d build/default/debug/NxpNfcRdLib/comps/phpalSli15693/src/Sw/phpalSli15693_Sw.o
 .comment       0x00000000       0x3d build/default/debug/NxpNfcRdLib/comps/phpalSli15693/src/phpalSli15693.o
 .comment       0x00000000       0x3d build/default/debug/NxpNfcRdLib/comps/phPlatform/src/Port/K81/phPlatform_Port_K81.o
 .comment       0x00000000       0x3d build/default/debug/NxpNfcRdLib/comps/phPlatform/src/Port/K81/phPlatform_Port_KinetisTimer.o
 .comment       0x00000000       0x3d build/default/debug/NxpNfcRdLib/comps/phPlatform/src/Port/K82/phPlatform_Port_K82.o
 .comment       0x00000000       0x3d build/default/debug/NxpNfcRdLib/comps/phPlatform/src/Port/K82/phPlatform_Port_K82Timer.o
 .comment       0x00000000       0x3d build/default/debug/NxpNfcRdLib/comps/phPlatform/src/Port/LPC11u68/cr_startup_lpc11u6x.o
 .comment       0x00000000       0x3d build/default/debug/NxpNfcRdLib/comps/phPlatform/src/Port/LPC11u68/phPlatform_Port_LPC11u68.o
 .comment       0x00000000       0x3d build/default/debug/NxpNfcRdLib/comps/phPlatform/src/Port/LPC1769/cr_startup_lpc175x_6x.o
 .comment       0x00000000       0x3d build/default/debug/NxpNfcRdLib/comps/phPlatform/src/Port/LPC1769/keil_iar_sysinit.o
 .comment       0x00000000       0x3d build/default/debug/NxpNfcRdLib/comps/phPlatform/src/Port/LPC1769/phPlatform_Port_LPC1769.o
 .comment       0x00000000       0x3d build/default/debug/NxpNfcRdLib/comps/phPlatform/src/Port/LPCTimer/phPlatform_Port_LPCTimer.o
 .comment       0x00000000       0x3d build/default/debug/NxpNfcRdLib/comps/phPlatform/src/Port/PIC32MX/phPlatform_Port_PIC32MX.o
 .comment       0x00000000       0x3d build/default/debug/NxpNfcRdLib/comps/phPlatform/src/Port/PIC32MX/phPlatform_Port_PIC32MXTimer.o
 .comment       0x00000000       0x3d build/default/debug/NxpNfcRdLib/comps/phPlatform/src/Port/PN7462AU/phPlatform_Port_PN7462AU.o
 .comment       0x00000000       0x3d build/default/debug/NxpNfcRdLib/comps/phPlatform/src/Port/RaspberryPi/phPlatform_Port_Pi.o
 .comment       0x00000000       0x3d build/default/debug/NxpNfcRdLib/comps/phPlatform/src/Port/RaspberryPi/phPlatform_Port_PiGpio.o
 .comment       0x00000000       0x3d build/default/debug/NxpNfcRdLib/comps/phPlatform/src/phPlatform.o
 .comment       0x00000000       0x3d build/default/debug/NxpNfcRdLib/comps/phTools/src/phTools.o
 .comment       0x00000000       0x3d build/default/debug/NxpNfcRdLib/comps/phTools/src/phTools_Q.o
 .comment       0x00000000       0x3d build/default/debug/main.o
 .comment       0x00000000       0x3d c:/program files (x86)/microchip/xc32/v2.05/bin/bin/../../lib/gcc/pic32mx/4.8.3\libgcc.a(floatunsisf.o)
 .comment       0x0000003c       0x18 c:/program files (x86)/microchip/xc32/v2.05/bin/bin/../../lib/gcc/pic32mx/4.8.3/../../../../pic32mx/lib\libpic32.a(memcmp.o)
                                 0x19 (size before relaxing)
 .comment       0x00000054       0x18 c:/program files (x86)/microchip/xc32/v2.05/bin/bin/../../lib/gcc/pic32mx/4.8.3/../../../../pic32mx/lib\libpic32.a(memset.o)
                                 0x19 (size before relaxing)
 .comment       0x0000006c       0x19 c:/program files (x86)/microchip/xc32/v2.05/bin/bin/../../lib/gcc/pic32mx/4.8.3/../../../../pic32mx/lib\libpic32.a(strcpy.o)
                                 0x1a (size before relaxing)
 .comment       0x00000000       0x3d c:/program files (x86)/microchip/xc32/v2.05/bin/bin/../../lib/gcc/pic32mx/4.8.3/../../../../pic32mx/lib\libpic32.a(default-bootstrap-exception-handler.o)
 .comment       0x00000000       0x3d c:/program files (x86)/microchip/xc32/v2.05/bin/bin/../../lib/gcc/pic32mx/4.8.3/../../../../pic32mx/lib\libpic32.a(default-on-reset.o)
 .comment       0x00000000       0x3d c:/program files (x86)/microchip/xc32/v2.05/bin/bin/../../lib/gcc/pic32mx/4.8.3/../../../../pic32mx/lib\libpic32.a(default-on-bootstrap.o)
 .comment       0x00000000       0x3d c:/program files (x86)/microchip/xc32/v2.05/bin/bin/../../lib/gcc/pic32mx/4.8.3/../../../../pic32mx/lib\libpic32.a(defaultinterrupt.o)

.debug
 *(.debug)

.line
 *(.line)

.debug_srcinfo
 *(.debug_srcinfo)

.debug_sfnames
 *(.debug_sfnames)

.debug_aranges  0x00000000     0x1ae0
 *(.debug_aranges)
 .debug_aranges
                0x00000000       0x20 c:/program files (x86)/microchip/xc32/v2.05/bin/bin/../../lib/gcc/pic32mx/4.8.3/../../../../pic32mx/lib\software-debug-break.o
 .debug_aranges
                0x00000020       0x78 build/default/debug/mcc_generated_files/tmr2.o
 .debug_aranges
                0x00000098       0x80 build/default/debug/mcc_generated_files/uart1.o
 .debug_aranges
                0x00000118       0x20 build/default/debug/mcc_generated_files/interrupt_manager.o
 .debug_aranges
                0x00000138       0x78 build/default/debug/mcc_generated_files/tmr1.o
 .debug_aranges
                0x000001b0       0x40 build/default/debug/mcc_generated_files/mcc.o
 .debug_aranges
                0x000001f0       0x28 build/default/debug/mcc_generated_files/pin_manager.o
 .debug_aranges
                0x00000218       0x48 build/default/debug/mcc_generated_files/spi1.o
 .debug_aranges
                0x00000260       0x58 build/default/debug/mcc_generated_files/adc1.o
 .debug_aranges
                0x000002b8       0x48 build/default/debug/mcc_generated_files/spi2.o
 .debug_aranges
                0x00000300       0x50 build/default/debug/nxp_reader_config_files/phApp_Init.o
 .debug_aranges
                0x00000350       0x40 build/default/debug/NxpNfcRdLib/comps/phacDiscLoop/src/Sw/phacDiscLoop_Sw.o
 .debug_aranges
                0x00000390       0x78 build/default/debug/NxpNfcRdLib/comps/phacDiscLoop/src/Sw/phacDiscLoop_Sw_Int.o
 .debug_aranges
                0x00000408       0x30 build/default/debug/NxpNfcRdLib/comps/phacDiscLoop/src/Sw/phacDiscLoop_Sw_Int_A.o
 .debug_aranges
                0x00000438       0x30 build/default/debug/NxpNfcRdLib/comps/phacDiscLoop/src/Sw/phacDiscLoop_Sw_Int_B.o
 .debug_aranges
                0x00000468       0x30 build/default/debug/NxpNfcRdLib/comps/phacDiscLoop/src/Sw/phacDiscLoop_Sw_Int_F.o
 .debug_aranges
                0x00000498       0x30 build/default/debug/NxpNfcRdLib/comps/phacDiscLoop/src/Sw/phacDiscLoop_Sw_Int_I18000p3m3.o
 .debug_aranges
                0x000004c8       0x30 build/default/debug/NxpNfcRdLib/comps/phacDiscLoop/src/Sw/phacDiscLoop_Sw_Int_V.o
 .debug_aranges
                0x000004f8       0x18 build/default/debug/NxpNfcRdLib/comps/phacDiscLoop/src/phacDiscLoop.o
 .debug_aranges
                0x00000510       0x18 build/default/debug/NxpNfcRdLib/comps/phalFelica/src/Sw/phalFelica_Sw.o
 .debug_aranges
                0x00000528       0x18 build/default/debug/NxpNfcRdLib/comps/phalFelica/src/phalFelica.o
 .debug_aranges
                0x00000540       0x18 build/default/debug/NxpNfcRdLib/comps/phalI15693/src/Sw/phalI15693_Sw.o
 .debug_aranges
                0x00000558       0x18 build/default/debug/NxpNfcRdLib/comps/phalI15693/src/phalI15693.o
 .debug_aranges
                0x00000570       0x18 build/default/debug/NxpNfcRdLib/comps/phalI18000p3m3/src/Sw/phalI18000p3m3_Sw.o
 .debug_aranges
                0x00000588       0x18 build/default/debug/NxpNfcRdLib/comps/phalI18000p3m3/src/Sw/phalI18000p3m3_Sw_Int.o
 .debug_aranges
                0x000005a0       0x18 build/default/debug/NxpNfcRdLib/comps/phalI18000p3m3/src/phalI18000p3m3.o
 .debug_aranges
                0x000005b8       0x90 build/default/debug/NxpNfcRdLib/comps/phalMfc/src/Sw/phalMfc_Sw.o
 .debug_aranges
                0x00000648       0x18 build/default/debug/NxpNfcRdLib/comps/phalMfc/src/phalMfc.o
 .debug_aranges
                0x00000660       0x40 build/default/debug/NxpNfcRdLib/comps/phalMfc/src/phalMfc_Int.o
 .debug_aranges
                0x000006a0       0x70 build/default/debug/NxpNfcRdLib/comps/phalMfdf/src/Sw/phalMfdf_Sw.o
 .debug_aranges
                0x00000710       0x40 build/default/debug/NxpNfcRdLib/comps/phalMfdf/src/Sw/phalMfdf_Sw_Int.o
 .debug_aranges
                0x00000750       0x18 build/default/debug/NxpNfcRdLib/comps/phalMfdf/src/phalMfdf.o
 .debug_aranges
                0x00000768       0x30 build/default/debug/NxpNfcRdLib/comps/phalMfdf/src/phalMfdf_Int.o
 .debug_aranges
                0x00000798       0x18 build/default/debug/NxpNfcRdLib/comps/phalMful/src/Sw/phalMful_Sw.o
 .debug_aranges
                0x000007b0       0x18 build/default/debug/NxpNfcRdLib/comps/phalMful/src/phalMful.o
 .debug_aranges
                0x000007c8       0x18 build/default/debug/NxpNfcRdLib/comps/phalMful/src/phalMful_Int.o
 .debug_aranges
                0x000007e0       0x18 build/default/debug/NxpNfcRdLib/comps/phalSli/src/Sw/phalSli_Sw.o
 .debug_aranges
                0x000007f8       0x18 build/default/debug/NxpNfcRdLib/comps/phalSli/src/phalSli.o
 .debug_aranges
                0x00000810       0x18 build/default/debug/NxpNfcRdLib/comps/phalT1T/src/Sw/phalT1T_Sw.o
 .debug_aranges
                0x00000828       0x18 build/default/debug/NxpNfcRdLib/comps/phalT1T/src/phalT1T.o
 .debug_aranges
                0x00000840       0x18 build/default/debug/NxpNfcRdLib/comps/phalTop/src/Sw/phalTop_Sw.o
 .debug_aranges
                0x00000858       0x18 build/default/debug/NxpNfcRdLib/comps/phalTop/src/Sw/phalTop_Sw_Int_T1T.o
 .debug_aranges
                0x00000870       0x18 build/default/debug/NxpNfcRdLib/comps/phalTop/src/Sw/phalTop_Sw_Int_T2T.o
 .debug_aranges
                0x00000888       0x18 build/default/debug/NxpNfcRdLib/comps/phalTop/src/Sw/phalTop_Sw_Int_T3T.o
 .debug_aranges
                0x000008a0       0x18 build/default/debug/NxpNfcRdLib/comps/phalTop/src/Sw/phalTop_Sw_Int_T4T.o
 .debug_aranges
                0x000008b8       0x18 build/default/debug/NxpNfcRdLib/comps/phalTop/src/Sw/phalTop_Sw_Int_T5T.o
 .debug_aranges
                0x000008d0       0x18 build/default/debug/NxpNfcRdLib/comps/phalTop/src/phalTop.o
 .debug_aranges
                0x000008e8       0x18 build/default/debug/NxpNfcRdLib/comps/phbalReg/src/KinetisI2C/phbalReg_KinetisI2C.o
 .debug_aranges
                0x00000900       0x18 build/default/debug/NxpNfcRdLib/comps/phbalReg/src/KinetisSPI/phbalReg_KinetisSpi.o
 .debug_aranges
                0x00000918       0x18 build/default/debug/NxpNfcRdLib/comps/phbalReg/src/LinuxKernelSpi/phbalReg_LinuxKernelSpi.o
 .debug_aranges
                0x00000930       0x18 build/default/debug/NxpNfcRdLib/comps/phbalReg/src/LinuxUserI2C/phbalReg_LinuxUserI2C.o
 .debug_aranges
                0x00000948       0x18 build/default/debug/NxpNfcRdLib/comps/phbalReg/src/LinuxUserSpi/phbalReg_LinuxUserSpi.o
 .debug_aranges
                0x00000960       0x18 build/default/debug/NxpNfcRdLib/comps/phbalReg/src/LpcOpenI2C/phbalReg_LpcOpenI2c.o
 .debug_aranges
                0x00000978       0x18 build/default/debug/NxpNfcRdLib/comps/phbalReg/src/LpcOpenSPI/phbalReg_LpcOpenSpi.o
 .debug_aranges
                0x00000990       0x58 build/default/debug/NxpNfcRdLib/comps/phbalReg/src/Pic32mxSPI/phbalReg_Pic32mxSpi.o
 .debug_aranges
                0x000009e8       0x18 build/default/debug/NxpNfcRdLib/comps/phbalReg/src/phbalReg.o
 .debug_aranges
                0x00000a00       0x18 build/default/debug/NxpNfcRdLib/comps/phceT4T/src/Sw/phceT4T_Sw.o
 .debug_aranges
                0x00000a18       0x18 build/default/debug/NxpNfcRdLib/comps/phceT4T/src/Sw/phceT4T_Sw_Int.o
 .debug_aranges
                0x00000a30       0x18 build/default/debug/NxpNfcRdLib/comps/phceT4T/src/phceT4T.o
 .debug_aranges
                0x00000a48       0x18 build/default/debug/NxpNfcRdLib/comps/phCidManager/src/Sw/phCidManager_Sw.o
 .debug_aranges
                0x00000a60       0x18 build/default/debug/NxpNfcRdLib/comps/phCidManager/src/phCidManager.o
 .debug_aranges
                0x00000a78       0x18 build/default/debug/NxpNfcRdLib/comps/phCryptoRng/src/Sw/phCryptoRng_Sw.o
 .debug_aranges
                0x00000a90       0x18 build/default/debug/NxpNfcRdLib/comps/phCryptoRng/src/phCryptoRng.o
 .debug_aranges
                0x00000aa8       0x18 build/default/debug/NxpNfcRdLib/comps/phCryptoSym/src/Sw/phCryptoSym_Sw.o
 .debug_aranges
                0x00000ac0       0x18 build/default/debug/NxpNfcRdLib/comps/phCryptoSym/src/Sw/phCryptoSym_Sw_Aes.o
 .debug_aranges
                0x00000ad8       0x18 build/default/debug/NxpNfcRdLib/comps/phCryptoSym/src/Sw/phCryptoSym_Sw_Des.o
 .debug_aranges
                0x00000af0       0x18 build/default/debug/NxpNfcRdLib/comps/phCryptoSym/src/Sw/phCryptoSym_Sw_Int.o
 .debug_aranges
                0x00000b08       0x18 build/default/debug/NxpNfcRdLib/comps/phCryptoSym/src/phCryptoSym.o
 .debug_aranges
                0x00000b20       0xf0 build/default/debug/NxpNfcRdLib/comps/phhalHw/src/Pn5180/phhalHw_Pn5180.o
 .debug_aranges
                0x00000c10      0x128 build/default/debug/NxpNfcRdLib/comps/phhalHw/src/Pn5180/phhalHw_Pn5180_Instr.o
 .debug_aranges
                0x00000d38       0x88 build/default/debug/NxpNfcRdLib/comps/phhalHw/src/Pn5180/phhalHw_Pn5180_Int.o
 .debug_aranges
                0x00000dc0       0x20 build/default/debug/NxpNfcRdLib/comps/phhalHw/src/Pn5180/phhalHw_Pn5180_Wait.o
 .debug_aranges
                0x00000de0       0x18 build/default/debug/NxpNfcRdLib/comps/phhalHw/src/PN7462AU/phhalHw_PN7462AU.o
 .debug_aranges
                0x00000df8       0x18 build/default/debug/NxpNfcRdLib/comps/phhalHw/src/PN7462AU/phhalHw_PN7462AU_Int.o
 .debug_aranges
                0x00000e10       0x18 build/default/debug/NxpNfcRdLib/comps/phhalHw/src/Rc523/phhalHw_Rc523.o
 .debug_aranges
                0x00000e28       0x18 build/default/debug/NxpNfcRdLib/comps/phhalHw/src/Rc523/phhalHw_Rc523_Cmd.o
 .debug_aranges
                0x00000e40       0x18 build/default/debug/NxpNfcRdLib/comps/phhalHw/src/Rc523/phhalHw_Rc523_Int.o
 .debug_aranges
                0x00000e58       0x18 build/default/debug/NxpNfcRdLib/comps/phhalHw/src/Rc523/phhalHw_Rc523_Wait.o
 .debug_aranges
                0x00000e70       0x18 build/default/debug/NxpNfcRdLib/comps/phhalHw/src/Rc663/phhalHw_Rc663.o
 .debug_aranges
                0x00000e88       0x18 build/default/debug/NxpNfcRdLib/comps/phhalHw/src/Rc663/phhalHw_Rc663_Cmd.o
 .debug_aranges
                0x00000ea0       0x18 build/default/debug/NxpNfcRdLib/comps/phhalHw/src/Rc663/phhalHw_Rc663_Int.o
 .debug_aranges
                0x00000eb8       0x18 build/default/debug/NxpNfcRdLib/comps/phhalHw/src/Rc663/phhalHw_Rc663_Wait.o
 .debug_aranges
                0x00000ed0       0x20 build/default/debug/NxpNfcRdLib/comps/phhalHw/src/phhalHw.o
 .debug_aranges
                0x00000ef0       0x18 build/default/debug/NxpNfcRdLib/comps/phKeyStore/src/Rc663/phKeyStore_Rc663.o
 .debug_aranges
                0x00000f08       0xa0 build/default/debug/NxpNfcRdLib/comps/phKeyStore/src/Sw/phKeyStore_Sw.o
 .debug_aranges
                0x00000fa8       0x20 build/default/debug/NxpNfcRdLib/comps/phKeyStore/src/phKeyStore.o
 .debug_aranges
                0x00000fc8       0x18 build/default/debug/NxpNfcRdLib/comps/phlnLlcp/src/Sw/phlnLlcp_Sw.o
 .debug_aranges
                0x00000fe0       0x18 build/default/debug/NxpNfcRdLib/comps/phlnLlcp/src/Sw/phlnLlcp_Sw_Int.o
 .debug_aranges
                0x00000ff8       0x18 build/default/debug/NxpNfcRdLib/comps/phlnLlcp/src/Sw/phlnLlcp_Sw_Mac.o
 .debug_aranges
                0x00001010       0x18 build/default/debug/NxpNfcRdLib/comps/phlnLlcp/src/Sw/phlnLlcp_Sw_Transport.o
 .debug_aranges
                0x00001028       0x18 build/default/debug/NxpNfcRdLib/comps/phlnLlcp/src/Sw/phlnLlcp_Sw_Transport_Connection.o
 .debug_aranges
                0x00001040       0x18 build/default/debug/NxpNfcRdLib/comps/phlnLlcp/src/Sw/phlnLlcp_Sw_Transport_Connectionless.o
 .debug_aranges
                0x00001058       0x18 build/default/debug/NxpNfcRdLib/comps/phlnLlcp/src/Sw/phlnLlcp_Timers.o
 .debug_aranges
                0x00001070       0x18 build/default/debug/NxpNfcRdLib/comps/phlnLlcp/src/phlnLlcp.o
 .debug_aranges
                0x00001088       0x18 build/default/debug/NxpNfcRdLib/comps/phLog/src/phLog.o
 .debug_aranges
                0x000010a0       0x18 build/default/debug/NxpNfcRdLib/comps/phNfcLib/src/phNfcLib.o
 .debug_aranges
                0x000010b8       0x18 build/default/debug/NxpNfcRdLib/comps/phNfcLib/src/phNfcLib_15693.o
 .debug_aranges
                0x000010d0       0x18 build/default/debug/NxpNfcRdLib/comps/phNfcLib/src/phNfcLib_18000p3m3.o
 .debug_aranges
                0x000010e8       0x18 build/default/debug/NxpNfcRdLib/comps/phNfcLib/src/phNfcLib_MFC.o
 .debug_aranges
                0x00001100       0x18 build/default/debug/NxpNfcRdLib/comps/phNfcLib/src/phNfcLib_MFDF.o
 .debug_aranges
                0x00001118       0x18 build/default/debug/NxpNfcRdLib/comps/phNfcLib/src/phNfcLib_MFUL.o
 .debug_aranges
                0x00001130       0x18 build/default/debug/NxpNfcRdLib/comps/phNfcLib/src/phNfcLib_Utility.o
 .debug_aranges
                0x00001148       0x18 build/default/debug/NxpNfcRdLib/comps/phnpSnep/src/Sw/phnpSnep_Sw.o
 .debug_aranges
                0x00001160       0x18 build/default/debug/NxpNfcRdLib/comps/phnpSnep/src/phnpSnep.o
 .debug_aranges
                0x00001178       0x18 build/default/debug/NxpNfcRdLib/comps/phOsal/src/Freertos/phOsal_Freertos.o
 .debug_aranges
                0x00001190       0x18 build/default/debug/NxpNfcRdLib/comps/phOsal/src/Linux/phOsal_Linux.o
 .debug_aranges
                0x000011a8      0x108 build/default/debug/NxpNfcRdLib/comps/phOsal/src/NullOs/phOsal_NullOs.o
 .debug_aranges
                0x000012b0       0x18 build/default/debug/NxpNfcRdLib/comps/phpalEpcUid/src/Sw/phpalEpcUid_Sw.o
 .debug_aranges
                0x000012c8       0x18 build/default/debug/NxpNfcRdLib/comps/phpalEpcUid/src/phpalEpcUid.o
 .debug_aranges
                0x000012e0       0x18 build/default/debug/NxpNfcRdLib/comps/phpalFelica/src/Sw/phpalFelica_Sw.o
 .debug_aranges
                0x000012f8       0x18 build/default/debug/NxpNfcRdLib/comps/phpalFelica/src/phpalFelica.o
 .debug_aranges
                0x00001310       0x78 build/default/debug/NxpNfcRdLib/comps/phpalI14443p3a/src/Sw/phpalI14443p3a_Sw.o
 .debug_aranges
                0x00001388       0x18 build/default/debug/NxpNfcRdLib/comps/phpalI14443p3a/src/phpalI14443p3a.o
 .debug_aranges
                0x000013a0       0x18 build/default/debug/NxpNfcRdLib/comps/phpalI14443p3b/src/Sw/phpalI14443p3b_Sw.o
 .debug_aranges
                0x000013b8       0x18 build/default/debug/NxpNfcRdLib/comps/phpalI14443p3b/src/phpalI14443p3b.o
 .debug_aranges
                0x000013d0       0x90 build/default/debug/NxpNfcRdLib/comps/phpalI14443p4/src/Sw/phpalI14443p4_Sw.o
 .debug_aranges
                0x00001460       0x18 build/default/debug/NxpNfcRdLib/comps/phpalI14443p4/src/phpalI14443p4.o
 .debug_aranges
                0x00001478       0x48 build/default/debug/NxpNfcRdLib/comps/phpalI14443p4a/src/Sw/phpalI14443p4a_Sw.o
 .debug_aranges
                0x000014c0       0x18 build/default/debug/NxpNfcRdLib/comps/phpalI14443p4a/src/phpalI14443p4a.o
 .debug_aranges
                0x000014d8       0x18 build/default/debug/NxpNfcRdLib/comps/phpalI14443p4mC/src/Sw/phpalI14443p4mC_Sw.o
 .debug_aranges
                0x000014f0       0x18 build/default/debug/NxpNfcRdLib/comps/phpalI14443p4mC/src/Sw/phpalI14443p4mC_Sw_Int.o
 .debug_aranges
                0x00001508       0x18 build/default/debug/NxpNfcRdLib/comps/phpalI14443p4mC/src/phpalI14443p4mC.o
 .debug_aranges
                0x00001520       0x18 build/default/debug/NxpNfcRdLib/comps/phpalI18000p3m3/src/Sw/phpalI18000p3m3_Sw.o
 .debug_aranges
                0x00001538       0x18 build/default/debug/NxpNfcRdLib/comps/phpalI18000p3m3/src/phpalI18000p3m3.o
 .debug_aranges
                0x00001550       0x18 build/default/debug/NxpNfcRdLib/comps/phpalI18092mPI/src/Sw/phpalI18092mPI_Sw.o
 .debug_aranges
                0x00001568       0x18 build/default/debug/NxpNfcRdLib/comps/phpalI18092mPI/src/Sw/phpalI18092mPI_Sw_Int.o
 .debug_aranges
                0x00001580       0x18 build/default/debug/NxpNfcRdLib/comps/phpalI18092mPI/src/phpalI18092mPI.o
 .debug_aranges
                0x00001598       0x18 build/default/debug/NxpNfcRdLib/comps/phpalI18092mT/src/Sw/phpalI18092mT_Sw.o
 .debug_aranges
                0x000015b0       0x18 build/default/debug/NxpNfcRdLib/comps/phpalI18092mT/src/Sw/phpalI18092mT_Sw_Int.o
 .debug_aranges
                0x000015c8       0x18 build/default/debug/NxpNfcRdLib/comps/phpalI18092mT/src/phpalI18092mT.o
 .debug_aranges
                0x000015e0       0x58 build/default/debug/NxpNfcRdLib/comps/phpalMifare/src/Sw/phpalMifare_Sw.o
 .debug_aranges
                0x00001638       0x18 build/default/debug/NxpNfcRdLib/comps/phpalMifare/src/phpalMifare.o
 .debug_aranges
                0x00001650       0x18 build/default/debug/NxpNfcRdLib/comps/phpalSli15693/src/Sw/phpalSli15693_Sw.o
 .debug_aranges
                0x00001668       0x18 build/default/debug/NxpNfcRdLib/comps/phpalSli15693/src/phpalSli15693.o
 .debug_aranges
                0x00001680       0x18 build/default/debug/NxpNfcRdLib/comps/phPlatform/src/Port/K81/phPlatform_Port_K81.o
 .debug_aranges
                0x00001698       0x18 build/default/debug/NxpNfcRdLib/comps/phPlatform/src/Port/K81/phPlatform_Port_KinetisTimer.o
 .debug_aranges
                0x000016b0       0x18 build/default/debug/NxpNfcRdLib/comps/phPlatform/src/Port/K82/phPlatform_Port_K82.o
 .debug_aranges
                0x000016c8       0x18 build/default/debug/NxpNfcRdLib/comps/phPlatform/src/Port/K82/phPlatform_Port_K82Timer.o
 .debug_aranges
                0x000016e0       0x18 build/default/debug/NxpNfcRdLib/comps/phPlatform/src/Port/LPC11u68/phPlatform_Port_LPC11u68.o
 .debug_aranges
                0x000016f8       0x18 build/default/debug/NxpNfcRdLib/comps/phPlatform/src/Port/LPC1769/cr_startup_lpc175x_6x.o
 .debug_aranges
                0x00001710       0x18 build/default/debug/NxpNfcRdLib/comps/phPlatform/src/Port/LPC1769/keil_iar_sysinit.o
 .debug_aranges
                0x00001728       0x18 build/default/debug/NxpNfcRdLib/comps/phPlatform/src/Port/LPC1769/phPlatform_Port_LPC1769.o
 .debug_aranges
                0x00001740       0x18 build/default/debug/NxpNfcRdLib/comps/phPlatform/src/Port/LPCTimer/phPlatform_Port_LPCTimer.o
 .debug_aranges
                0x00001758       0x40 build/default/debug/NxpNfcRdLib/comps/phPlatform/src/Port/PIC32MX/phPlatform_Port_PIC32MX.o
 .debug_aranges
                0x00001798       0xa8 build/default/debug/NxpNfcRdLib/comps/phPlatform/src/Port/PIC32MX/phPlatform_Port_PIC32MXTimer.o
 .debug_aranges
                0x00001840       0x18 build/default/debug/NxpNfcRdLib/comps/phPlatform/src/Port/PN7462AU/phPlatform_Port_PN7462AU.o
 .debug_aranges
                0x00001858       0x18 build/default/debug/NxpNfcRdLib/comps/phPlatform/src/Port/RaspberryPi/phPlatform_Port_Pi.o
 .debug_aranges
                0x00001870       0x18 build/default/debug/NxpNfcRdLib/comps/phPlatform/src/Port/RaspberryPi/phPlatform_Port_PiGpio.o
 .debug_aranges
                0x00001888       0x90 build/default/debug/NxpNfcRdLib/comps/phPlatform/src/phPlatform.o
 .debug_aranges
                0x00001918       0x68 build/default/debug/NxpNfcRdLib/comps/phTools/src/phTools.o
 .debug_aranges
                0x00001980       0x68 build/default/debug/NxpNfcRdLib/comps/phTools/src/phTools_Q.o
 .debug_aranges
                0x000019e8       0x58 build/default/debug/main.o
 .debug_aranges
                0x00001a40       0x20 c:/program files (x86)/microchip/xc32/v2.05/bin/bin/../../lib/gcc/pic32mx/4.8.3\libgcc.a(floatunsisf.o)
 .debug_aranges
                0x00001a60       0x20 c:/program files (x86)/microchip/xc32/v2.05/bin/bin/../../lib/gcc/pic32mx/4.8.3/../../../../pic32mx/lib\libpic32.a(default-bootstrap-exception-handler.o)
 .debug_aranges
                0x00001a80       0x20 c:/program files (x86)/microchip/xc32/v2.05/bin/bin/../../lib/gcc/pic32mx/4.8.3/../../../../pic32mx/lib\libpic32.a(default-on-reset.o)
 .debug_aranges
                0x00001aa0       0x20 c:/program files (x86)/microchip/xc32/v2.05/bin/bin/../../lib/gcc/pic32mx/4.8.3/../../../../pic32mx/lib\libpic32.a(default-on-bootstrap.o)
 .debug_aranges
                0x00001ac0       0x20 c:/program files (x86)/microchip/xc32/v2.05/bin/bin/../../lib/gcc/pic32mx/4.8.3/../../../../pic32mx/lib\libpic32.a(defaultinterrupt.o)

.debug_pubnames
 *(.debug_pubnames)

.debug_info     0x00000000    0x3712f
 *(.debug_info .gnu.linkonce.wi.*)
 .debug_info    0x00000000       0xe2 c:/program files (x86)/microchip/xc32/v2.05/bin/bin/../../lib/gcc/pic32mx/4.8.3/../../../../pic32mx/lib\software-debug-break.o
 .debug_info    0x000000e2      0x885 build/default/debug/mcc_generated_files/tmr2.o
 .debug_info    0x00000967     0x1262 build/default/debug/mcc_generated_files/uart1.o
 .debug_info    0x00001bc9      0x7c5 build/default/debug/mcc_generated_files/interrupt_manager.o
 .debug_info    0x0000238e      0x8b0 build/default/debug/mcc_generated_files/tmr1.o
 .debug_info    0x00002c3e      0x42e build/default/debug/mcc_generated_files/mcc.o
 .debug_info    0x0000306c      0xfe7 build/default/debug/mcc_generated_files/pin_manager.o
 .debug_info    0x00004053      0x658 build/default/debug/mcc_generated_files/spi1.o
 .debug_info    0x000046ab      0x863 build/default/debug/mcc_generated_files/adc1.o
 .debug_info    0x00004f0e      0x636 build/default/debug/mcc_generated_files/spi2.o
 .debug_info    0x00005544     0x1e67 build/default/debug/nxp_reader_config_files/phApp_Init.o
 .debug_info    0x000073ab     0x16fa build/default/debug/NxpNfcRdLib/comps/phacDiscLoop/src/Sw/phacDiscLoop_Sw.o
 .debug_info    0x00008aa5     0x16c1 build/default/debug/NxpNfcRdLib/comps/phacDiscLoop/src/Sw/phacDiscLoop_Sw_Int.o
 .debug_info    0x0000a166     0x1a0a build/default/debug/NxpNfcRdLib/comps/phacDiscLoop/src/Sw/phacDiscLoop_Sw_Int_A.o
 .debug_info    0x0000bb70      0x908 build/default/debug/NxpNfcRdLib/comps/phacDiscLoop/src/Sw/phacDiscLoop_Sw_Int_B.o
 .debug_info    0x0000c478      0x90a build/default/debug/NxpNfcRdLib/comps/phacDiscLoop/src/Sw/phacDiscLoop_Sw_Int_F.o
 .debug_info    0x0000cd82      0x931 build/default/debug/NxpNfcRdLib/comps/phacDiscLoop/src/Sw/phacDiscLoop_Sw_Int_I18000p3m3.o
 .debug_info    0x0000d6b3      0x908 build/default/debug/NxpNfcRdLib/comps/phacDiscLoop/src/Sw/phacDiscLoop_Sw_Int_V.o
 .debug_info    0x0000dfbb      0x15d build/default/debug/NxpNfcRdLib/comps/phacDiscLoop/src/phacDiscLoop.o
 .debug_info    0x0000e118      0x15f build/default/debug/NxpNfcRdLib/comps/phalFelica/src/Sw/phalFelica_Sw.o
 .debug_info    0x0000e277      0x14d build/default/debug/NxpNfcRdLib/comps/phalFelica/src/phalFelica.o
 .debug_info    0x0000e3c4      0x15f build/default/debug/NxpNfcRdLib/comps/phalI15693/src/Sw/phalI15693_Sw.o
 .debug_info    0x0000e523      0x14d build/default/debug/NxpNfcRdLib/comps/phalI15693/src/phalI15693.o
 .debug_info    0x0000e670      0x167 build/default/debug/NxpNfcRdLib/comps/phalI18000p3m3/src/Sw/phalI18000p3m3_Sw.o
 .debug_info    0x0000e7d7      0x15f build/default/debug/NxpNfcRdLib/comps/phalI18000p3m3/src/Sw/phalI18000p3m3_Sw_Int.o
 .debug_info    0x0000e936      0x155 build/default/debug/NxpNfcRdLib/comps/phalI18000p3m3/src/phalI18000p3m3.o
 .debug_info    0x0000ea8b     0x1245 build/default/debug/NxpNfcRdLib/comps/phalMfc/src/Sw/phalMfc_Sw.o
 .debug_info    0x0000fcd0      0x153 build/default/debug/NxpNfcRdLib/comps/phalMfc/src/phalMfc.o
 .debug_info    0x0000fe23      0x54c build/default/debug/NxpNfcRdLib/comps/phalMfc/src/phalMfc_Int.o
 .debug_info    0x0001036f     0x1151 build/default/debug/NxpNfcRdLib/comps/phalMfdf/src/Sw/phalMfdf_Sw.o
 .debug_info    0x000114c0     0x176d build/default/debug/NxpNfcRdLib/comps/phalMfdf/src/Sw/phalMfdf_Sw_Int.o
 .debug_info    0x00012c2d      0x155 build/default/debug/NxpNfcRdLib/comps/phalMfdf/src/phalMfdf.o
 .debug_info    0x00012d82      0x967 build/default/debug/NxpNfcRdLib/comps/phalMfdf/src/phalMfdf_Int.o
 .debug_info    0x000136e9      0x15b build/default/debug/NxpNfcRdLib/comps/phalMful/src/Sw/phalMful_Sw.o
 .debug_info    0x00013844      0x155 build/default/debug/NxpNfcRdLib/comps/phalMful/src/phalMful.o
 .debug_info    0x00013999      0x159 build/default/debug/NxpNfcRdLib/comps/phalMful/src/phalMful_Int.o
 .debug_info    0x00013af2      0x159 build/default/debug/NxpNfcRdLib/comps/phalSli/src/Sw/phalSli_Sw.o
 .debug_info    0x00013c4b      0x147 build/default/debug/NxpNfcRdLib/comps/phalSli/src/phalSli.o
 .debug_info    0x00013d92      0x159 build/default/debug/NxpNfcRdLib/comps/phalT1T/src/Sw/phalT1T_Sw.o
 .debug_info    0x00013eeb      0x147 build/default/debug/NxpNfcRdLib/comps/phalT1T/src/phalT1T.o
 .debug_info    0x00014032      0x159 build/default/debug/NxpNfcRdLib/comps/phalTop/src/Sw/phalTop_Sw.o
 .debug_info    0x0001418b      0x161 build/default/debug/NxpNfcRdLib/comps/phalTop/src/Sw/phalTop_Sw_Int_T1T.o
 .debug_info    0x000142ec      0x161 build/default/debug/NxpNfcRdLib/comps/phalTop/src/Sw/phalTop_Sw_Int_T2T.o
 .debug_info    0x0001444d      0x161 build/default/debug/NxpNfcRdLib/comps/phalTop/src/Sw/phalTop_Sw_Int_T3T.o
 .debug_info    0x000145ae      0x161 build/default/debug/NxpNfcRdLib/comps/phalTop/src/Sw/phalTop_Sw_Int_T4T.o
 .debug_info    0x0001470f      0x161 build/default/debug/NxpNfcRdLib/comps/phalTop/src/Sw/phalTop_Sw_Int_T5T.o
 .debug_info    0x00014870      0x153 build/default/debug/NxpNfcRdLib/comps/phalTop/src/phalTop.o
 .debug_info    0x000149c3      0x15f build/default/debug/NxpNfcRdLib/comps/phbalReg/src/KinetisI2C/phbalReg_KinetisI2C.o
 .debug_info    0x00014b22      0x15f build/default/debug/NxpNfcRdLib/comps/phbalReg/src/KinetisSPI/phbalReg_KinetisSpi.o
 .debug_info    0x00014c81      0x167 build/default/debug/NxpNfcRdLib/comps/phbalReg/src/LinuxKernelSpi/phbalReg_LinuxKernelSpi.o
 .debug_info    0x00014de8      0x163 build/default/debug/NxpNfcRdLib/comps/phbalReg/src/LinuxUserI2C/phbalReg_LinuxUserI2C.o
 .debug_info    0x00014f4b      0x163 build/default/debug/NxpNfcRdLib/comps/phbalReg/src/LinuxUserSpi/phbalReg_LinuxUserSpi.o
 .debug_info    0x000150ae      0x15f build/default/debug/NxpNfcRdLib/comps/phbalReg/src/LpcOpenI2C/phbalReg_LpcOpenI2c.o
 .debug_info    0x0001520d      0x15f build/default/debug/NxpNfcRdLib/comps/phbalReg/src/LpcOpenSPI/phbalReg_LpcOpenSpi.o
 .debug_info    0x0001536c      0xa91 build/default/debug/NxpNfcRdLib/comps/phbalReg/src/Pic32mxSPI/phbalReg_Pic32mxSpi.o
 .debug_info    0x00015dfd      0x149 build/default/debug/NxpNfcRdLib/comps/phbalReg/src/phbalReg.o
 .debug_info    0x00015f46      0x159 build/default/debug/NxpNfcRdLib/comps/phceT4T/src/Sw/phceT4T_Sw.o
 .debug_info    0x0001609f      0x15d build/default/debug/NxpNfcRdLib/comps/phceT4T/src/Sw/phceT4T_Sw_Int.o
 .debug_info    0x000161fc      0x147 build/default/debug/NxpNfcRdLib/comps/phceT4T/src/phceT4T.o
 .debug_info    0x00016343      0x163 build/default/debug/NxpNfcRdLib/comps/phCidManager/src/Sw/phCidManager_Sw.o
 .debug_info    0x000164a6      0x15d build/default/debug/NxpNfcRdLib/comps/phCidManager/src/phCidManager.o
 .debug_info    0x00016603      0x155 build/default/debug/NxpNfcRdLib/comps/phCryptoRng/src/Sw/phCryptoRng_Sw.o
 .debug_info    0x00016758      0x14f build/default/debug/NxpNfcRdLib/comps/phCryptoRng/src/phCryptoRng.o
 .debug_info    0x000168a7      0x161 build/default/debug/NxpNfcRdLib/comps/phCryptoSym/src/Sw/phCryptoSym_Sw.o
 .debug_info    0x00016a08      0x159 build/default/debug/NxpNfcRdLib/comps/phCryptoSym/src/Sw/phCryptoSym_Sw_Aes.o
 .debug_info    0x00016b61      0x159 build/default/debug/NxpNfcRdLib/comps/phCryptoSym/src/Sw/phCryptoSym_Sw_Des.o
 .debug_info    0x00016cba      0x159 build/default/debug/NxpNfcRdLib/comps/phCryptoSym/src/Sw/phCryptoSym_Sw_Int.o
 .debug_info    0x00016e13      0x14f build/default/debug/NxpNfcRdLib/comps/phCryptoSym/src/phCryptoSym.o
 .debug_info    0x00016f62     0x4704 build/default/debug/NxpNfcRdLib/comps/phhalHw/src/Pn5180/phhalHw_Pn5180.o
 .debug_info    0x0001b666     0x2f84 build/default/debug/NxpNfcRdLib/comps/phhalHw/src/Pn5180/phhalHw_Pn5180_Instr.o
 .debug_info    0x0001e5ea     0x1c3f build/default/debug/NxpNfcRdLib/comps/phhalHw/src/Pn5180/phhalHw_Pn5180_Int.o
 .debug_info    0x00020229      0xb83 build/default/debug/NxpNfcRdLib/comps/phhalHw/src/Pn5180/phhalHw_Pn5180_Wait.o
 .debug_info    0x00020dac      0x165 build/default/debug/NxpNfcRdLib/comps/phhalHw/src/PN7462AU/phhalHw_PN7462AU.o
 .debug_info    0x00020f11      0x169 build/default/debug/NxpNfcRdLib/comps/phhalHw/src/PN7462AU/phhalHw_PN7462AU_Int.o
 .debug_info    0x0002107a      0x15f build/default/debug/NxpNfcRdLib/comps/phhalHw/src/Rc523/phhalHw_Rc523.o
 .debug_info    0x000211d9      0x163 build/default/debug/NxpNfcRdLib/comps/phhalHw/src/Rc523/phhalHw_Rc523_Cmd.o
 .debug_info    0x0002133c      0x163 build/default/debug/NxpNfcRdLib/comps/phhalHw/src/Rc523/phhalHw_Rc523_Int.o
 .debug_info    0x0002149f      0x158 build/default/debug/NxpNfcRdLib/comps/phhalHw/src/Rc523/phhalHw_Rc523_Wait.o
 .debug_info    0x000215f7      0x15f build/default/debug/NxpNfcRdLib/comps/phhalHw/src/Rc663/phhalHw_Rc663.o
 .debug_info    0x00021756      0x163 build/default/debug/NxpNfcRdLib/comps/phhalHw/src/Rc663/phhalHw_Rc663_Cmd.o
 .debug_info    0x000218b9      0x163 build/default/debug/NxpNfcRdLib/comps/phhalHw/src/Rc663/phhalHw_Rc663_Int.o
 .debug_info    0x00021a1c      0x158 build/default/debug/NxpNfcRdLib/comps/phhalHw/src/Rc663/phhalHw_Rc663_Wait.o
 .debug_info    0x00021b74      0x829 build/default/debug/NxpNfcRdLib/comps/phhalHw/src/phhalHw.o
 .debug_info    0x0002239d      0x165 build/default/debug/NxpNfcRdLib/comps/phKeyStore/src/Rc663/phKeyStore_Rc663.o
 .debug_info    0x00022502      0xfec build/default/debug/NxpNfcRdLib/comps/phKeyStore/src/Sw/phKeyStore_Sw.o
 .debug_info    0x000234ee      0x1b8 build/default/debug/NxpNfcRdLib/comps/phKeyStore/src/phKeyStore.o
 .debug_info    0x000236a6      0x15b build/default/debug/NxpNfcRdLib/comps/phlnLlcp/src/Sw/phlnLlcp_Sw.o
 .debug_info    0x00023801      0x15f build/default/debug/NxpNfcRdLib/comps/phlnLlcp/src/Sw/phlnLlcp_Sw_Int.o
 .debug_info    0x00023960      0x15f build/default/debug/NxpNfcRdLib/comps/phlnLlcp/src/Sw/phlnLlcp_Sw_Mac.o
 .debug_info    0x00023abf      0x165 build/default/debug/NxpNfcRdLib/comps/phlnLlcp/src/Sw/phlnLlcp_Sw_Transport.o
 .debug_info    0x00023c24      0x170 build/default/debug/NxpNfcRdLib/comps/phlnLlcp/src/Sw/phlnLlcp_Sw_Transport_Connection.o
 .debug_info    0x00023d94      0x174 build/default/debug/NxpNfcRdLib/comps/phlnLlcp/src/Sw/phlnLlcp_Sw_Transport_Connectionless.o
 .debug_info    0x00023f08      0x15f build/default/debug/NxpNfcRdLib/comps/phlnLlcp/src/Sw/phlnLlcp_Timers.o
 .debug_info    0x00024067      0x155 build/default/debug/NxpNfcRdLib/comps/phlnLlcp/src/phlnLlcp.o
 .debug_info    0x000241bc      0x143 build/default/debug/NxpNfcRdLib/comps/phLog/src/phLog.o
 .debug_info    0x000242ff      0x149 build/default/debug/NxpNfcRdLib/comps/phNfcLib/src/phNfcLib.o
 .debug_info    0x00024448      0x15b build/default/debug/NxpNfcRdLib/comps/phNfcLib/src/phNfcLib_15693.o
 .debug_info    0x000245a3      0x15f build/default/debug/NxpNfcRdLib/comps/phNfcLib/src/phNfcLib_18000p3m3.o
 .debug_info    0x00024702      0x159 build/default/debug/NxpNfcRdLib/comps/phNfcLib/src/phNfcLib_MFC.o
 .debug_info    0x0002485b      0x15a build/default/debug/NxpNfcRdLib/comps/phNfcLib/src/phNfcLib_MFDF.o
 .debug_info    0x000249b5      0x15a build/default/debug/NxpNfcRdLib/comps/phNfcLib/src/phNfcLib_MFUL.o
 .debug_info    0x00024b0f      0x15d build/default/debug/NxpNfcRdLib/comps/phNfcLib/src/phNfcLib_Utility.o
 .debug_info    0x00024c6c      0x15b build/default/debug/NxpNfcRdLib/comps/phnpSnep/src/Sw/phnpSnep_Sw.o
 .debug_info    0x00024dc7      0x155 build/default/debug/NxpNfcRdLib/comps/phnpSnep/src/phnpSnep.o
 .debug_info    0x00024f1c      0x157 build/default/debug/NxpNfcRdLib/comps/phOsal/src/Freertos/phOsal_Freertos.o
 .debug_info    0x00025073      0x151 build/default/debug/NxpNfcRdLib/comps/phOsal/src/Linux/phOsal_Linux.o
 .debug_info    0x000251c4     0x1f70 build/default/debug/NxpNfcRdLib/comps/phOsal/src/NullOs/phOsal_NullOs.o
 .debug_info    0x00027134      0x161 build/default/debug/NxpNfcRdLib/comps/phpalEpcUid/src/Sw/phpalEpcUid_Sw.o
 .debug_info    0x00027295      0x14f build/default/debug/NxpNfcRdLib/comps/phpalEpcUid/src/phpalEpcUid.o
 .debug_info    0x000273e4      0x161 build/default/debug/NxpNfcRdLib/comps/phpalFelica/src/Sw/phpalFelica_Sw.o
 .debug_info    0x00027545      0x15b build/default/debug/NxpNfcRdLib/comps/phpalFelica/src/phpalFelica.o
 .debug_info    0x000276a0     0x16dc build/default/debug/NxpNfcRdLib/comps/phpalI14443p3a/src/Sw/phpalI14443p3a_Sw.o
 .debug_info    0x00028d7c      0x161 build/default/debug/NxpNfcRdLib/comps/phpalI14443p3a/src/phpalI14443p3a.o
 .debug_info    0x00028edd      0x167 build/default/debug/NxpNfcRdLib/comps/phpalI14443p3b/src/Sw/phpalI14443p3b_Sw.o
 .debug_info    0x00029044      0x161 build/default/debug/NxpNfcRdLib/comps/phpalI14443p3b/src/phpalI14443p3b.o
 .debug_info    0x000291a5     0x1a53 build/default/debug/NxpNfcRdLib/comps/phpalI14443p4/src/Sw/phpalI14443p4_Sw.o
 .debug_info    0x0002abf8      0x15f build/default/debug/NxpNfcRdLib/comps/phpalI14443p4/src/phpalI14443p4.o
 .debug_info    0x0002ad57      0xf96 build/default/debug/NxpNfcRdLib/comps/phpalI14443p4a/src/Sw/phpalI14443p4a_Sw.o
 .debug_info    0x0002bced      0x161 build/default/debug/NxpNfcRdLib/comps/phpalI14443p4a/src/phpalI14443p4a.o
 .debug_info    0x0002be4e      0x169 build/default/debug/NxpNfcRdLib/comps/phpalI14443p4mC/src/Sw/phpalI14443p4mC_Sw.o
 .debug_info    0x0002bfb7      0x16d build/default/debug/NxpNfcRdLib/comps/phpalI14443p4mC/src/Sw/phpalI14443p4mC_Sw_Int.o
 .debug_info    0x0002c124      0x163 build/default/debug/NxpNfcRdLib/comps/phpalI14443p4mC/src/phpalI14443p4mC.o
 .debug_info    0x0002c287      0x169 build/default/debug/NxpNfcRdLib/comps/phpalI18000p3m3/src/Sw/phpalI18000p3m3_Sw.o
 .debug_info    0x0002c3f0      0x163 build/default/debug/NxpNfcRdLib/comps/phpalI18000p3m3/src/phpalI18000p3m3.o
 .debug_info    0x0002c553      0x167 build/default/debug/NxpNfcRdLib/comps/phpalI18092mPI/src/Sw/phpalI18092mPI_Sw.o
 .debug_info    0x0002c6ba      0x16b build/default/debug/NxpNfcRdLib/comps/phpalI18092mPI/src/Sw/phpalI18092mPI_Sw_Int.o
 .debug_info    0x0002c825      0x161 build/default/debug/NxpNfcRdLib/comps/phpalI18092mPI/src/phpalI18092mPI.o
 .debug_info    0x0002c986      0x165 build/default/debug/NxpNfcRdLib/comps/phpalI18092mT/src/Sw/phpalI18092mT_Sw.o
 .debug_info    0x0002caeb      0x169 build/default/debug/NxpNfcRdLib/comps/phpalI18092mT/src/Sw/phpalI18092mT_Sw_Int.o
 .debug_info    0x0002cc54      0x15f build/default/debug/NxpNfcRdLib/comps/phpalI18092mT/src/phpalI18092mT.o
 .debug_info    0x0002cdb3     0x14a4 build/default/debug/NxpNfcRdLib/comps/phpalMifare/src/Sw/phpalMifare_Sw.o
 .debug_info    0x0002e257      0x15b build/default/debug/NxpNfcRdLib/comps/phpalMifare/src/phpalMifare.o
 .debug_info    0x0002e3b2      0x165 build/default/debug/NxpNfcRdLib/comps/phpalSli15693/src/Sw/phpalSli15693_Sw.o
 .debug_info    0x0002e517      0x15f build/default/debug/NxpNfcRdLib/comps/phpalSli15693/src/phpalSli15693.o
 .debug_info    0x0002e676      0x15f build/default/debug/NxpNfcRdLib/comps/phPlatform/src/Port/K81/phPlatform_Port_K81.o
 .debug_info    0x0002e7d5      0x168 build/default/debug/NxpNfcRdLib/comps/phPlatform/src/Port/K81/phPlatform_Port_KinetisTimer.o
 .debug_info    0x0002e93d      0x15f build/default/debug/NxpNfcRdLib/comps/phPlatform/src/Port/K82/phPlatform_Port_K82.o
 .debug_info    0x0002ea9c      0x164 build/default/debug/NxpNfcRdLib/comps/phPlatform/src/Port/K82/phPlatform_Port_K82Timer.o
 .debug_info    0x0002ec00      0x169 build/default/debug/NxpNfcRdLib/comps/phPlatform/src/Port/LPC11u68/phPlatform_Port_LPC11u68.o
 .debug_info    0x0002ed69      0x165 build/default/debug/NxpNfcRdLib/comps/phPlatform/src/Port/LPC1769/cr_startup_lpc175x_6x.o
 .debug_info    0x0002eece      0x160 build/default/debug/NxpNfcRdLib/comps/phPlatform/src/Port/LPC1769/keil_iar_sysinit.o
 .debug_info    0x0002f02e      0x167 build/default/debug/NxpNfcRdLib/comps/phPlatform/src/Port/LPC1769/phPlatform_Port_LPC1769.o
 .debug_info    0x0002f195      0x169 build/default/debug/NxpNfcRdLib/comps/phPlatform/src/Port/LPCTimer/phPlatform_Port_LPCTimer.o
 .debug_info    0x0002f2fe      0xd56 build/default/debug/NxpNfcRdLib/comps/phPlatform/src/Port/PIC32MX/phPlatform_Port_PIC32MX.o
 .debug_info    0x00030054      0x8cd build/default/debug/NxpNfcRdLib/comps/phPlatform/src/Port/PIC32MX/phPlatform_Port_PIC32MXTimer.o
 .debug_info    0x00030921      0x169 build/default/debug/NxpNfcRdLib/comps/phPlatform/src/Port/PN7462AU/phPlatform_Port_PN7462AU.o
 .debug_info    0x00030a8a      0x166 build/default/debug/NxpNfcRdLib/comps/phPlatform/src/Port/RaspberryPi/phPlatform_Port_Pi.o
 .debug_info    0x00030bf0      0x16a build/default/debug/NxpNfcRdLib/comps/phPlatform/src/Port/RaspberryPi/phPlatform_Port_PiGpio.o
 .debug_info    0x00030d5a     0x1757 build/default/debug/NxpNfcRdLib/comps/phPlatform/src/phPlatform.o
 .debug_info    0x000324b1      0x9ff build/default/debug/NxpNfcRdLib/comps/phTools/src/phTools.o
 .debug_info    0x00032eb0      0xec2 build/default/debug/NxpNfcRdLib/comps/phTools/src/phTools_Q.o
 .debug_info    0x00033d72     0x2f17 build/default/debug/main.o
 .debug_info    0x00036c89      0x12d c:/program files (x86)/microchip/xc32/v2.05/bin/bin/../../lib/gcc/pic32mx/4.8.3\libgcc.a(floatunsisf.o)
 .debug_info    0x00036db6       0xf3 c:/program files (x86)/microchip/xc32/v2.05/bin/bin/../../lib/gcc/pic32mx/4.8.3/../../../../pic32mx/lib\libpic32.a(default-bootstrap-exception-handler.o)
 .debug_info    0x00036ea9       0xcc c:/program files (x86)/microchip/xc32/v2.05/bin/bin/../../lib/gcc/pic32mx/4.8.3/../../../../pic32mx/lib\libpic32.a(default-on-reset.o)
 .debug_info    0x00036f75       0xd4 c:/program files (x86)/microchip/xc32/v2.05/bin/bin/../../lib/gcc/pic32mx/4.8.3/../../../../pic32mx/lib\libpic32.a(default-on-bootstrap.o)
 .debug_info    0x00037049       0xe6 c:/program files (x86)/microchip/xc32/v2.05/bin/bin/../../lib/gcc/pic32mx/4.8.3/../../../../pic32mx/lib\libpic32.a(defaultinterrupt.o)

.debug_abbrev   0x00000000     0x550c
 *(.debug_abbrev)
 .debug_abbrev  0x00000000       0x28 c:/program files (x86)/microchip/xc32/v2.05/bin/bin/../../lib/gcc/pic32mx/4.8.3/../../../../pic32mx/lib\software-debug-break.o
 .debug_abbrev  0x00000028      0x173 build/default/debug/mcc_generated_files/tmr2.o
 .debug_abbrev  0x0000019b      0x219 build/default/debug/mcc_generated_files/uart1.o
 .debug_abbrev  0x000003b4       0xa4 build/default/debug/mcc_generated_files/interrupt_manager.o
 .debug_abbrev  0x00000458      0x1d8 build/default/debug/mcc_generated_files/tmr1.o
 .debug_abbrev  0x00000630       0xde build/default/debug/mcc_generated_files/mcc.o
 .debug_abbrev  0x0000070e       0xd3 build/default/debug/mcc_generated_files/pin_manager.o
 .debug_abbrev  0x000007e1      0x197 build/default/debug/mcc_generated_files/spi1.o
 .debug_abbrev  0x00000978      0x126 build/default/debug/mcc_generated_files/adc1.o
 .debug_abbrev  0x00000a9e      0x197 build/default/debug/mcc_generated_files/spi2.o
 .debug_abbrev  0x00000c35      0x21c build/default/debug/nxp_reader_config_files/phApp_Init.o
 .debug_abbrev  0x00000e51      0x23c build/default/debug/NxpNfcRdLib/comps/phacDiscLoop/src/Sw/phacDiscLoop_Sw.o
 .debug_abbrev  0x0000108d      0x24d build/default/debug/NxpNfcRdLib/comps/phacDiscLoop/src/Sw/phacDiscLoop_Sw_Int.o
 .debug_abbrev  0x000012da      0x212 build/default/debug/NxpNfcRdLib/comps/phacDiscLoop/src/Sw/phacDiscLoop_Sw_Int_A.o
 .debug_abbrev  0x000014ec       0xf6 build/default/debug/NxpNfcRdLib/comps/phacDiscLoop/src/Sw/phacDiscLoop_Sw_Int_B.o
 .debug_abbrev  0x000015e2      0x112 build/default/debug/NxpNfcRdLib/comps/phacDiscLoop/src/Sw/phacDiscLoop_Sw_Int_F.o
 .debug_abbrev  0x000016f4       0xf6 build/default/debug/NxpNfcRdLib/comps/phacDiscLoop/src/Sw/phacDiscLoop_Sw_Int_I18000p3m3.o
 .debug_abbrev  0x000017ea       0xf6 build/default/debug/NxpNfcRdLib/comps/phacDiscLoop/src/Sw/phacDiscLoop_Sw_Int_V.o
 .debug_abbrev  0x000018e0       0x1b build/default/debug/NxpNfcRdLib/comps/phacDiscLoop/src/phacDiscLoop.o
 .debug_abbrev  0x000018fb       0x1b build/default/debug/NxpNfcRdLib/comps/phalFelica/src/Sw/phalFelica_Sw.o
 .debug_abbrev  0x00001916       0x1b build/default/debug/NxpNfcRdLib/comps/phalFelica/src/phalFelica.o
 .debug_abbrev  0x00001931       0x1b build/default/debug/NxpNfcRdLib/comps/phalI15693/src/Sw/phalI15693_Sw.o
 .debug_abbrev  0x0000194c       0x1b build/default/debug/NxpNfcRdLib/comps/phalI15693/src/phalI15693.o
 .debug_abbrev  0x00001967       0x1b build/default/debug/NxpNfcRdLib/comps/phalI18000p3m3/src/Sw/phalI18000p3m3_Sw.o
 .debug_abbrev  0x00001982       0x1b build/default/debug/NxpNfcRdLib/comps/phalI18000p3m3/src/Sw/phalI18000p3m3_Sw_Int.o
 .debug_abbrev  0x0000199d       0x1b build/default/debug/NxpNfcRdLib/comps/phalI18000p3m3/src/phalI18000p3m3.o
 .debug_abbrev  0x000019b8      0x1ce build/default/debug/NxpNfcRdLib/comps/phalMfc/src/Sw/phalMfc_Sw.o
 .debug_abbrev  0x00001b86       0x1b build/default/debug/NxpNfcRdLib/comps/phalMfc/src/phalMfc.o
 .debug_abbrev  0x00001ba1      0x113 build/default/debug/NxpNfcRdLib/comps/phalMfc/src/phalMfc_Int.o
 .debug_abbrev  0x00001cb4      0x1ec build/default/debug/NxpNfcRdLib/comps/phalMfdf/src/Sw/phalMfdf_Sw.o
 .debug_abbrev  0x00001ea0      0x232 build/default/debug/NxpNfcRdLib/comps/phalMfdf/src/Sw/phalMfdf_Sw_Int.o
 .debug_abbrev  0x000020d2       0x1b build/default/debug/NxpNfcRdLib/comps/phalMfdf/src/phalMfdf.o
 .debug_abbrev  0x000020ed      0x131 build/default/debug/NxpNfcRdLib/comps/phalMfdf/src/phalMfdf_Int.o
 .debug_abbrev  0x0000221e       0x1b build/default/debug/NxpNfcRdLib/comps/phalMful/src/Sw/phalMful_Sw.o
 .debug_abbrev  0x00002239       0x1b build/default/debug/NxpNfcRdLib/comps/phalMful/src/phalMful.o
 .debug_abbrev  0x00002254       0x1b build/default/debug/NxpNfcRdLib/comps/phalMful/src/phalMful_Int.o
 .debug_abbrev  0x0000226f       0x1b build/default/debug/NxpNfcRdLib/comps/phalSli/src/Sw/phalSli_Sw.o
 .debug_abbrev  0x0000228a       0x1b build/default/debug/NxpNfcRdLib/comps/phalSli/src/phalSli.o
 .debug_abbrev  0x000022a5       0x1b build/default/debug/NxpNfcRdLib/comps/phalT1T/src/Sw/phalT1T_Sw.o
 .debug_abbrev  0x000022c0       0x1b build/default/debug/NxpNfcRdLib/comps/phalT1T/src/phalT1T.o
 .debug_abbrev  0x000022db       0x1b build/default/debug/NxpNfcRdLib/comps/phalTop/src/Sw/phalTop_Sw.o
 .debug_abbrev  0x000022f6       0x1b build/default/debug/NxpNfcRdLib/comps/phalTop/src/Sw/phalTop_Sw_Int_T1T.o
 .debug_abbrev  0x00002311       0x1b build/default/debug/NxpNfcRdLib/comps/phalTop/src/Sw/phalTop_Sw_Int_T2T.o
 .debug_abbrev  0x0000232c       0x1b build/default/debug/NxpNfcRdLib/comps/phalTop/src/Sw/phalTop_Sw_Int_T3T.o
 .debug_abbrev  0x00002347       0x1b build/default/debug/NxpNfcRdLib/comps/phalTop/src/Sw/phalTop_Sw_Int_T4T.o
 .debug_abbrev  0x00002362       0x1b build/default/debug/NxpNfcRdLib/comps/phalTop/src/Sw/phalTop_Sw_Int_T5T.o
 .debug_abbrev  0x0000237d       0x1b build/default/debug/NxpNfcRdLib/comps/phalTop/src/phalTop.o
 .debug_abbrev  0x00002398       0x1b build/default/debug/NxpNfcRdLib/comps/phbalReg/src/KinetisI2C/phbalReg_KinetisI2C.o
 .debug_abbrev  0x000023b3       0x1b build/default/debug/NxpNfcRdLib/comps/phbalReg/src/KinetisSPI/phbalReg_KinetisSpi.o
 .debug_abbrev  0x000023ce       0x1b build/default/debug/NxpNfcRdLib/comps/phbalReg/src/LinuxKernelSpi/phbalReg_LinuxKernelSpi.o
 .debug_abbrev  0x000023e9       0x1b build/default/debug/NxpNfcRdLib/comps/phbalReg/src/LinuxUserI2C/phbalReg_LinuxUserI2C.o
 .debug_abbrev  0x00002404       0x1b build/default/debug/NxpNfcRdLib/comps/phbalReg/src/LinuxUserSpi/phbalReg_LinuxUserSpi.o
 .debug_abbrev  0x0000241f       0x1b build/default/debug/NxpNfcRdLib/comps/phbalReg/src/LpcOpenI2C/phbalReg_LpcOpenI2c.o
 .debug_abbrev  0x0000243a       0x1b build/default/debug/NxpNfcRdLib/comps/phbalReg/src/LpcOpenSPI/phbalReg_LpcOpenSpi.o
 .debug_abbrev  0x00002455      0x192 build/default/debug/NxpNfcRdLib/comps/phbalReg/src/Pic32mxSPI/phbalReg_Pic32mxSpi.o
 .debug_abbrev  0x000025e7       0x1b build/default/debug/NxpNfcRdLib/comps/phbalReg/src/phbalReg.o
 .debug_abbrev  0x00002602       0x1b build/default/debug/NxpNfcRdLib/comps/phceT4T/src/Sw/phceT4T_Sw.o
 .debug_abbrev  0x0000261d       0x1b build/default/debug/NxpNfcRdLib/comps/phceT4T/src/Sw/phceT4T_Sw_Int.o
 .debug_abbrev  0x00002638       0x1b build/default/debug/NxpNfcRdLib/comps/phceT4T/src/phceT4T.o
 .debug_abbrev  0x00002653       0x1b build/default/debug/NxpNfcRdLib/comps/phCidManager/src/Sw/phCidManager_Sw.o
 .debug_abbrev  0x0000266e       0x1b build/default/debug/NxpNfcRdLib/comps/phCidManager/src/phCidManager.o
 .debug_abbrev  0x00002689       0x1b build/default/debug/NxpNfcRdLib/comps/phCryptoRng/src/Sw/phCryptoRng_Sw.o
 .debug_abbrev  0x000026a4       0x1b build/default/debug/NxpNfcRdLib/comps/phCryptoRng/src/phCryptoRng.o
 .debug_abbrev  0x000026bf       0x1b build/default/debug/NxpNfcRdLib/comps/phCryptoSym/src/Sw/phCryptoSym_Sw.o
 .debug_abbrev  0x000026da       0x1b build/default/debug/NxpNfcRdLib/comps/phCryptoSym/src/Sw/phCryptoSym_Sw_Aes.o
 .debug_abbrev  0x000026f5       0x1b build/default/debug/NxpNfcRdLib/comps/phCryptoSym/src/Sw/phCryptoSym_Sw_Des.o
 .debug_abbrev  0x00002710       0x1b build/default/debug/NxpNfcRdLib/comps/phCryptoSym/src/Sw/phCryptoSym_Sw_Int.o
 .debug_abbrev  0x0000272b       0x1b build/default/debug/NxpNfcRdLib/comps/phCryptoSym/src/phCryptoSym.o
 .debug_abbrev  0x00002746      0x2d4 build/default/debug/NxpNfcRdLib/comps/phhalHw/src/Pn5180/phhalHw_Pn5180.o
 .debug_abbrev  0x00002a1a      0x27c build/default/debug/NxpNfcRdLib/comps/phhalHw/src/Pn5180/phhalHw_Pn5180_Instr.o
 .debug_abbrev  0x00002c96      0x272 build/default/debug/NxpNfcRdLib/comps/phhalHw/src/Pn5180/phhalHw_Pn5180_Int.o
 .debug_abbrev  0x00002f08      0x186 build/default/debug/NxpNfcRdLib/comps/phhalHw/src/Pn5180/phhalHw_Pn5180_Wait.o
 .debug_abbrev  0x0000308e       0x1b build/default/debug/NxpNfcRdLib/comps/phhalHw/src/PN7462AU/phhalHw_PN7462AU.o
 .debug_abbrev  0x000030a9       0x1b build/default/debug/NxpNfcRdLib/comps/phhalHw/src/PN7462AU/phhalHw_PN7462AU_Int.o
 .debug_abbrev  0x000030c4       0x1b build/default/debug/NxpNfcRdLib/comps/phhalHw/src/Rc523/phhalHw_Rc523.o
 .debug_abbrev  0x000030df       0x1b build/default/debug/NxpNfcRdLib/comps/phhalHw/src/Rc523/phhalHw_Rc523_Cmd.o
 .debug_abbrev  0x000030fa       0x1b build/default/debug/NxpNfcRdLib/comps/phhalHw/src/Rc523/phhalHw_Rc523_Int.o
 .debug_abbrev  0x00003115       0x1b build/default/debug/NxpNfcRdLib/comps/phhalHw/src/Rc523/phhalHw_Rc523_Wait.o
 .debug_abbrev  0x00003130       0x1b build/default/debug/NxpNfcRdLib/comps/phhalHw/src/Rc663/phhalHw_Rc663.o
 .debug_abbrev  0x0000314b       0x1b build/default/debug/NxpNfcRdLib/comps/phhalHw/src/Rc663/phhalHw_Rc663_Cmd.o
 .debug_abbrev  0x00003166       0x1b build/default/debug/NxpNfcRdLib/comps/phhalHw/src/Rc663/phhalHw_Rc663_Int.o
 .debug_abbrev  0x00003181       0x1b build/default/debug/NxpNfcRdLib/comps/phhalHw/src/Rc663/phhalHw_Rc663_Wait.o
 .debug_abbrev  0x0000319c      0x143 build/default/debug/NxpNfcRdLib/comps/phhalHw/src/phhalHw.o
 .debug_abbrev  0x000032df       0x1b build/default/debug/NxpNfcRdLib/comps/phKeyStore/src/Rc663/phKeyStore_Rc663.o
 .debug_abbrev  0x000032fa      0x1d5 build/default/debug/NxpNfcRdLib/comps/phKeyStore/src/Sw/phKeyStore_Sw.o
 .debug_abbrev  0x000034cf       0x57 build/default/debug/NxpNfcRdLib/comps/phKeyStore/src/phKeyStore.o
 .debug_abbrev  0x00003526       0x1b build/default/debug/NxpNfcRdLib/comps/phlnLlcp/src/Sw/phlnLlcp_Sw.o
 .debug_abbrev  0x00003541       0x1b build/default/debug/NxpNfcRdLib/comps/phlnLlcp/src/Sw/phlnLlcp_Sw_Int.o
 .debug_abbrev  0x0000355c       0x1b build/default/debug/NxpNfcRdLib/comps/phlnLlcp/src/Sw/phlnLlcp_Sw_Mac.o
 .debug_abbrev  0x00003577       0x1b build/default/debug/NxpNfcRdLib/comps/phlnLlcp/src/Sw/phlnLlcp_Sw_Transport.o
 .debug_abbrev  0x00003592       0x1b build/default/debug/NxpNfcRdLib/comps/phlnLlcp/src/Sw/phlnLlcp_Sw_Transport_Connection.o
 .debug_abbrev  0x000035ad       0x1b build/default/debug/NxpNfcRdLib/comps/phlnLlcp/src/Sw/phlnLlcp_Sw_Transport_Connectionless.o
 .debug_abbrev  0x000035c8       0x1b build/default/debug/NxpNfcRdLib/comps/phlnLlcp/src/Sw/phlnLlcp_Timers.o
 .debug_abbrev  0x000035e3       0x1b build/default/debug/NxpNfcRdLib/comps/phlnLlcp/src/phlnLlcp.o
 .debug_abbrev  0x000035fe       0x1b build/default/debug/NxpNfcRdLib/comps/phLog/src/phLog.o
 .debug_abbrev  0x00003619       0x1b build/default/debug/NxpNfcRdLib/comps/phNfcLib/src/phNfcLib.o
 .debug_abbrev  0x00003634       0x1b build/default/debug/NxpNfcRdLib/comps/phNfcLib/src/phNfcLib_15693.o
 .debug_abbrev  0x0000364f       0x1b build/default/debug/NxpNfcRdLib/comps/phNfcLib/src/phNfcLib_18000p3m3.o
 .debug_abbrev  0x0000366a       0x1b build/default/debug/NxpNfcRdLib/comps/phNfcLib/src/phNfcLib_MFC.o
 .debug_abbrev  0x00003685       0x1b build/default/debug/NxpNfcRdLib/comps/phNfcLib/src/phNfcLib_MFDF.o
 .debug_abbrev  0x000036a0       0x1b build/default/debug/NxpNfcRdLib/comps/phNfcLib/src/phNfcLib_MFUL.o
 .debug_abbrev  0x000036bb       0x1b build/default/debug/NxpNfcRdLib/comps/phNfcLib/src/phNfcLib_Utility.o
 .debug_abbrev  0x000036d6       0x1b build/default/debug/NxpNfcRdLib/comps/phnpSnep/src/Sw/phnpSnep_Sw.o
 .debug_abbrev  0x000036f1       0x1b build/default/debug/NxpNfcRdLib/comps/phnpSnep/src/phnpSnep.o
 .debug_abbrev  0x0000370c       0x1b build/default/debug/NxpNfcRdLib/comps/phOsal/src/Freertos/phOsal_Freertos.o
 .debug_abbrev  0x00003727       0x1b build/default/debug/NxpNfcRdLib/comps/phOsal/src/Linux/phOsal_Linux.o
 .debug_abbrev  0x00003742      0x2fb build/default/debug/NxpNfcRdLib/comps/phOsal/src/NullOs/phOsal_NullOs.o
 .debug_abbrev  0x00003a3d       0x1b build/default/debug/NxpNfcRdLib/comps/phpalEpcUid/src/Sw/phpalEpcUid_Sw.o
 .debug_abbrev  0x00003a58       0x1b build/default/debug/NxpNfcRdLib/comps/phpalEpcUid/src/phpalEpcUid.o
 .debug_abbrev  0x00003a73       0x1b build/default/debug/NxpNfcRdLib/comps/phpalFelica/src/Sw/phpalFelica_Sw.o
 .debug_abbrev  0x00003a8e       0x1b build/default/debug/NxpNfcRdLib/comps/phpalFelica/src/phpalFelica.o
 .debug_abbrev  0x00003aa9      0x241 build/default/debug/NxpNfcRdLib/comps/phpalI14443p3a/src/Sw/phpalI14443p3a_Sw.o
 .debug_abbrev  0x00003cea       0x1b build/default/debug/NxpNfcRdLib/comps/phpalI14443p3a/src/phpalI14443p3a.o
 .debug_abbrev  0x00003d05       0x1b build/default/debug/NxpNfcRdLib/comps/phpalI14443p3b/src/Sw/phpalI14443p3b_Sw.o
 .debug_abbrev  0x00003d20       0x1b build/default/debug/NxpNfcRdLib/comps/phpalI14443p3b/src/phpalI14443p3b.o
 .debug_abbrev  0x00003d3b      0x266 build/default/debug/NxpNfcRdLib/comps/phpalI14443p4/src/Sw/phpalI14443p4_Sw.o
 .debug_abbrev  0x00003fa1       0x1b build/default/debug/NxpNfcRdLib/comps/phpalI14443p4/src/phpalI14443p4.o
 .debug_abbrev  0x00003fbc      0x254 build/default/debug/NxpNfcRdLib/comps/phpalI14443p4a/src/Sw/phpalI14443p4a_Sw.o
 .debug_abbrev  0x00004210       0x1b build/default/debug/NxpNfcRdLib/comps/phpalI14443p4a/src/phpalI14443p4a.o
 .debug_abbrev  0x0000422b       0x1b build/default/debug/NxpNfcRdLib/comps/phpalI14443p4mC/src/Sw/phpalI14443p4mC_Sw.o
 .debug_abbrev  0x00004246       0x1b build/default/debug/NxpNfcRdLib/comps/phpalI14443p4mC/src/Sw/phpalI14443p4mC_Sw_Int.o
 .debug_abbrev  0x00004261       0x1b build/default/debug/NxpNfcRdLib/comps/phpalI14443p4mC/src/phpalI14443p4mC.o
 .debug_abbrev  0x0000427c       0x1b build/default/debug/NxpNfcRdLib/comps/phpalI18000p3m3/src/Sw/phpalI18000p3m3_Sw.o
 .debug_abbrev  0x00004297       0x1b build/default/debug/NxpNfcRdLib/comps/phpalI18000p3m3/src/phpalI18000p3m3.o
 .debug_abbrev  0x000042b2       0x1b build/default/debug/NxpNfcRdLib/comps/phpalI18092mPI/src/Sw/phpalI18092mPI_Sw.o
 .debug_abbrev  0x000042cd       0x1b build/default/debug/NxpNfcRdLib/comps/phpalI18092mPI/src/Sw/phpalI18092mPI_Sw_Int.o
 .debug_abbrev  0x000042e8       0x1b build/default/debug/NxpNfcRdLib/comps/phpalI18092mPI/src/phpalI18092mPI.o
 .debug_abbrev  0x00004303       0x1b build/default/debug/NxpNfcRdLib/comps/phpalI18092mT/src/Sw/phpalI18092mT_Sw.o
 .debug_abbrev  0x0000431e       0x1b build/default/debug/NxpNfcRdLib/comps/phpalI18092mT/src/Sw/phpalI18092mT_Sw_Int.o
 .debug_abbrev  0x00004339       0x1b build/default/debug/NxpNfcRdLib/comps/phpalI18092mT/src/phpalI18092mT.o
 .debug_abbrev  0x00004354      0x240 build/default/debug/NxpNfcRdLib/comps/phpalMifare/src/Sw/phpalMifare_Sw.o
 .debug_abbrev  0x00004594       0x1b build/default/debug/NxpNfcRdLib/comps/phpalMifare/src/phpalMifare.o
 .debug_abbrev  0x000045af       0x1b build/default/debug/NxpNfcRdLib/comps/phpalSli15693/src/Sw/phpalSli15693_Sw.o
 .debug_abbrev  0x000045ca       0x1b build/default/debug/NxpNfcRdLib/comps/phpalSli15693/src/phpalSli15693.o
 .debug_abbrev  0x000045e5       0x1b build/default/debug/NxpNfcRdLib/comps/phPlatform/src/Port/K81/phPlatform_Port_K81.o
 .debug_abbrev  0x00004600       0x1b build/default/debug/NxpNfcRdLib/comps/phPlatform/src/Port/K81/phPlatform_Port_KinetisTimer.o
 .debug_abbrev  0x0000461b       0x1b build/default/debug/NxpNfcRdLib/comps/phPlatform/src/Port/K82/phPlatform_Port_K82.o
 .debug_abbrev  0x00004636       0x1b build/default/debug/NxpNfcRdLib/comps/phPlatform/src/Port/K82/phPlatform_Port_K82Timer.o
 .debug_abbrev  0x00004651       0x1b build/default/debug/NxpNfcRdLib/comps/phPlatform/src/Port/LPC11u68/phPlatform_Port_LPC11u68.o
 .debug_abbrev  0x0000466c       0x1b build/default/debug/NxpNfcRdLib/comps/phPlatform/src/Port/LPC1769/cr_startup_lpc175x_6x.o
 .debug_abbrev  0x00004687       0x1b build/default/debug/NxpNfcRdLib/comps/phPlatform/src/Port/LPC1769/keil_iar_sysinit.o
 .debug_abbrev  0x000046a2       0x1b build/default/debug/NxpNfcRdLib/comps/phPlatform/src/Port/LPC1769/phPlatform_Port_LPC1769.o
 .debug_abbrev  0x000046bd       0x1b build/default/debug/NxpNfcRdLib/comps/phPlatform/src/Port/LPCTimer/phPlatform_Port_LPCTimer.o
 .debug_abbrev  0x000046d8      0x153 build/default/debug/NxpNfcRdLib/comps/phPlatform/src/Port/PIC32MX/phPlatform_Port_PIC32MX.o
 .debug_abbrev  0x0000482b      0x18c build/default/debug/NxpNfcRdLib/comps/phPlatform/src/Port/PIC32MX/phPlatform_Port_PIC32MXTimer.o
 .debug_abbrev  0x000049b7       0x1b build/default/debug/NxpNfcRdLib/comps/phPlatform/src/Port/PN7462AU/phPlatform_Port_PN7462AU.o
 .debug_abbrev  0x000049d2       0x1b build/default/debug/NxpNfcRdLib/comps/phPlatform/src/Port/RaspberryPi/phPlatform_Port_Pi.o
 .debug_abbrev  0x000049ed       0x1b build/default/debug/NxpNfcRdLib/comps/phPlatform/src/Port/RaspberryPi/phPlatform_Port_PiGpio.o
 .debug_abbrev  0x00004a08      0x2af build/default/debug/NxpNfcRdLib/comps/phPlatform/src/phPlatform.o
 .debug_abbrev  0x00004cb7      0x1bc build/default/debug/NxpNfcRdLib/comps/phTools/src/phTools.o
 .debug_abbrev  0x00004e73      0x223 build/default/debug/NxpNfcRdLib/comps/phTools/src/phTools_Q.o
 .debug_abbrev  0x00005096      0x374 build/default/debug/main.o
 .debug_abbrev  0x0000540a       0x62 c:/program files (x86)/microchip/xc32/v2.05/bin/bin/../../lib/gcc/pic32mx/4.8.3\libgcc.a(floatunsisf.o)
 .debug_abbrev  0x0000546c       0x28 c:/program files (x86)/microchip/xc32/v2.05/bin/bin/../../lib/gcc/pic32mx/4.8.3/../../../../pic32mx/lib\libpic32.a(default-bootstrap-exception-handler.o)
 .debug_abbrev  0x00005494       0x28 c:/program files (x86)/microchip/xc32/v2.05/bin/bin/../../lib/gcc/pic32mx/4.8.3/../../../../pic32mx/lib\libpic32.a(default-on-reset.o)
 .debug_abbrev  0x000054bc       0x28 c:/program files (x86)/microchip/xc32/v2.05/bin/bin/../../lib/gcc/pic32mx/4.8.3/../../../../pic32mx/lib\libpic32.a(default-on-bootstrap.o)
 .debug_abbrev  0x000054e4       0x28 c:/program files (x86)/microchip/xc32/v2.05/bin/bin/../../lib/gcc/pic32mx/4.8.3/../../../../pic32mx/lib\libpic32.a(defaultinterrupt.o)

.debug_line     0x00000000     0xaabc
 *(.debug_line)
 .debug_line    0x00000000       0x98 c:/program files (x86)/microchip/xc32/v2.05/bin/bin/../../lib/gcc/pic32mx/4.8.3/../../../../pic32mx/lib\software-debug-break.o
 .debug_line    0x00000098      0x20d build/default/debug/mcc_generated_files/tmr2.o
 .debug_line    0x000002a5      0x2d0 build/default/debug/mcc_generated_files/uart1.o
 .debug_line    0x00000575      0x14c build/default/debug/mcc_generated_files/interrupt_manager.o
 .debug_line    0x000006c1      0x211 build/default/debug/mcc_generated_files/tmr1.o
 .debug_line    0x000008d2      0x1ea build/default/debug/mcc_generated_files/mcc.o
 .debug_line    0x00000abc      0x188 build/default/debug/mcc_generated_files/pin_manager.o
 .debug_line    0x00000c44      0x1cb build/default/debug/mcc_generated_files/spi1.o
 .debug_line    0x00000e0f      0x1c3 build/default/debug/mcc_generated_files/adc1.o
 .debug_line    0x00000fd2      0x1cd build/default/debug/mcc_generated_files/spi2.o
 .debug_line    0x0000119f      0x421 build/default/debug/nxp_reader_config_files/phApp_Init.o
 .debug_line    0x000015c0      0x558 build/default/debug/NxpNfcRdLib/comps/phacDiscLoop/src/Sw/phacDiscLoop_Sw.o
 .debug_line    0x00001b18      0x3f6 build/default/debug/NxpNfcRdLib/comps/phacDiscLoop/src/Sw/phacDiscLoop_Sw_Int.o
 .debug_line    0x00001f0e      0x53a build/default/debug/NxpNfcRdLib/comps/phacDiscLoop/src/Sw/phacDiscLoop_Sw_Int_A.o
 .debug_line    0x00002448      0x1de build/default/debug/NxpNfcRdLib/comps/phacDiscLoop/src/Sw/phacDiscLoop_Sw_Int_B.o
 .debug_line    0x00002626      0x1e0 build/default/debug/NxpNfcRdLib/comps/phacDiscLoop/src/Sw/phacDiscLoop_Sw_Int_F.o
 .debug_line    0x00002806      0x1e8 build/default/debug/NxpNfcRdLib/comps/phacDiscLoop/src/Sw/phacDiscLoop_Sw_Int_I18000p3m3.o
 .debug_line    0x000029ee      0x1dd build/default/debug/NxpNfcRdLib/comps/phacDiscLoop/src/Sw/phacDiscLoop_Sw_Int_V.o
 .debug_line    0x00002bcb       0x1d build/default/debug/NxpNfcRdLib/comps/phacDiscLoop/src/phacDiscLoop.o
 .debug_line    0x00002be8       0x1d build/default/debug/NxpNfcRdLib/comps/phalFelica/src/Sw/phalFelica_Sw.o
 .debug_line    0x00002c05       0x1d build/default/debug/NxpNfcRdLib/comps/phalFelica/src/phalFelica.o
 .debug_line    0x00002c22       0x1d build/default/debug/NxpNfcRdLib/comps/phalI15693/src/Sw/phalI15693_Sw.o
 .debug_line    0x00002c3f       0x1d build/default/debug/NxpNfcRdLib/comps/phalI15693/src/phalI15693.o
 .debug_line    0x00002c5c       0x1d build/default/debug/NxpNfcRdLib/comps/phalI18000p3m3/src/Sw/phalI18000p3m3_Sw.o
 .debug_line    0x00002c79       0x1d build/default/debug/NxpNfcRdLib/comps/phalI18000p3m3/src/Sw/phalI18000p3m3_Sw_Int.o
 .debug_line    0x00002c96       0x1d build/default/debug/NxpNfcRdLib/comps/phalI18000p3m3/src/phalI18000p3m3.o
 .debug_line    0x00002cb3      0x4d4 build/default/debug/NxpNfcRdLib/comps/phalMfc/src/Sw/phalMfc_Sw.o
 .debug_line    0x00003187       0x1d build/default/debug/NxpNfcRdLib/comps/phalMfc/src/phalMfc.o
 .debug_line    0x000031a4      0x2b7 build/default/debug/NxpNfcRdLib/comps/phalMfc/src/phalMfc_Int.o
 .debug_line    0x0000345b      0x404 build/default/debug/NxpNfcRdLib/comps/phalMfdf/src/Sw/phalMfdf_Sw.o
 .debug_line    0x0000385f      0x588 build/default/debug/NxpNfcRdLib/comps/phalMfdf/src/Sw/phalMfdf_Sw_Int.o
 .debug_line    0x00003de7       0x1d build/default/debug/NxpNfcRdLib/comps/phalMfdf/src/phalMfdf.o
 .debug_line    0x00003e04      0x33b build/default/debug/NxpNfcRdLib/comps/phalMfdf/src/phalMfdf_Int.o
 .debug_line    0x0000413f       0x1d build/default/debug/NxpNfcRdLib/comps/phalMful/src/Sw/phalMful_Sw.o
 .debug_line    0x0000415c       0x1d build/default/debug/NxpNfcRdLib/comps/phalMful/src/phalMful.o
 .debug_line    0x00004179       0x1d build/default/debug/NxpNfcRdLib/comps/phalMful/src/phalMful_Int.o
 .debug_line    0x00004196       0x1d build/default/debug/NxpNfcRdLib/comps/phalSli/src/Sw/phalSli_Sw.o
 .debug_line    0x000041b3       0x1d build/default/debug/NxpNfcRdLib/comps/phalSli/src/phalSli.o
 .debug_line    0x000041d0       0x1d build/default/debug/NxpNfcRdLib/comps/phalT1T/src/Sw/phalT1T_Sw.o
 .debug_line    0x000041ed       0x1d build/default/debug/NxpNfcRdLib/comps/phalT1T/src/phalT1T.o
 .debug_line    0x0000420a       0x1d build/default/debug/NxpNfcRdLib/comps/phalTop/src/Sw/phalTop_Sw.o
 .debug_line    0x00004227       0x1d build/default/debug/NxpNfcRdLib/comps/phalTop/src/Sw/phalTop_Sw_Int_T1T.o
 .debug_line    0x00004244       0x1d build/default/debug/NxpNfcRdLib/comps/phalTop/src/Sw/phalTop_Sw_Int_T2T.o
 .debug_line    0x00004261       0x1d build/default/debug/NxpNfcRdLib/comps/phalTop/src/Sw/phalTop_Sw_Int_T3T.o
 .debug_line    0x0000427e       0x1d build/default/debug/NxpNfcRdLib/comps/phalTop/src/Sw/phalTop_Sw_Int_T4T.o
 .debug_line    0x0000429b       0x1d build/default/debug/NxpNfcRdLib/comps/phalTop/src/Sw/phalTop_Sw_Int_T5T.o
 .debug_line    0x000042b8       0x1d build/default/debug/NxpNfcRdLib/comps/phalTop/src/phalTop.o
 .debug_line    0x000042d5       0x1d build/default/debug/NxpNfcRdLib/comps/phbalReg/src/KinetisI2C/phbalReg_KinetisI2C.o
 .debug_line    0x000042f2       0x1d build/default/debug/NxpNfcRdLib/comps/phbalReg/src/KinetisSPI/phbalReg_KinetisSpi.o
 .debug_line    0x0000430f       0x1d build/default/debug/NxpNfcRdLib/comps/phbalReg/src/LinuxKernelSpi/phbalReg_LinuxKernelSpi.o
 .debug_line    0x0000432c       0x1d build/default/debug/NxpNfcRdLib/comps/phbalReg/src/LinuxUserI2C/phbalReg_LinuxUserI2C.o
 .debug_line    0x00004349       0x1d build/default/debug/NxpNfcRdLib/comps/phbalReg/src/LinuxUserSpi/phbalReg_LinuxUserSpi.o
 .debug_line    0x00004366       0x1d build/default/debug/NxpNfcRdLib/comps/phbalReg/src/LpcOpenI2C/phbalReg_LpcOpenI2c.o
 .debug_line    0x00004383       0x1d build/default/debug/NxpNfcRdLib/comps/phbalReg/src/LpcOpenSPI/phbalReg_LpcOpenSpi.o
 .debug_line    0x000043a0      0x31b build/default/debug/NxpNfcRdLib/comps/phbalReg/src/Pic32mxSPI/phbalReg_Pic32mxSpi.o
 .debug_line    0x000046bb       0x1d build/default/debug/NxpNfcRdLib/comps/phbalReg/src/phbalReg.o
 .debug_line    0x000046d8       0x1d build/default/debug/NxpNfcRdLib/comps/phceT4T/src/Sw/phceT4T_Sw.o
 .debug_line    0x000046f5       0x1d build/default/debug/NxpNfcRdLib/comps/phceT4T/src/Sw/phceT4T_Sw_Int.o
 .debug_line    0x00004712       0x1d build/default/debug/NxpNfcRdLib/comps/phceT4T/src/phceT4T.o
 .debug_line    0x0000472f       0x1d build/default/debug/NxpNfcRdLib/comps/phCidManager/src/Sw/phCidManager_Sw.o
 .debug_line    0x0000474c       0x1d build/default/debug/NxpNfcRdLib/comps/phCidManager/src/phCidManager.o
 .debug_line    0x00004769       0x1d build/default/debug/NxpNfcRdLib/comps/phCryptoRng/src/Sw/phCryptoRng_Sw.o
 .debug_line    0x00004786       0x1d build/default/debug/NxpNfcRdLib/comps/phCryptoRng/src/phCryptoRng.o
 .debug_line    0x000047a3       0x1d build/default/debug/NxpNfcRdLib/comps/phCryptoSym/src/Sw/phCryptoSym_Sw.o
 .debug_line    0x000047c0       0x1d build/default/debug/NxpNfcRdLib/comps/phCryptoSym/src/Sw/phCryptoSym_Sw_Aes.o
 .debug_line    0x000047dd       0x1d build/default/debug/NxpNfcRdLib/comps/phCryptoSym/src/Sw/phCryptoSym_Sw_Des.o
 .debug_line    0x000047fa       0x1d build/default/debug/NxpNfcRdLib/comps/phCryptoSym/src/Sw/phCryptoSym_Sw_Int.o
 .debug_line    0x00004817       0x1d build/default/debug/NxpNfcRdLib/comps/phCryptoSym/src/phCryptoSym.o
 .debug_line    0x00004834      0xcd9 build/default/debug/NxpNfcRdLib/comps/phhalHw/src/Pn5180/phhalHw_Pn5180.o
 .debug_line    0x0000550d      0x7f0 build/default/debug/NxpNfcRdLib/comps/phhalHw/src/Pn5180/phhalHw_Pn5180_Instr.o
 .debug_line    0x00005cfd      0x80c build/default/debug/NxpNfcRdLib/comps/phhalHw/src/Pn5180/phhalHw_Pn5180_Int.o
 .debug_line    0x00006509      0x216 build/default/debug/NxpNfcRdLib/comps/phhalHw/src/Pn5180/phhalHw_Pn5180_Wait.o
 .debug_line    0x0000671f       0x1d build/default/debug/NxpNfcRdLib/comps/phhalHw/src/PN7462AU/phhalHw_PN7462AU.o
 .debug_line    0x0000673c       0x1d build/default/debug/NxpNfcRdLib/comps/phhalHw/src/PN7462AU/phhalHw_PN7462AU_Int.o
 .debug_line    0x00006759       0x1d build/default/debug/NxpNfcRdLib/comps/phhalHw/src/Rc523/phhalHw_Rc523.o
 .debug_line    0x00006776       0x1d build/default/debug/NxpNfcRdLib/comps/phhalHw/src/Rc523/phhalHw_Rc523_Cmd.o
 .debug_line    0x00006793       0x1d build/default/debug/NxpNfcRdLib/comps/phhalHw/src/Rc523/phhalHw_Rc523_Int.o
 .debug_line    0x000067b0       0x1d build/default/debug/NxpNfcRdLib/comps/phhalHw/src/Rc523/phhalHw_Rc523_Wait.o
 .debug_line    0x000067cd       0x1d build/default/debug/NxpNfcRdLib/comps/phhalHw/src/Rc663/phhalHw_Rc663.o
 .debug_line    0x000067ea       0x1d build/default/debug/NxpNfcRdLib/comps/phhalHw/src/Rc663/phhalHw_Rc663_Cmd.o
 .debug_line    0x00006807       0x1d build/default/debug/NxpNfcRdLib/comps/phhalHw/src/Rc663/phhalHw_Rc663_Int.o
 .debug_line    0x00006824       0x1d build/default/debug/NxpNfcRdLib/comps/phhalHw/src/Rc663/phhalHw_Rc663_Wait.o
 .debug_line    0x00006841      0x1ad build/default/debug/NxpNfcRdLib/comps/phhalHw/src/phhalHw.o
 .debug_line    0x000069ee       0x1d build/default/debug/NxpNfcRdLib/comps/phKeyStore/src/Rc663/phKeyStore_Rc663.o
 .debug_line    0x00006a0b      0x470 build/default/debug/NxpNfcRdLib/comps/phKeyStore/src/Sw/phKeyStore_Sw.o
 .debug_line    0x00006e7b       0xf4 build/default/debug/NxpNfcRdLib/comps/phKeyStore/src/phKeyStore.o
 .debug_line    0x00006f6f       0x1d build/default/debug/NxpNfcRdLib/comps/phlnLlcp/src/Sw/phlnLlcp_Sw.o
 .debug_line    0x00006f8c       0x1d build/default/debug/NxpNfcRdLib/comps/phlnLlcp/src/Sw/phlnLlcp_Sw_Int.o
 .debug_line    0x00006fa9       0x1d build/default/debug/NxpNfcRdLib/comps/phlnLlcp/src/Sw/phlnLlcp_Sw_Mac.o
 .debug_line    0x00006fc6       0x1d build/default/debug/NxpNfcRdLib/comps/phlnLlcp/src/Sw/phlnLlcp_Sw_Transport.o
 .debug_line    0x00006fe3       0x1d build/default/debug/NxpNfcRdLib/comps/phlnLlcp/src/Sw/phlnLlcp_Sw_Transport_Connection.o
 .debug_line    0x00007000       0x1d build/default/debug/NxpNfcRdLib/comps/phlnLlcp/src/Sw/phlnLlcp_Sw_Transport_Connectionless.o
 .debug_line    0x0000701d       0x1d build/default/debug/NxpNfcRdLib/comps/phlnLlcp/src/Sw/phlnLlcp_Timers.o
 .debug_line    0x0000703a       0x1d build/default/debug/NxpNfcRdLib/comps/phlnLlcp/src/phlnLlcp.o
 .debug_line    0x00007057       0x1d build/default/debug/NxpNfcRdLib/comps/phLog/src/phLog.o
 .debug_line    0x00007074       0x1d build/default/debug/NxpNfcRdLib/comps/phNfcLib/src/phNfcLib.o
 .debug_line    0x00007091       0x1d build/default/debug/NxpNfcRdLib/comps/phNfcLib/src/phNfcLib_15693.o
 .debug_line    0x000070ae       0x1d build/default/debug/NxpNfcRdLib/comps/phNfcLib/src/phNfcLib_18000p3m3.o
 .debug_line    0x000070cb       0x1d build/default/debug/NxpNfcRdLib/comps/phNfcLib/src/phNfcLib_MFC.o
 .debug_line    0x000070e8       0x1d build/default/debug/NxpNfcRdLib/comps/phNfcLib/src/phNfcLib_MFDF.o
 .debug_line    0x00007105       0x1d build/default/debug/NxpNfcRdLib/comps/phNfcLib/src/phNfcLib_MFUL.o
 .debug_line    0x00007122       0x1d build/default/debug/NxpNfcRdLib/comps/phNfcLib/src/phNfcLib_Utility.o
 .debug_line    0x0000713f       0x1d build/default/debug/NxpNfcRdLib/comps/phnpSnep/src/Sw/phnpSnep_Sw.o
 .debug_line    0x0000715c       0x1d build/default/debug/NxpNfcRdLib/comps/phnpSnep/src/phnpSnep.o
 .debug_line    0x00007179       0x1d build/default/debug/NxpNfcRdLib/comps/phOsal/src/Freertos/phOsal_Freertos.o
 .debug_line    0x00007196       0x1d build/default/debug/NxpNfcRdLib/comps/phOsal/src/Linux/phOsal_Linux.o
 .debug_line    0x000071b3      0x4bf build/default/debug/NxpNfcRdLib/comps/phOsal/src/NullOs/phOsal_NullOs.o
 .debug_line    0x00007672       0x1d build/default/debug/NxpNfcRdLib/comps/phpalEpcUid/src/Sw/phpalEpcUid_Sw.o
 .debug_line    0x0000768f       0x1d build/default/debug/NxpNfcRdLib/comps/phpalEpcUid/src/phpalEpcUid.o
 .debug_line    0x000076ac       0x1d build/default/debug/NxpNfcRdLib/comps/phpalFelica/src/Sw/phpalFelica_Sw.o
 .debug_line    0x000076c9       0x1d build/default/debug/NxpNfcRdLib/comps/phpalFelica/src/phpalFelica.o
 .debug_line    0x000076e6      0x4f8 build/default/debug/NxpNfcRdLib/comps/phpalI14443p3a/src/Sw/phpalI14443p3a_Sw.o
 .debug_line    0x00007bde       0x1d build/default/debug/NxpNfcRdLib/comps/phpalI14443p3a/src/phpalI14443p3a.o
 .debug_line    0x00007bfb       0x1d build/default/debug/NxpNfcRdLib/comps/phpalI14443p3b/src/Sw/phpalI14443p3b_Sw.o
 .debug_line    0x00007c18       0x1d build/default/debug/NxpNfcRdLib/comps/phpalI14443p3b/src/phpalI14443p3b.o
 .debug_line    0x00007c35      0x6b9 build/default/debug/NxpNfcRdLib/comps/phpalI14443p4/src/Sw/phpalI14443p4_Sw.o
 .debug_line    0x000082ee       0x1d build/default/debug/NxpNfcRdLib/comps/phpalI14443p4/src/phpalI14443p4.o
 .debug_line    0x0000830b      0x418 build/default/debug/NxpNfcRdLib/comps/phpalI14443p4a/src/Sw/phpalI14443p4a_Sw.o
 .debug_line    0x00008723       0x1d build/default/debug/NxpNfcRdLib/comps/phpalI14443p4a/src/phpalI14443p4a.o
 .debug_line    0x00008740       0x1d build/default/debug/NxpNfcRdLib/comps/phpalI14443p4mC/src/Sw/phpalI14443p4mC_Sw.o
 .debug_line    0x0000875d       0x1d build/default/debug/NxpNfcRdLib/comps/phpalI14443p4mC/src/Sw/phpalI14443p4mC_Sw_Int.o
 .debug_line    0x0000877a       0x1d build/default/debug/NxpNfcRdLib/comps/phpalI14443p4mC/src/phpalI14443p4mC.o
 .debug_line    0x00008797       0x1d build/default/debug/NxpNfcRdLib/comps/phpalI18000p3m3/src/Sw/phpalI18000p3m3_Sw.o
 .debug_line    0x000087b4       0x1d build/default/debug/NxpNfcRdLib/comps/phpalI18000p3m3/src/phpalI18000p3m3.o
 .debug_line    0x000087d1       0x1d build/default/debug/NxpNfcRdLib/comps/phpalI18092mPI/src/Sw/phpalI18092mPI_Sw.o
 .debug_line    0x000087ee       0x1d build/default/debug/NxpNfcRdLib/comps/phpalI18092mPI/src/Sw/phpalI18092mPI_Sw_Int.o
 .debug_line    0x0000880b       0x1d build/default/debug/NxpNfcRdLib/comps/phpalI18092mPI/src/phpalI18092mPI.o
 .debug_line    0x00008828       0x1d build/default/debug/NxpNfcRdLib/comps/phpalI18092mT/src/Sw/phpalI18092mT_Sw.o
 .debug_line    0x00008845       0x1d build/default/debug/NxpNfcRdLib/comps/phpalI18092mT/src/Sw/phpalI18092mT_Sw_Int.o
 .debug_line    0x00008862       0x1d build/default/debug/NxpNfcRdLib/comps/phpalI18092mT/src/phpalI18092mT.o
 .debug_line    0x0000887f      0x445 build/default/debug/NxpNfcRdLib/comps/phpalMifare/src/Sw/phpalMifare_Sw.o
 .debug_line    0x00008cc4       0x1d build/default/debug/NxpNfcRdLib/comps/phpalMifare/src/phpalMifare.o
 .debug_line    0x00008ce1       0x1d build/default/debug/NxpNfcRdLib/comps/phpalSli15693/src/Sw/phpalSli15693_Sw.o
 .debug_line    0x00008cfe       0x1d build/default/debug/NxpNfcRdLib/comps/phpalSli15693/src/phpalSli15693.o
 .debug_line    0x00008d1b       0x1d build/default/debug/NxpNfcRdLib/comps/phPlatform/src/Port/K81/phPlatform_Port_K81.o
 .debug_line    0x00008d38       0x1d build/default/debug/NxpNfcRdLib/comps/phPlatform/src/Port/K81/phPlatform_Port_KinetisTimer.o
 .debug_line    0x00008d55       0x1d build/default/debug/NxpNfcRdLib/comps/phPlatform/src/Port/K82/phPlatform_Port_K82.o
 .debug_line    0x00008d72       0x1d build/default/debug/NxpNfcRdLib/comps/phPlatform/src/Port/K82/phPlatform_Port_K82Timer.o
 .debug_line    0x00008d8f        0x0 build/default/debug/NxpNfcRdLib/comps/phPlatform/src/Port/LPC11u68/cr_startup_lpc11u6x.o
 .debug_line    0x00008d8f       0x1d build/default/debug/NxpNfcRdLib/comps/phPlatform/src/Port/LPC11u68/phPlatform_Port_LPC11u68.o
 .debug_line    0x00008dac       0x1d build/default/debug/NxpNfcRdLib/comps/phPlatform/src/Port/LPC1769/cr_startup_lpc175x_6x.o
 .debug_line    0x00008dc9       0x1d build/default/debug/NxpNfcRdLib/comps/phPlatform/src/Port/LPC1769/keil_iar_sysinit.o
 .debug_line    0x00008de6       0x1d build/default/debug/NxpNfcRdLib/comps/phPlatform/src/Port/LPC1769/phPlatform_Port_LPC1769.o
 .debug_line    0x00008e03       0x1d build/default/debug/NxpNfcRdLib/comps/phPlatform/src/Port/LPCTimer/phPlatform_Port_LPCTimer.o
 .debug_line    0x00008e20      0x2f7 build/default/debug/NxpNfcRdLib/comps/phPlatform/src/Port/PIC32MX/phPlatform_Port_PIC32MX.o
 .debug_line    0x00009117      0x374 build/default/debug/NxpNfcRdLib/comps/phPlatform/src/Port/PIC32MX/phPlatform_Port_PIC32MXTimer.o
 .debug_line    0x0000948b       0x1d build/default/debug/NxpNfcRdLib/comps/phPlatform/src/Port/PN7462AU/phPlatform_Port_PN7462AU.o
 .debug_line    0x000094a8       0x1d build/default/debug/NxpNfcRdLib/comps/phPlatform/src/Port/RaspberryPi/phPlatform_Port_Pi.o
 .debug_line    0x000094c5       0x1d build/default/debug/NxpNfcRdLib/comps/phPlatform/src/Port/RaspberryPi/phPlatform_Port_PiGpio.o
 .debug_line    0x000094e2      0x3df build/default/debug/NxpNfcRdLib/comps/phPlatform/src/phPlatform.o
 .debug_line    0x000098c1      0x3e5 build/default/debug/NxpNfcRdLib/comps/phTools/src/phTools.o
 .debug_line    0x00009ca6      0x2d6 build/default/debug/NxpNfcRdLib/comps/phTools/src/phTools_Q.o
 .debug_line    0x00009f7c      0x837 build/default/debug/main.o
 .debug_line    0x0000a7b3       0x98 c:/program files (x86)/microchip/xc32/v2.05/bin/bin/../../lib/gcc/pic32mx/4.8.3\libgcc.a(floatunsisf.o)
 .debug_line    0x0000a84b       0xa5 c:/program files (x86)/microchip/xc32/v2.05/bin/bin/../../lib/gcc/pic32mx/4.8.3/../../../../pic32mx/lib\libpic32.a(default-bootstrap-exception-handler.o)
 .debug_line    0x0000a8f0       0x92 c:/program files (x86)/microchip/xc32/v2.05/bin/bin/../../lib/gcc/pic32mx/4.8.3/../../../../pic32mx/lib\libpic32.a(default-on-reset.o)
 .debug_line    0x0000a982       0x96 c:/program files (x86)/microchip/xc32/v2.05/bin/bin/../../lib/gcc/pic32mx/4.8.3/../../../../pic32mx/lib\libpic32.a(default-on-bootstrap.o)
 .debug_line    0x0000aa18       0xa4 c:/program files (x86)/microchip/xc32/v2.05/bin/bin/../../lib/gcc/pic32mx/4.8.3/../../../../pic32mx/lib\libpic32.a(defaultinterrupt.o)

.debug_frame    0x00000000     0x32e0
 *(.debug_frame)
 .debug_frame   0x00000000       0x20 c:/program files (x86)/microchip/xc32/v2.05/bin/bin/../../lib/gcc/pic32mx/4.8.3/../../../../pic32mx/lib\software-debug-break.o
 .debug_frame   0x00000020      0x1a4 build/default/debug/mcc_generated_files/tmr2.o
 .debug_frame   0x000001c4      0x1b4 build/default/debug/mcc_generated_files/uart1.o
 .debug_frame   0x00000378       0x30 build/default/debug/mcc_generated_files/interrupt_manager.o
 .debug_frame   0x000003a8      0x1a4 build/default/debug/mcc_generated_files/tmr1.o
 .debug_frame   0x0000054c       0xa4 build/default/debug/mcc_generated_files/mcc.o
 .debug_frame   0x000005f0       0x8c build/default/debug/mcc_generated_files/pin_manager.o
 .debug_frame   0x0000067c       0xc8 build/default/debug/mcc_generated_files/spi1.o
 .debug_frame   0x00000744      0x100 build/default/debug/mcc_generated_files/adc1.o
 .debug_frame   0x00000844       0xc8 build/default/debug/mcc_generated_files/spi2.o
 .debug_frame   0x0000090c       0xe8 build/default/debug/nxp_reader_config_files/phApp_Init.o
 .debug_frame   0x000009f4       0xb0 build/default/debug/NxpNfcRdLib/comps/phacDiscLoop/src/Sw/phacDiscLoop_Sw.o
 .debug_frame   0x00000aa4      0x180 build/default/debug/NxpNfcRdLib/comps/phacDiscLoop/src/Sw/phacDiscLoop_Sw_Int.o
 .debug_frame   0x00000c24       0x70 build/default/debug/NxpNfcRdLib/comps/phacDiscLoop/src/Sw/phacDiscLoop_Sw_Int_A.o
 .debug_frame   0x00000c94       0x64 build/default/debug/NxpNfcRdLib/comps/phacDiscLoop/src/Sw/phacDiscLoop_Sw_Int_B.o
 .debug_frame   0x00000cf8       0x64 build/default/debug/NxpNfcRdLib/comps/phacDiscLoop/src/Sw/phacDiscLoop_Sw_Int_F.o
 .debug_frame   0x00000d5c       0x64 build/default/debug/NxpNfcRdLib/comps/phacDiscLoop/src/Sw/phacDiscLoop_Sw_Int_I18000p3m3.o
 .debug_frame   0x00000dc0       0x64 build/default/debug/NxpNfcRdLib/comps/phacDiscLoop/src/Sw/phacDiscLoop_Sw_Int_V.o
 .debug_frame   0x00000e24      0x1f0 build/default/debug/NxpNfcRdLib/comps/phalMfc/src/Sw/phalMfc_Sw.o
 .debug_frame   0x00001014       0xb0 build/default/debug/NxpNfcRdLib/comps/phalMfc/src/phalMfc_Int.o
 .debug_frame   0x000010c4      0x170 build/default/debug/NxpNfcRdLib/comps/phalMfdf/src/Sw/phalMfdf_Sw.o
 .debug_frame   0x00001234       0xb0 build/default/debug/NxpNfcRdLib/comps/phalMfdf/src/Sw/phalMfdf_Sw_Int.o
 .debug_frame   0x000012e4       0x70 build/default/debug/NxpNfcRdLib/comps/phalMfdf/src/phalMfdf_Int.o
 .debug_frame   0x00001354       0xf8 build/default/debug/NxpNfcRdLib/comps/phbalReg/src/Pic32mxSPI/phbalReg_Pic32mxSpi.o
 .debug_frame   0x0000144c      0x374 build/default/debug/NxpNfcRdLib/comps/phhalHw/src/Pn5180/phhalHw_Pn5180.o
 .debug_frame   0x000017c0      0x448 build/default/debug/NxpNfcRdLib/comps/phhalHw/src/Pn5180/phhalHw_Pn5180_Instr.o
 .debug_frame   0x00001c08      0x1d0 build/default/debug/NxpNfcRdLib/comps/phhalHw/src/Pn5180/phhalHw_Pn5180_Int.o
 .debug_frame   0x00001dd8       0x30 build/default/debug/NxpNfcRdLib/comps/phhalHw/src/Pn5180/phhalHw_Pn5180_Wait.o
 .debug_frame   0x00001e08       0x30 build/default/debug/NxpNfcRdLib/comps/phhalHw/src/phhalHw.o
 .debug_frame   0x00001e38      0x228 build/default/debug/NxpNfcRdLib/comps/phKeyStore/src/Sw/phKeyStore_Sw.o
 .debug_frame   0x00002060       0x30 build/default/debug/NxpNfcRdLib/comps/phKeyStore/src/phKeyStore.o
 .debug_frame   0x00002090      0x3c4 build/default/debug/NxpNfcRdLib/comps/phOsal/src/NullOs/phOsal_NullOs.o
 .debug_frame   0x00002454      0x190 build/default/debug/NxpNfcRdLib/comps/phpalI14443p3a/src/Sw/phpalI14443p3a_Sw.o
 .debug_frame   0x000025e4      0x1f0 build/default/debug/NxpNfcRdLib/comps/phpalI14443p4/src/Sw/phpalI14443p4_Sw.o
 .debug_frame   0x000027d4       0xd0 build/default/debug/NxpNfcRdLib/comps/phpalI14443p4a/src/Sw/phpalI14443p4a_Sw.o
 .debug_frame   0x000028a4      0x110 build/default/debug/NxpNfcRdLib/comps/phpalMifare/src/Sw/phpalMifare_Sw.o
 .debug_frame   0x000029b4       0xa8 build/default/debug/NxpNfcRdLib/comps/phPlatform/src/Port/PIC32MX/phPlatform_Port_PIC32MX.o
 .debug_frame   0x00002a5c      0x230 build/default/debug/NxpNfcRdLib/comps/phPlatform/src/Port/PIC32MX/phPlatform_Port_PIC32MXTimer.o
 .debug_frame   0x00002c8c      0x1f0 build/default/debug/NxpNfcRdLib/comps/phPlatform/src/phPlatform.o
 .debug_frame   0x00002e7c      0x154 build/default/debug/NxpNfcRdLib/comps/phTools/src/phTools.o
 .debug_frame   0x00002fd0      0x150 build/default/debug/NxpNfcRdLib/comps/phTools/src/phTools_Q.o
 .debug_frame   0x00003120      0x10c build/default/debug/main.o
 .debug_frame   0x0000322c       0x28 c:/program files (x86)/microchip/xc32/v2.05/bin/bin/../../lib/gcc/pic32mx/4.8.3\libgcc.a(floatunsisf.o)
 .debug_frame   0x00003254       0x2c c:/program files (x86)/microchip/xc32/v2.05/bin/bin/../../lib/gcc/pic32mx/4.8.3/../../../../pic32mx/lib\libpic32.a(default-bootstrap-exception-handler.o)
 .debug_frame   0x00003280       0x20 c:/program files (x86)/microchip/xc32/v2.05/bin/bin/../../lib/gcc/pic32mx/4.8.3/../../../../pic32mx/lib\libpic32.a(default-on-reset.o)
 .debug_frame   0x000032a0       0x20 c:/program files (x86)/microchip/xc32/v2.05/bin/bin/../../lib/gcc/pic32mx/4.8.3/../../../../pic32mx/lib\libpic32.a(default-on-bootstrap.o)
 .debug_frame   0x000032c0       0x20 c:/program files (x86)/microchip/xc32/v2.05/bin/bin/../../lib/gcc/pic32mx/4.8.3/../../../../pic32mx/lib\libpic32.a(defaultinterrupt.o)

.debug_str      0x00000000      0xe35
 *(.debug_str)
 .debug_str     0x00000000        0x0 c:/program files (x86)/microchip/xc32/v2.05/bin/bin/../../lib/gcc/pic32mx/4.8.3/../../../../pic32mx/lib\software-debug-break.o
 .debug_str     0x00000000        0x0 build/default/debug/mcc_generated_files/tmr2.o
 .debug_str     0x00000000        0x0 build/default/debug/mcc_generated_files/uart1.o
 .debug_str     0x00000000        0x0 build/default/debug/mcc_generated_files/interrupt_manager.o
 .debug_str     0x00000000        0x0 build/default/debug/mcc_generated_files/tmr1.o
 .debug_str     0x00000000        0x0 build/default/debug/mcc_generated_files/mcc.o
 .debug_str     0x00000000        0x0 build/default/debug/mcc_generated_files/pin_manager.o
 .debug_str     0x00000000       0x2e build/default/debug/mcc_generated_files/spi1.o
 .debug_str     0x0000002e        0x0 build/default/debug/mcc_generated_files/adc1.o
 .debug_str     0x0000002e       0x2e build/default/debug/mcc_generated_files/spi2.o
 .debug_str     0x0000005c       0x51 build/default/debug/nxp_reader_config_files/phApp_Init.o
 .debug_str     0x000000ad       0x24 build/default/debug/NxpNfcRdLib/comps/phacDiscLoop/src/Sw/phacDiscLoop_Sw.o
 .debug_str     0x000000d1       0x67 build/default/debug/NxpNfcRdLib/comps/phacDiscLoop/src/Sw/phacDiscLoop_Sw_Int.o
 .debug_str     0x00000138       0x51 build/default/debug/NxpNfcRdLib/comps/phacDiscLoop/src/Sw/phacDiscLoop_Sw_Int_A.o
 .debug_str     0x00000189        0xc build/default/debug/NxpNfcRdLib/comps/phacDiscLoop/src/Sw/phacDiscLoop_Sw_Int_B.o
 .debug_str     0x00000195        0xc build/default/debug/NxpNfcRdLib/comps/phacDiscLoop/src/Sw/phacDiscLoop_Sw_Int_F.o
 .debug_str     0x000001a1        0xc build/default/debug/NxpNfcRdLib/comps/phacDiscLoop/src/Sw/phacDiscLoop_Sw_Int_I18000p3m3.o
 .debug_str     0x000001ad        0xc build/default/debug/NxpNfcRdLib/comps/phacDiscLoop/src/Sw/phacDiscLoop_Sw_Int_V.o
 .debug_str     0x000001b9        0x0 build/default/debug/NxpNfcRdLib/comps/phacDiscLoop/src/phacDiscLoop.o
 .debug_str     0x000001b9        0x0 build/default/debug/NxpNfcRdLib/comps/phalFelica/src/Sw/phalFelica_Sw.o
 .debug_str     0x000001b9        0x0 build/default/debug/NxpNfcRdLib/comps/phalFelica/src/phalFelica.o
 .debug_str     0x000001b9        0x0 build/default/debug/NxpNfcRdLib/comps/phalI15693/src/Sw/phalI15693_Sw.o
 .debug_str     0x000001b9        0x0 build/default/debug/NxpNfcRdLib/comps/phalI15693/src/phalI15693.o
 .debug_str     0x000001b9        0x0 build/default/debug/NxpNfcRdLib/comps/phalI18000p3m3/src/Sw/phalI18000p3m3_Sw.o
 .debug_str     0x000001b9        0x0 build/default/debug/NxpNfcRdLib/comps/phalI18000p3m3/src/Sw/phalI18000p3m3_Sw_Int.o
 .debug_str     0x000001b9        0x0 build/default/debug/NxpNfcRdLib/comps/phalI18000p3m3/src/phalI18000p3m3.o
 .debug_str     0x000001b9       0x8f build/default/debug/NxpNfcRdLib/comps/phalMfc/src/Sw/phalMfc_Sw.o
 .debug_str     0x00000248        0x0 build/default/debug/NxpNfcRdLib/comps/phalMfc/src/phalMfc.o
 .debug_str     0x00000248       0x3b build/default/debug/NxpNfcRdLib/comps/phalMfc/src/phalMfc_Int.o
 .debug_str     0x00000283       0x9c build/default/debug/NxpNfcRdLib/comps/phalMfdf/src/Sw/phalMfdf_Sw.o
 .debug_str     0x0000031f       0xaa build/default/debug/NxpNfcRdLib/comps/phalMfdf/src/Sw/phalMfdf_Sw_Int.o
 .debug_str     0x000003c9        0x0 build/default/debug/NxpNfcRdLib/comps/phalMfdf/src/phalMfdf.o
 .debug_str     0x000003c9       0x47 build/default/debug/NxpNfcRdLib/comps/phalMfdf/src/phalMfdf_Int.o
 .debug_str     0x00000410        0x0 build/default/debug/NxpNfcRdLib/comps/phalMful/src/Sw/phalMful_Sw.o
 .debug_str     0x00000410        0x0 build/default/debug/NxpNfcRdLib/comps/phalMful/src/phalMful.o
 .debug_str     0x00000410        0x0 build/default/debug/NxpNfcRdLib/comps/phalMful/src/phalMful_Int.o
 .debug_str     0x00000410        0x0 build/default/debug/NxpNfcRdLib/comps/phalSli/src/Sw/phalSli_Sw.o
 .debug_str     0x00000410        0x0 build/default/debug/NxpNfcRdLib/comps/phalSli/src/phalSli.o
 .debug_str     0x00000410        0x0 build/default/debug/NxpNfcRdLib/comps/phalT1T/src/Sw/phalT1T_Sw.o
 .debug_str     0x00000410        0x0 build/default/debug/NxpNfcRdLib/comps/phalT1T/src/phalT1T.o
 .debug_str     0x00000410        0x0 build/default/debug/NxpNfcRdLib/comps/phalTop/src/Sw/phalTop_Sw.o
 .debug_str     0x00000410        0x0 build/default/debug/NxpNfcRdLib/comps/phalTop/src/Sw/phalTop_Sw_Int_T1T.o
 .debug_str     0x00000410        0x0 build/default/debug/NxpNfcRdLib/comps/phalTop/src/Sw/phalTop_Sw_Int_T2T.o
 .debug_str     0x00000410        0x0 build/default/debug/NxpNfcRdLib/comps/phalTop/src/Sw/phalTop_Sw_Int_T3T.o
 .debug_str     0x00000410        0x0 build/default/debug/NxpNfcRdLib/comps/phalTop/src/Sw/phalTop_Sw_Int_T4T.o
 .debug_str     0x00000410        0x0 build/default/debug/NxpNfcRdLib/comps/phalTop/src/Sw/phalTop_Sw_Int_T5T.o
 .debug_str     0x00000410        0x0 build/default/debug/NxpNfcRdLib/comps/phalTop/src/phalTop.o
 .debug_str     0x00000410        0x0 build/default/debug/NxpNfcRdLib/comps/phbalReg/src/KinetisI2C/phbalReg_KinetisI2C.o
 .debug_str     0x00000410        0x0 build/default/debug/NxpNfcRdLib/comps/phbalReg/src/KinetisSPI/phbalReg_KinetisSpi.o
 .debug_str     0x00000410        0x0 build/default/debug/NxpNfcRdLib/comps/phbalReg/src/LinuxKernelSpi/phbalReg_LinuxKernelSpi.o
 .debug_str     0x00000410        0x0 build/default/debug/NxpNfcRdLib/comps/phbalReg/src/LinuxUserI2C/phbalReg_LinuxUserI2C.o
 .debug_str     0x00000410        0x0 build/default/debug/NxpNfcRdLib/comps/phbalReg/src/LinuxUserSpi/phbalReg_LinuxUserSpi.o
 .debug_str     0x00000410        0x0 build/default/debug/NxpNfcRdLib/comps/phbalReg/src/LpcOpenI2C/phbalReg_LpcOpenI2c.o
 .debug_str     0x00000410        0x0 build/default/debug/NxpNfcRdLib/comps/phbalReg/src/LpcOpenSPI/phbalReg_LpcOpenSpi.o
 .debug_str     0x00000410        0xc build/default/debug/NxpNfcRdLib/comps/phbalReg/src/Pic32mxSPI/phbalReg_Pic32mxSpi.o
 .debug_str     0x0000041c        0x0 build/default/debug/NxpNfcRdLib/comps/phbalReg/src/phbalReg.o
 .debug_str     0x0000041c        0x0 build/default/debug/NxpNfcRdLib/comps/phceT4T/src/Sw/phceT4T_Sw.o
 .debug_str     0x0000041c        0x0 build/default/debug/NxpNfcRdLib/comps/phceT4T/src/Sw/phceT4T_Sw_Int.o
 .debug_str     0x0000041c        0x0 build/default/debug/NxpNfcRdLib/comps/phceT4T/src/phceT4T.o
 .debug_str     0x0000041c        0x0 build/default/debug/NxpNfcRdLib/comps/phCidManager/src/Sw/phCidManager_Sw.o
 .debug_str     0x0000041c        0x0 build/default/debug/NxpNfcRdLib/comps/phCidManager/src/phCidManager.o
 .debug_str     0x0000041c        0x0 build/default/debug/NxpNfcRdLib/comps/phCryptoRng/src/Sw/phCryptoRng_Sw.o
 .debug_str     0x0000041c        0x0 build/default/debug/NxpNfcRdLib/comps/phCryptoRng/src/phCryptoRng.o
 .debug_str     0x0000041c        0x0 build/default/debug/NxpNfcRdLib/comps/phCryptoSym/src/Sw/phCryptoSym_Sw.o
 .debug_str     0x0000041c        0x0 build/default/debug/NxpNfcRdLib/comps/phCryptoSym/src/Sw/phCryptoSym_Sw_Aes.o
 .debug_str     0x0000041c        0x0 build/default/debug/NxpNfcRdLib/comps/phCryptoSym/src/Sw/phCryptoSym_Sw_Des.o
 .debug_str     0x0000041c        0x0 build/default/debug/NxpNfcRdLib/comps/phCryptoSym/src/Sw/phCryptoSym_Sw_Int.o
 .debug_str     0x0000041c        0x0 build/default/debug/NxpNfcRdLib/comps/phCryptoSym/src/phCryptoSym.o
 .debug_str     0x0000041c      0x181 build/default/debug/NxpNfcRdLib/comps/phhalHw/src/Pn5180/phhalHw_Pn5180.o
 .debug_str     0x0000059d      0x12e build/default/debug/NxpNfcRdLib/comps/phhalHw/src/Pn5180/phhalHw_Pn5180_Instr.o
 .debug_str     0x000006cb       0xb8 build/default/debug/NxpNfcRdLib/comps/phhalHw/src/Pn5180/phhalHw_Pn5180_Int.o
 .debug_str     0x00000783        0x0 build/default/debug/NxpNfcRdLib/comps/phhalHw/src/Pn5180/phhalHw_Pn5180_Wait.o
 .debug_str     0x00000783        0x0 build/default/debug/NxpNfcRdLib/comps/phhalHw/src/PN7462AU/phhalHw_PN7462AU.o
 .debug_str     0x00000783        0x0 build/default/debug/NxpNfcRdLib/comps/phhalHw/src/PN7462AU/phhalHw_PN7462AU_Int.o
 .debug_str     0x00000783        0x0 build/default/debug/NxpNfcRdLib/comps/phhalHw/src/Rc523/phhalHw_Rc523.o
 .debug_str     0x00000783        0x0 build/default/debug/NxpNfcRdLib/comps/phhalHw/src/Rc523/phhalHw_Rc523_Cmd.o
 .debug_str     0x00000783        0x0 build/default/debug/NxpNfcRdLib/comps/phhalHw/src/Rc523/phhalHw_Rc523_Int.o
 .debug_str     0x00000783        0x0 build/default/debug/NxpNfcRdLib/comps/phhalHw/src/Rc523/phhalHw_Rc523_Wait.o
 .debug_str     0x00000783        0x0 build/default/debug/NxpNfcRdLib/comps/phhalHw/src/Rc663/phhalHw_Rc663.o
 .debug_str     0x00000783        0x0 build/default/debug/NxpNfcRdLib/comps/phhalHw/src/Rc663/phhalHw_Rc663_Cmd.o
 .debug_str     0x00000783        0x0 build/default/debug/NxpNfcRdLib/comps/phhalHw/src/Rc663/phhalHw_Rc663_Int.o
 .debug_str     0x00000783        0x0 build/default/debug/NxpNfcRdLib/comps/phhalHw/src/Rc663/phhalHw_Rc663_Wait.o
 .debug_str     0x00000783       0x4d build/default/debug/NxpNfcRdLib/comps/phhalHw/src/phhalHw.o
 .debug_str     0x000007d0        0x0 build/default/debug/NxpNfcRdLib/comps/phKeyStore/src/Rc663/phKeyStore_Rc663.o
 .debug_str     0x000007d0       0xc8 build/default/debug/NxpNfcRdLib/comps/phKeyStore/src/Sw/phKeyStore_Sw.o
 .debug_str     0x00000898        0x0 build/default/debug/NxpNfcRdLib/comps/phKeyStore/src/phKeyStore.o
 .debug_str     0x00000898        0x0 build/default/debug/NxpNfcRdLib/comps/phlnLlcp/src/Sw/phlnLlcp_Sw.o
 .debug_str     0x00000898        0x0 build/default/debug/NxpNfcRdLib/comps/phlnLlcp/src/Sw/phlnLlcp_Sw_Int.o
 .debug_str     0x00000898        0x0 build/default/debug/NxpNfcRdLib/comps/phlnLlcp/src/Sw/phlnLlcp_Sw_Mac.o
 .debug_str     0x00000898        0x0 build/default/debug/NxpNfcRdLib/comps/phlnLlcp/src/Sw/phlnLlcp_Sw_Transport.o
 .debug_str     0x00000898        0x0 build/default/debug/NxpNfcRdLib/comps/phlnLlcp/src/Sw/phlnLlcp_Sw_Transport_Connection.o
 .debug_str     0x00000898        0x0 build/default/debug/NxpNfcRdLib/comps/phlnLlcp/src/Sw/phlnLlcp_Sw_Transport_Connectionless.o
 .debug_str     0x00000898        0x0 build/default/debug/NxpNfcRdLib/comps/phlnLlcp/src/Sw/phlnLlcp_Timers.o
 .debug_str     0x00000898        0x0 build/default/debug/NxpNfcRdLib/comps/phlnLlcp/src/phlnLlcp.o
 .debug_str     0x00000898        0x0 build/default/debug/NxpNfcRdLib/comps/phLog/src/phLog.o
 .debug_str     0x00000898        0x0 build/default/debug/NxpNfcRdLib/comps/phNfcLib/src/phNfcLib.o
 .debug_str     0x00000898        0x0 build/default/debug/NxpNfcRdLib/comps/phNfcLib/src/phNfcLib_15693.o
 .debug_str     0x00000898        0x0 build/default/debug/NxpNfcRdLib/comps/phNfcLib/src/phNfcLib_18000p3m3.o
 .debug_str     0x00000898        0x0 build/default/debug/NxpNfcRdLib/comps/phNfcLib/src/phNfcLib_MFC.o
 .debug_str     0x00000898        0x0 build/default/debug/NxpNfcRdLib/comps/phNfcLib/src/phNfcLib_MFDF.o
 .debug_str     0x00000898        0x0 build/default/debug/NxpNfcRdLib/comps/phNfcLib/src/phNfcLib_MFUL.o
 .debug_str     0x00000898        0x0 build/default/debug/NxpNfcRdLib/comps/phNfcLib/src/phNfcLib_Utility.o
 .debug_str     0x00000898        0x0 build/default/debug/NxpNfcRdLib/comps/phnpSnep/src/Sw/phnpSnep_Sw.o
 .debug_str     0x00000898        0x0 build/default/debug/NxpNfcRdLib/comps/phnpSnep/src/phnpSnep.o
 .debug_str     0x00000898        0x0 build/default/debug/NxpNfcRdLib/comps/phOsal/src/Freertos/phOsal_Freertos.o
 .debug_str     0x00000898        0x0 build/default/debug/NxpNfcRdLib/comps/phOsal/src/Linux/phOsal_Linux.o
 .debug_str     0x00000898       0x68 build/default/debug/NxpNfcRdLib/comps/phOsal/src/NullOs/phOsal_NullOs.o
 .debug_str     0x00000900        0x0 build/default/debug/NxpNfcRdLib/comps/phpalEpcUid/src/Sw/phpalEpcUid_Sw.o
 .debug_str     0x00000900        0x0 build/default/debug/NxpNfcRdLib/comps/phpalEpcUid/src/phpalEpcUid.o
 .debug_str     0x00000900        0x0 build/default/debug/NxpNfcRdLib/comps/phpalFelica/src/Sw/phpalFelica_Sw.o
 .debug_str     0x00000900        0x0 build/default/debug/NxpNfcRdLib/comps/phpalFelica/src/phpalFelica.o
 .debug_str     0x00000900       0x73 build/default/debug/NxpNfcRdLib/comps/phpalI14443p3a/src/Sw/phpalI14443p3a_Sw.o
 .debug_str     0x00000973        0x0 build/default/debug/NxpNfcRdLib/comps/phpalI14443p3a/src/phpalI14443p3a.o
 .debug_str     0x00000973        0x0 build/default/debug/NxpNfcRdLib/comps/phpalI14443p3b/src/Sw/phpalI14443p3b_Sw.o
 .debug_str     0x00000973        0x0 build/default/debug/NxpNfcRdLib/comps/phpalI14443p3b/src/phpalI14443p3b.o
 .debug_str     0x00000973      0x107 build/default/debug/NxpNfcRdLib/comps/phpalI14443p4/src/Sw/phpalI14443p4_Sw.o
 .debug_str     0x00000a7a        0x0 build/default/debug/NxpNfcRdLib/comps/phpalI14443p4/src/phpalI14443p4.o
 .debug_str     0x00000a7a       0x3a build/default/debug/NxpNfcRdLib/comps/phpalI14443p4a/src/Sw/phpalI14443p4a_Sw.o
 .debug_str     0x00000ab4        0x0 build/default/debug/NxpNfcRdLib/comps/phpalI14443p4a/src/phpalI14443p4a.o
 .debug_str     0x00000ab4        0x0 build/default/debug/NxpNfcRdLib/comps/phpalI14443p4mC/src/Sw/phpalI14443p4mC_Sw.o
 .debug_str     0x00000ab4        0x0 build/default/debug/NxpNfcRdLib/comps/phpalI14443p4mC/src/Sw/phpalI14443p4mC_Sw_Int.o
 .debug_str     0x00000ab4        0x0 build/default/debug/NxpNfcRdLib/comps/phpalI14443p4mC/src/phpalI14443p4mC.o
 .debug_str     0x00000ab4        0x0 build/default/debug/NxpNfcRdLib/comps/phpalI18000p3m3/src/Sw/phpalI18000p3m3_Sw.o
 .debug_str     0x00000ab4        0x0 build/default/debug/NxpNfcRdLib/comps/phpalI18000p3m3/src/phpalI18000p3m3.o
 .debug_str     0x00000ab4        0x0 build/default/debug/NxpNfcRdLib/comps/phpalI18092mPI/src/Sw/phpalI18092mPI_Sw.o
 .debug_str     0x00000ab4        0x0 build/default/debug/NxpNfcRdLib/comps/phpalI18092mPI/src/Sw/phpalI18092mPI_Sw_Int.o
 .debug_str     0x00000ab4        0x0 build/default/debug/NxpNfcRdLib/comps/phpalI18092mPI/src/phpalI18092mPI.o
 .debug_str     0x00000ab4        0x0 build/default/debug/NxpNfcRdLib/comps/phpalI18092mT/src/Sw/phpalI18092mT_Sw.o
 .debug_str     0x00000ab4        0x0 build/default/debug/NxpNfcRdLib/comps/phpalI18092mT/src/Sw/phpalI18092mT_Sw_Int.o
 .debug_str     0x00000ab4        0x0 build/default/debug/NxpNfcRdLib/comps/phpalI18092mT/src/phpalI18092mT.o
 .debug_str     0x00000ab4       0xab build/default/debug/NxpNfcRdLib/comps/phpalMifare/src/Sw/phpalMifare_Sw.o
 .debug_str     0x00000b5f        0x0 build/default/debug/NxpNfcRdLib/comps/phpalMifare/src/phpalMifare.o
 .debug_str     0x00000b5f        0x0 build/default/debug/NxpNfcRdLib/comps/phpalSli15693/src/Sw/phpalSli15693_Sw.o
 .debug_str     0x00000b5f        0x0 build/default/debug/NxpNfcRdLib/comps/phpalSli15693/src/phpalSli15693.o
 .debug_str     0x00000b5f        0x0 build/default/debug/NxpNfcRdLib/comps/phPlatform/src/Port/K81/phPlatform_Port_K81.o
 .debug_str     0x00000b5f        0x0 build/default/debug/NxpNfcRdLib/comps/phPlatform/src/Port/K81/phPlatform_Port_KinetisTimer.o
 .debug_str     0x00000b5f        0x0 build/default/debug/NxpNfcRdLib/comps/phPlatform/src/Port/K82/phPlatform_Port_K82.o
 .debug_str     0x00000b5f        0x0 build/default/debug/NxpNfcRdLib/comps/phPlatform/src/Port/K82/phPlatform_Port_K82Timer.o
 .debug_str     0x00000b5f        0x0 build/default/debug/NxpNfcRdLib/comps/phPlatform/src/Port/LPC11u68/cr_startup_lpc11u6x.o
 .debug_str     0x00000b5f        0x0 build/default/debug/NxpNfcRdLib/comps/phPlatform/src/Port/LPC11u68/phPlatform_Port_LPC11u68.o
 .debug_str     0x00000b5f        0x0 build/default/debug/NxpNfcRdLib/comps/phPlatform/src/Port/LPC1769/cr_startup_lpc175x_6x.o
 .debug_str     0x00000b5f        0x0 build/default/debug/NxpNfcRdLib/comps/phPlatform/src/Port/LPC1769/keil_iar_sysinit.o
 .debug_str     0x00000b5f        0x0 build/default/debug/NxpNfcRdLib/comps/phPlatform/src/Port/LPC1769/phPlatform_Port_LPC1769.o
 .debug_str     0x00000b5f        0x0 build/default/debug/NxpNfcRdLib/comps/phPlatform/src/Port/LPCTimer/phPlatform_Port_LPCTimer.o
 .debug_str     0x00000b5f        0x8 build/default/debug/NxpNfcRdLib/comps/phPlatform/src/Port/PIC32MX/phPlatform_Port_PIC32MX.o
 .debug_str     0x00000b67       0x15 build/default/debug/NxpNfcRdLib/comps/phPlatform/src/Port/PIC32MX/phPlatform_Port_PIC32MXTimer.o
 .debug_str     0x00000b7c        0x0 build/default/debug/NxpNfcRdLib/comps/phPlatform/src/Port/PN7462AU/phPlatform_Port_PN7462AU.o
 .debug_str     0x00000b7c        0x0 build/default/debug/NxpNfcRdLib/comps/phPlatform/src/Port/RaspberryPi/phPlatform_Port_Pi.o
 .debug_str     0x00000b7c        0x0 build/default/debug/NxpNfcRdLib/comps/phPlatform/src/Port/RaspberryPi/phPlatform_Port_PiGpio.o
 .debug_str     0x00000b7c       0x54 build/default/debug/NxpNfcRdLib/comps/phPlatform/src/phPlatform.o
 .debug_str     0x00000bd0       0xca build/default/debug/NxpNfcRdLib/comps/phTools/src/phTools.o
 .debug_str     0x00000c9a       0x47 build/default/debug/NxpNfcRdLib/comps/phTools/src/phTools_Q.o
 .debug_str     0x00000ce1      0x154 build/default/debug/main.o
 .debug_str     0x00000e35        0x0 c:/program files (x86)/microchip/xc32/v2.05/bin/bin/../../lib/gcc/pic32mx/4.8.3\libgcc.a(floatunsisf.o)
 .debug_str     0x00000e35        0x0 c:/program files (x86)/microchip/xc32/v2.05/bin/bin/../../lib/gcc/pic32mx/4.8.3/../../../../pic32mx/lib\libpic32.a(default-bootstrap-exception-handler.o)
 .debug_str     0x00000e35        0x0 c:/program files (x86)/microchip/xc32/v2.05/bin/bin/../../lib/gcc/pic32mx/4.8.3/../../../../pic32mx/lib\libpic32.a(default-on-reset.o)
 .debug_str     0x00000e35        0x0 c:/program files (x86)/microchip/xc32/v2.05/bin/bin/../../lib/gcc/pic32mx/4.8.3/../../../../pic32mx/lib\libpic32.a(default-on-bootstrap.o)
 .debug_str     0x00000e35        0x0 c:/program files (x86)/microchip/xc32/v2.05/bin/bin/../../lib/gcc/pic32mx/4.8.3/../../../../pic32mx/lib\libpic32.a(defaultinterrupt.o)

.debug_loc      0x00000000    0x19f69
 *(.debug_loc)
 .debug_loc     0x00000000      0x2dd build/default/debug/mcc_generated_files/tmr2.o
 .debug_loc     0x000002dd      0x56c build/default/debug/mcc_generated_files/uart1.o
 .debug_loc     0x00000849       0x38 build/default/debug/mcc_generated_files/interrupt_manager.o
 .debug_loc     0x00000881      0x2dd build/default/debug/mcc_generated_files/tmr1.o
 .debug_loc     0x00000b5e      0x14a build/default/debug/mcc_generated_files/mcc.o
 .debug_loc     0x00000ca8       0x73 build/default/debug/mcc_generated_files/pin_manager.o
 .debug_loc     0x00000d1b      0x3c4 build/default/debug/mcc_generated_files/spi1.o
 .debug_loc     0x000010df      0x22e build/default/debug/mcc_generated_files/adc1.o
 .debug_loc     0x0000130d      0x356 build/default/debug/mcc_generated_files/spi2.o
 .debug_loc     0x00001663      0x496 build/default/debug/nxp_reader_config_files/phApp_Init.o
 .debug_loc     0x00001af9      0x413 build/default/debug/NxpNfcRdLib/comps/phacDiscLoop/src/Sw/phacDiscLoop_Sw.o
 .debug_loc     0x00001f0c      0x858 build/default/debug/NxpNfcRdLib/comps/phacDiscLoop/src/Sw/phacDiscLoop_Sw_Int.o
 .debug_loc     0x00002764      0x471 build/default/debug/NxpNfcRdLib/comps/phacDiscLoop/src/Sw/phacDiscLoop_Sw_Int_A.o
 .debug_loc     0x00002bd5       0xa8 build/default/debug/NxpNfcRdLib/comps/phacDiscLoop/src/Sw/phacDiscLoop_Sw_Int_B.o
 .debug_loc     0x00002c7d       0xa8 build/default/debug/NxpNfcRdLib/comps/phacDiscLoop/src/Sw/phacDiscLoop_Sw_Int_F.o
 .debug_loc     0x00002d25       0xa8 build/default/debug/NxpNfcRdLib/comps/phacDiscLoop/src/Sw/phacDiscLoop_Sw_Int_I18000p3m3.o
 .debug_loc     0x00002dcd       0xa8 build/default/debug/NxpNfcRdLib/comps/phacDiscLoop/src/Sw/phacDiscLoop_Sw_Int_V.o
 .debug_loc     0x00002e75      0xd95 build/default/debug/NxpNfcRdLib/comps/phalMfc/src/Sw/phalMfc_Sw.o
 .debug_loc     0x00003c0a      0x276 build/default/debug/NxpNfcRdLib/comps/phalMfc/src/phalMfc_Int.o
 .debug_loc     0x00003e80      0xf0a build/default/debug/NxpNfcRdLib/comps/phalMfdf/src/Sw/phalMfdf_Sw.o
 .debug_loc     0x00004d8a      0xc81 build/default/debug/NxpNfcRdLib/comps/phalMfdf/src/Sw/phalMfdf_Sw_Int.o
 .debug_loc     0x00005a0b      0x6ce build/default/debug/NxpNfcRdLib/comps/phalMfdf/src/phalMfdf_Int.o
 .debug_loc     0x000060d9      0x382 build/default/debug/NxpNfcRdLib/comps/phbalReg/src/Pic32mxSPI/phbalReg_Pic32mxSpi.o
 .debug_loc     0x0000645b     0x4921 build/default/debug/NxpNfcRdLib/comps/phhalHw/src/Pn5180/phhalHw_Pn5180.o
 .debug_loc     0x0000ad7c     0x2f25 build/default/debug/NxpNfcRdLib/comps/phhalHw/src/Pn5180/phhalHw_Pn5180_Instr.o
 .debug_loc     0x0000dca1     0x3c97 build/default/debug/NxpNfcRdLib/comps/phhalHw/src/Pn5180/phhalHw_Pn5180_Int.o
 .debug_loc     0x00011938      0x18e build/default/debug/NxpNfcRdLib/comps/phhalHw/src/Pn5180/phhalHw_Pn5180_Wait.o
 .debug_loc     0x00011ac6       0xec build/default/debug/NxpNfcRdLib/comps/phhalHw/src/phhalHw.o
 .debug_loc     0x00011bb2      0x9e7 build/default/debug/NxpNfcRdLib/comps/phKeyStore/src/Sw/phKeyStore_Sw.o
 .debug_loc     0x00012599       0x38 build/default/debug/NxpNfcRdLib/comps/phKeyStore/src/phKeyStore.o
 .debug_loc     0x000125d1      0xeee build/default/debug/NxpNfcRdLib/comps/phOsal/src/NullOs/phOsal_NullOs.o
 .debug_loc     0x000134bf      0xec0 build/default/debug/NxpNfcRdLib/comps/phpalI14443p3a/src/Sw/phpalI14443p3a_Sw.o
 .debug_loc     0x0001437f     0x1249 build/default/debug/NxpNfcRdLib/comps/phpalI14443p4/src/Sw/phpalI14443p4_Sw.o
 .debug_loc     0x000155c8      0x646 build/default/debug/NxpNfcRdLib/comps/phpalI14443p4a/src/Sw/phpalI14443p4a_Sw.o
 .debug_loc     0x00015c0e      0xafa build/default/debug/NxpNfcRdLib/comps/phpalMifare/src/Sw/phpalMifare_Sw.o
 .debug_loc     0x00016708      0x29d build/default/debug/NxpNfcRdLib/comps/phPlatform/src/Port/PIC32MX/phPlatform_Port_PIC32MX.o
 .debug_loc     0x000169a5      0x5f3 build/default/debug/NxpNfcRdLib/comps/phPlatform/src/Port/PIC32MX/phPlatform_Port_PIC32MXTimer.o
 .debug_loc     0x00016f98      0x94f build/default/debug/NxpNfcRdLib/comps/phPlatform/src/phPlatform.o
 .debug_loc     0x000178e7      0xc5b build/default/debug/NxpNfcRdLib/comps/phTools/src/phTools.o
 .debug_loc     0x00018542      0x959 build/default/debug/NxpNfcRdLib/comps/phTools/src/phTools_Q.o
 .debug_loc     0x00018e9b     0x102e build/default/debug/main.o
 .debug_loc     0x00019ec9       0x74 c:/program files (x86)/microchip/xc32/v2.05/bin/bin/../../lib/gcc/pic32mx/4.8.3\libgcc.a(floatunsisf.o)
 .debug_loc     0x00019f3d       0x2c c:/program files (x86)/microchip/xc32/v2.05/bin/bin/../../lib/gcc/pic32mx/4.8.3/../../../../pic32mx/lib\libpic32.a(default-bootstrap-exception-handler.o)

.debug_macinfo
 *(.debug_macinfo)

.debug_weaknames
 *(.debug_weaknames)

.debug_funcnames
 *(.debug_funcnames)

.debug_typenames
 *(.debug_typenames)

.debug_varnames
 *(.debug_varnames)

.debug_pubtypes
 *(.debug_pubtypes)

.debug_ranges   0x00000000      0xd90
 *(.debug_ranges)
 .debug_ranges  0x00000000       0x10 c:/program files (x86)/microchip/xc32/v2.05/bin/bin/../../lib/gcc/pic32mx/4.8.3/../../../../pic32mx/lib\software-debug-break.o
 .debug_ranges  0x00000010       0x68 build/default/debug/mcc_generated_files/tmr2.o
 .debug_ranges  0x00000078       0x70 build/default/debug/mcc_generated_files/uart1.o
 .debug_ranges  0x000000e8       0x10 build/default/debug/mcc_generated_files/interrupt_manager.o
 .debug_ranges  0x000000f8       0x68 build/default/debug/mcc_generated_files/tmr1.o
 .debug_ranges  0x00000160       0x30 build/default/debug/mcc_generated_files/mcc.o
 .debug_ranges  0x00000190       0x18 build/default/debug/mcc_generated_files/pin_manager.o
 .debug_ranges  0x000001a8       0x38 build/default/debug/mcc_generated_files/spi1.o
 .debug_ranges  0x000001e0       0x48 build/default/debug/mcc_generated_files/adc1.o
 .debug_ranges  0x00000228       0x38 build/default/debug/mcc_generated_files/spi2.o
 .debug_ranges  0x00000260       0x40 build/default/debug/nxp_reader_config_files/phApp_Init.o
 .debug_ranges  0x000002a0       0x30 build/default/debug/NxpNfcRdLib/comps/phacDiscLoop/src/Sw/phacDiscLoop_Sw.o
 .debug_ranges  0x000002d0       0x68 build/default/debug/NxpNfcRdLib/comps/phacDiscLoop/src/Sw/phacDiscLoop_Sw_Int.o
 .debug_ranges  0x00000338       0x20 build/default/debug/NxpNfcRdLib/comps/phacDiscLoop/src/Sw/phacDiscLoop_Sw_Int_A.o
 .debug_ranges  0x00000358       0x20 build/default/debug/NxpNfcRdLib/comps/phacDiscLoop/src/Sw/phacDiscLoop_Sw_Int_B.o
 .debug_ranges  0x00000378       0x20 build/default/debug/NxpNfcRdLib/comps/phacDiscLoop/src/Sw/phacDiscLoop_Sw_Int_F.o
 .debug_ranges  0x00000398       0x20 build/default/debug/NxpNfcRdLib/comps/phacDiscLoop/src/Sw/phacDiscLoop_Sw_Int_I18000p3m3.o
 .debug_ranges  0x000003b8       0x20 build/default/debug/NxpNfcRdLib/comps/phacDiscLoop/src/Sw/phacDiscLoop_Sw_Int_V.o
 .debug_ranges  0x000003d8       0x80 build/default/debug/NxpNfcRdLib/comps/phalMfc/src/Sw/phalMfc_Sw.o
 .debug_ranges  0x00000458       0x30 build/default/debug/NxpNfcRdLib/comps/phalMfc/src/phalMfc_Int.o
 .debug_ranges  0x00000488       0x60 build/default/debug/NxpNfcRdLib/comps/phalMfdf/src/Sw/phalMfdf_Sw.o
 .debug_ranges  0x000004e8       0x30 build/default/debug/NxpNfcRdLib/comps/phalMfdf/src/Sw/phalMfdf_Sw_Int.o
 .debug_ranges  0x00000518       0x20 build/default/debug/NxpNfcRdLib/comps/phalMfdf/src/phalMfdf_Int.o
 .debug_ranges  0x00000538       0x48 build/default/debug/NxpNfcRdLib/comps/phbalReg/src/Pic32mxSPI/phbalReg_Pic32mxSpi.o
 .debug_ranges  0x00000580       0xe0 build/default/debug/NxpNfcRdLib/comps/phhalHw/src/Pn5180/phhalHw_Pn5180.o
 .debug_ranges  0x00000660      0x118 build/default/debug/NxpNfcRdLib/comps/phhalHw/src/Pn5180/phhalHw_Pn5180_Instr.o
 .debug_ranges  0x00000778       0x78 build/default/debug/NxpNfcRdLib/comps/phhalHw/src/Pn5180/phhalHw_Pn5180_Int.o
 .debug_ranges  0x000007f0       0x10 build/default/debug/NxpNfcRdLib/comps/phhalHw/src/Pn5180/phhalHw_Pn5180_Wait.o
 .debug_ranges  0x00000800       0x10 build/default/debug/NxpNfcRdLib/comps/phhalHw/src/phhalHw.o
 .debug_ranges  0x00000810       0x90 build/default/debug/NxpNfcRdLib/comps/phKeyStore/src/Sw/phKeyStore_Sw.o
 .debug_ranges  0x000008a0       0x10 build/default/debug/NxpNfcRdLib/comps/phKeyStore/src/phKeyStore.o
 .debug_ranges  0x000008b0       0xf8 build/default/debug/NxpNfcRdLib/comps/phOsal/src/NullOs/phOsal_NullOs.o
 .debug_ranges  0x000009a8       0x68 build/default/debug/NxpNfcRdLib/comps/phpalI14443p3a/src/Sw/phpalI14443p3a_Sw.o
 .debug_ranges  0x00000a10       0x80 build/default/debug/NxpNfcRdLib/comps/phpalI14443p4/src/Sw/phpalI14443p4_Sw.o
 .debug_ranges  0x00000a90       0x38 build/default/debug/NxpNfcRdLib/comps/phpalI14443p4a/src/Sw/phpalI14443p4a_Sw.o
 .debug_ranges  0x00000ac8       0x48 build/default/debug/NxpNfcRdLib/comps/phpalMifare/src/Sw/phpalMifare_Sw.o
 .debug_ranges  0x00000b10       0x30 build/default/debug/NxpNfcRdLib/comps/phPlatform/src/Port/PIC32MX/phPlatform_Port_PIC32MX.o
 .debug_ranges  0x00000b40       0x98 build/default/debug/NxpNfcRdLib/comps/phPlatform/src/Port/PIC32MX/phPlatform_Port_PIC32MXTimer.o
 .debug_ranges  0x00000bd8       0x80 build/default/debug/NxpNfcRdLib/comps/phPlatform/src/phPlatform.o
 .debug_ranges  0x00000c58       0x58 build/default/debug/NxpNfcRdLib/comps/phTools/src/phTools.o
 .debug_ranges  0x00000cb0       0x58 build/default/debug/NxpNfcRdLib/comps/phTools/src/phTools_Q.o
 .debug_ranges  0x00000d08       0x48 build/default/debug/main.o
 .debug_ranges  0x00000d50       0x10 c:/program files (x86)/microchip/xc32/v2.05/bin/bin/../../lib/gcc/pic32mx/4.8.3/../../../../pic32mx/lib\libpic32.a(default-bootstrap-exception-handler.o)
 .debug_ranges  0x00000d60       0x10 c:/program files (x86)/microchip/xc32/v2.05/bin/bin/../../lib/gcc/pic32mx/4.8.3/../../../../pic32mx/lib\libpic32.a(default-on-reset.o)
 .debug_ranges  0x00000d70       0x10 c:/program files (x86)/microchip/xc32/v2.05/bin/bin/../../lib/gcc/pic32mx/4.8.3/../../../../pic32mx/lib\libpic32.a(default-on-bootstrap.o)
 .debug_ranges  0x00000d80       0x10 c:/program files (x86)/microchip/xc32/v2.05/bin/bin/../../lib/gcc/pic32mx/4.8.3/../../../../pic32mx/lib\libpic32.a(defaultinterrupt.o)

.gnu.attributes
                0x00000000       0x10
 *(.gnu.attributes)
 .gnu.attributes
                0x00000000       0x10 c:/program files (x86)/microchip/xc32/v2.05/bin/bin/../../lib/gcc/pic32mx/4.8.3/../../../../pic32mx/lib\software-debug-break.o
 .gnu.attributes
                0x00000010       0x10 build/default/debug/mcc_generated_files/tmr2.o
 .gnu.attributes
                0x00000020       0x10 build/default/debug/mcc_generated_files/uart1.o
 .gnu.attributes
                0x00000030       0x10 build/default/debug/mcc_generated_files/interrupt_manager.o
 .gnu.attributes
                0x00000040       0x10 build/default/debug/mcc_generated_files/tmr1.o
 .gnu.attributes
                0x00000050       0x10 build/default/debug/mcc_generated_files/mcc.o
 .gnu.attributes
                0x00000060       0x10 build/default/debug/mcc_generated_files/pin_manager.o
 .gnu.attributes
                0x00000070       0x10 build/default/debug/mcc_generated_files/spi1.o
 .gnu.attributes
                0x00000080       0x10 build/default/debug/mcc_generated_files/adc1.o
 .gnu.attributes
                0x00000090       0x10 build/default/debug/mcc_generated_files/spi2.o
 .gnu.attributes
                0x000000a0       0x10 build/default/debug/nxp_reader_config_files/phApp_Init.o
 .gnu.attributes
                0x000000b0       0x10 build/default/debug/NxpNfcRdLib/comps/phacDiscLoop/src/Sw/phacDiscLoop_Sw.o
 .gnu.attributes
                0x000000c0       0x10 build/default/debug/NxpNfcRdLib/comps/phacDiscLoop/src/Sw/phacDiscLoop_Sw_Int.o
 .gnu.attributes
                0x000000d0       0x10 build/default/debug/NxpNfcRdLib/comps/phacDiscLoop/src/Sw/phacDiscLoop_Sw_Int_A.o
 .gnu.attributes
                0x000000e0       0x10 build/default/debug/NxpNfcRdLib/comps/phacDiscLoop/src/Sw/phacDiscLoop_Sw_Int_B.o
 .gnu.attributes
                0x000000f0       0x10 build/default/debug/NxpNfcRdLib/comps/phacDiscLoop/src/Sw/phacDiscLoop_Sw_Int_F.o
 .gnu.attributes
                0x00000100       0x10 build/default/debug/NxpNfcRdLib/comps/phacDiscLoop/src/Sw/phacDiscLoop_Sw_Int_I18000p3m3.o
 .gnu.attributes
                0x00000110       0x10 build/default/debug/NxpNfcRdLib/comps/phacDiscLoop/src/Sw/phacDiscLoop_Sw_Int_V.o
 .gnu.attributes
                0x00000120       0x10 build/default/debug/NxpNfcRdLib/comps/phacDiscLoop/src/phacDiscLoop.o
 .gnu.attributes
                0x00000130       0x10 build/default/debug/NxpNfcRdLib/comps/phalFelica/src/Sw/phalFelica_Sw.o
 .gnu.attributes
                0x00000140       0x10 build/default/debug/NxpNfcRdLib/comps/phalFelica/src/phalFelica.o
 .gnu.attributes
                0x00000150       0x10 build/default/debug/NxpNfcRdLib/comps/phalI15693/src/Sw/phalI15693_Sw.o
 .gnu.attributes
                0x00000160       0x10 build/default/debug/NxpNfcRdLib/comps/phalI15693/src/phalI15693.o
 .gnu.attributes
                0x00000170       0x10 build/default/debug/NxpNfcRdLib/comps/phalI18000p3m3/src/Sw/phalI18000p3m3_Sw.o
 .gnu.attributes
                0x00000180       0x10 build/default/debug/NxpNfcRdLib/comps/phalI18000p3m3/src/Sw/phalI18000p3m3_Sw_Int.o
 .gnu.attributes
                0x00000190       0x10 build/default/debug/NxpNfcRdLib/comps/phalI18000p3m3/src/phalI18000p3m3.o
 .gnu.attributes
                0x000001a0       0x10 build/default/debug/NxpNfcRdLib/comps/phalMfc/src/Sw/phalMfc_Sw.o
 .gnu.attributes
                0x000001b0       0x10 build/default/debug/NxpNfcRdLib/comps/phalMfc/src/phalMfc.o
 .gnu.attributes
                0x000001c0       0x10 build/default/debug/NxpNfcRdLib/comps/phalMfc/src/phalMfc_Int.o
 .gnu.attributes
                0x000001d0       0x10 build/default/debug/NxpNfcRdLib/comps/phalMfdf/src/Sw/phalMfdf_Sw.o
 .gnu.attributes
                0x000001e0       0x10 build/default/debug/NxpNfcRdLib/comps/phalMfdf/src/Sw/phalMfdf_Sw_Int.o
 .gnu.attributes
                0x000001f0       0x10 build/default/debug/NxpNfcRdLib/comps/phalMfdf/src/phalMfdf.o
 .gnu.attributes
                0x00000200       0x10 build/default/debug/NxpNfcRdLib/comps/phalMfdf/src/phalMfdf_Int.o
 .gnu.attributes
                0x00000210       0x10 build/default/debug/NxpNfcRdLib/comps/phalMful/src/Sw/phalMful_Sw.o
 .gnu.attributes
                0x00000220       0x10 build/default/debug/NxpNfcRdLib/comps/phalMful/src/phalMful.o
 .gnu.attributes
                0x00000230       0x10 build/default/debug/NxpNfcRdLib/comps/phalMful/src/phalMful_Int.o
 .gnu.attributes
                0x00000240       0x10 build/default/debug/NxpNfcRdLib/comps/phalSli/src/Sw/phalSli_Sw.o
 .gnu.attributes
                0x00000250       0x10 build/default/debug/NxpNfcRdLib/comps/phalSli/src/phalSli.o
 .gnu.attributes
                0x00000260       0x10 build/default/debug/NxpNfcRdLib/comps/phalT1T/src/Sw/phalT1T_Sw.o
 .gnu.attributes
                0x00000270       0x10 build/default/debug/NxpNfcRdLib/comps/phalT1T/src/phalT1T.o
 .gnu.attributes
                0x00000280       0x10 build/default/debug/NxpNfcRdLib/comps/phalTop/src/Sw/phalTop_Sw.o
 .gnu.attributes
                0x00000290       0x10 build/default/debug/NxpNfcRdLib/comps/phalTop/src/Sw/phalTop_Sw_Int_T1T.o
 .gnu.attributes
                0x000002a0       0x10 build/default/debug/NxpNfcRdLib/comps/phalTop/src/Sw/phalTop_Sw_Int_T2T.o
 .gnu.attributes
                0x000002b0       0x10 build/default/debug/NxpNfcRdLib/comps/phalTop/src/Sw/phalTop_Sw_Int_T3T.o
 .gnu.attributes
                0x000002c0       0x10 build/default/debug/NxpNfcRdLib/comps/phalTop/src/Sw/phalTop_Sw_Int_T4T.o
 .gnu.attributes
                0x000002d0       0x10 build/default/debug/NxpNfcRdLib/comps/phalTop/src/Sw/phalTop_Sw_Int_T5T.o
 .gnu.attributes
                0x000002e0       0x10 build/default/debug/NxpNfcRdLib/comps/phalTop/src/phalTop.o
 .gnu.attributes
                0x000002f0       0x10 build/default/debug/NxpNfcRdLib/comps/phbalReg/src/KinetisI2C/phbalReg_KinetisI2C.o
 .gnu.attributes
                0x00000300       0x10 build/default/debug/NxpNfcRdLib/comps/phbalReg/src/KinetisSPI/phbalReg_KinetisSpi.o
 .gnu.attributes
                0x00000310       0x10 build/default/debug/NxpNfcRdLib/comps/phbalReg/src/LinuxKernelSpi/phbalReg_LinuxKernelSpi.o
 .gnu.attributes
                0x00000320       0x10 build/default/debug/NxpNfcRdLib/comps/phbalReg/src/LinuxUserI2C/phbalReg_LinuxUserI2C.o
 .gnu.attributes
                0x00000330       0x10 build/default/debug/NxpNfcRdLib/comps/phbalReg/src/LinuxUserSpi/phbalReg_LinuxUserSpi.o
 .gnu.attributes
                0x00000340       0x10 build/default/debug/NxpNfcRdLib/comps/phbalReg/src/LpcOpenI2C/phbalReg_LpcOpenI2c.o
 .gnu.attributes
                0x00000350       0x10 build/default/debug/NxpNfcRdLib/comps/phbalReg/src/LpcOpenSPI/phbalReg_LpcOpenSpi.o
 .gnu.attributes
                0x00000360       0x10 build/default/debug/NxpNfcRdLib/comps/phbalReg/src/Pic32mxSPI/phbalReg_Pic32mxSpi.o
 .gnu.attributes
                0x00000370       0x10 build/default/debug/NxpNfcRdLib/comps/phbalReg/src/phbalReg.o
 .gnu.attributes
                0x00000380       0x10 build/default/debug/NxpNfcRdLib/comps/phceT4T/src/Sw/phceT4T_Sw.o
 .gnu.attributes
                0x00000390       0x10 build/default/debug/NxpNfcRdLib/comps/phceT4T/src/Sw/phceT4T_Sw_Int.o
 .gnu.attributes
                0x000003a0       0x10 build/default/debug/NxpNfcRdLib/comps/phceT4T/src/phceT4T.o
 .gnu.attributes
                0x000003b0       0x10 build/default/debug/NxpNfcRdLib/comps/phCidManager/src/Sw/phCidManager_Sw.o
 .gnu.attributes
                0x000003c0       0x10 build/default/debug/NxpNfcRdLib/comps/phCidManager/src/phCidManager.o
 .gnu.attributes
                0x000003d0       0x10 build/default/debug/NxpNfcRdLib/comps/phCryptoRng/src/Sw/phCryptoRng_Sw.o
 .gnu.attributes
                0x000003e0       0x10 build/default/debug/NxpNfcRdLib/comps/phCryptoRng/src/phCryptoRng.o
 .gnu.attributes
                0x000003f0       0x10 build/default/debug/NxpNfcRdLib/comps/phCryptoSym/src/Sw/phCryptoSym_Sw.o
 .gnu.attributes
                0x00000400       0x10 build/default/debug/NxpNfcRdLib/comps/phCryptoSym/src/Sw/phCryptoSym_Sw_Aes.o
 .gnu.attributes
                0x00000410       0x10 build/default/debug/NxpNfcRdLib/comps/phCryptoSym/src/Sw/phCryptoSym_Sw_Des.o
 .gnu.attributes
                0x00000420       0x10 build/default/debug/NxpNfcRdLib/comps/phCryptoSym/src/Sw/phCryptoSym_Sw_Int.o
 .gnu.attributes
                0x00000430       0x10 build/default/debug/NxpNfcRdLib/comps/phCryptoSym/src/phCryptoSym.o
 .gnu.attributes
                0x00000440       0x10 build/default/debug/NxpNfcRdLib/comps/phhalHw/src/Pn5180/phhalHw_Pn5180.o
 .gnu.attributes
                0x00000450       0x10 build/default/debug/NxpNfcRdLib/comps/phhalHw/src/Pn5180/phhalHw_Pn5180_Instr.o
 .gnu.attributes
                0x00000460       0x10 build/default/debug/NxpNfcRdLib/comps/phhalHw/src/Pn5180/phhalHw_Pn5180_Int.o
 .gnu.attributes
                0x00000470       0x10 build/default/debug/NxpNfcRdLib/comps/phhalHw/src/Pn5180/phhalHw_Pn5180_Wait.o
 .gnu.attributes
                0x00000480       0x10 build/default/debug/NxpNfcRdLib/comps/phhalHw/src/PN7462AU/phhalHw_PN7462AU.o
 .gnu.attributes
                0x00000490       0x10 build/default/debug/NxpNfcRdLib/comps/phhalHw/src/PN7462AU/phhalHw_PN7462AU_Int.o
 .gnu.attributes
                0x000004a0       0x10 build/default/debug/NxpNfcRdLib/comps/phhalHw/src/Rc523/phhalHw_Rc523.o
 .gnu.attributes
                0x000004b0       0x10 build/default/debug/NxpNfcRdLib/comps/phhalHw/src/Rc523/phhalHw_Rc523_Cmd.o
 .gnu.attributes
                0x000004c0       0x10 build/default/debug/NxpNfcRdLib/comps/phhalHw/src/Rc523/phhalHw_Rc523_Int.o
 .gnu.attributes
                0x000004d0       0x10 build/default/debug/NxpNfcRdLib/comps/phhalHw/src/Rc523/phhalHw_Rc523_Wait.o
 .gnu.attributes
                0x000004e0       0x10 build/default/debug/NxpNfcRdLib/comps/phhalHw/src/Rc663/phhalHw_Rc663.o
 .gnu.attributes
                0x000004f0       0x10 build/default/debug/NxpNfcRdLib/comps/phhalHw/src/Rc663/phhalHw_Rc663_Cmd.o
 .gnu.attributes
                0x00000500       0x10 build/default/debug/NxpNfcRdLib/comps/phhalHw/src/Rc663/phhalHw_Rc663_Int.o
 .gnu.attributes
                0x00000510       0x10 build/default/debug/NxpNfcRdLib/comps/phhalHw/src/Rc663/phhalHw_Rc663_Wait.o
 .gnu.attributes
                0x00000520       0x10 build/default/debug/NxpNfcRdLib/comps/phhalHw/src/phhalHw.o
 .gnu.attributes
                0x00000530       0x10 build/default/debug/NxpNfcRdLib/comps/phKeyStore/src/Rc663/phKeyStore_Rc663.o
 .gnu.attributes
                0x00000540       0x10 build/default/debug/NxpNfcRdLib/comps/phKeyStore/src/Sw/phKeyStore_Sw.o
 .gnu.attributes
                0x00000550       0x10 build/default/debug/NxpNfcRdLib/comps/phKeyStore/src/phKeyStore.o
 .gnu.attributes
                0x00000560       0x10 build/default/debug/NxpNfcRdLib/comps/phlnLlcp/src/Sw/phlnLlcp_Sw.o
 .gnu.attributes
                0x00000570       0x10 build/default/debug/NxpNfcRdLib/comps/phlnLlcp/src/Sw/phlnLlcp_Sw_Int.o
 .gnu.attributes
                0x00000580       0x10 build/default/debug/NxpNfcRdLib/comps/phlnLlcp/src/Sw/phlnLlcp_Sw_Mac.o
 .gnu.attributes
                0x00000590       0x10 build/default/debug/NxpNfcRdLib/comps/phlnLlcp/src/Sw/phlnLlcp_Sw_Transport.o
 .gnu.attributes
                0x000005a0       0x10 build/default/debug/NxpNfcRdLib/comps/phlnLlcp/src/Sw/phlnLlcp_Sw_Transport_Connection.o
 .gnu.attributes
                0x000005b0       0x10 build/default/debug/NxpNfcRdLib/comps/phlnLlcp/src/Sw/phlnLlcp_Sw_Transport_Connectionless.o
 .gnu.attributes
                0x000005c0       0x10 build/default/debug/NxpNfcRdLib/comps/phlnLlcp/src/Sw/phlnLlcp_Timers.o
 .gnu.attributes
                0x000005d0       0x10 build/default/debug/NxpNfcRdLib/comps/phlnLlcp/src/phlnLlcp.o
 .gnu.attributes
                0x000005e0       0x10 build/default/debug/NxpNfcRdLib/comps/phLog/src/phLog.o
 .gnu.attributes
                0x000005f0       0x10 build/default/debug/NxpNfcRdLib/comps/phNfcLib/src/phNfcLib.o
 .gnu.attributes
                0x00000600       0x10 build/default/debug/NxpNfcRdLib/comps/phNfcLib/src/phNfcLib_15693.o
 .gnu.attributes
                0x00000610       0x10 build/default/debug/NxpNfcRdLib/comps/phNfcLib/src/phNfcLib_18000p3m3.o
 .gnu.attributes
                0x00000620       0x10 build/default/debug/NxpNfcRdLib/comps/phNfcLib/src/phNfcLib_MFC.o
 .gnu.attributes
                0x00000630       0x10 build/default/debug/NxpNfcRdLib/comps/phNfcLib/src/phNfcLib_MFDF.o
 .gnu.attributes
                0x00000640       0x10 build/default/debug/NxpNfcRdLib/comps/phNfcLib/src/phNfcLib_MFUL.o
 .gnu.attributes
                0x00000650       0x10 build/default/debug/NxpNfcRdLib/comps/phNfcLib/src/phNfcLib_Utility.o
 .gnu.attributes
                0x00000660       0x10 build/default/debug/NxpNfcRdLib/comps/phnpSnep/src/Sw/phnpSnep_Sw.o
 .gnu.attributes
                0x00000670       0x10 build/default/debug/NxpNfcRdLib/comps/phnpSnep/src/phnpSnep.o
 .gnu.attributes
                0x00000680       0x10 build/default/debug/NxpNfcRdLib/comps/phOsal/src/Freertos/phOsal_Freertos.o
 .gnu.attributes
                0x00000690       0x10 build/default/debug/NxpNfcRdLib/comps/phOsal/src/Linux/phOsal_Linux.o
 .gnu.attributes
                0x000006a0       0x10 build/default/debug/NxpNfcRdLib/comps/phOsal/src/NullOs/phOsal_NullOs.o
 .gnu.attributes
                0x000006b0       0x10 build/default/debug/NxpNfcRdLib/comps/phpalEpcUid/src/Sw/phpalEpcUid_Sw.o
 .gnu.attributes
                0x000006c0       0x10 build/default/debug/NxpNfcRdLib/comps/phpalEpcUid/src/phpalEpcUid.o
 .gnu.attributes
                0x000006d0       0x10 build/default/debug/NxpNfcRdLib/comps/phpalFelica/src/Sw/phpalFelica_Sw.o
 .gnu.attributes
                0x000006e0       0x10 build/default/debug/NxpNfcRdLib/comps/phpalFelica/src/phpalFelica.o
 .gnu.attributes
                0x000006f0       0x10 build/default/debug/NxpNfcRdLib/comps/phpalI14443p3a/src/Sw/phpalI14443p3a_Sw.o
 .gnu.attributes
                0x00000700       0x10 build/default/debug/NxpNfcRdLib/comps/phpalI14443p3a/src/phpalI14443p3a.o
 .gnu.attributes
                0x00000710       0x10 build/default/debug/NxpNfcRdLib/comps/phpalI14443p3b/src/Sw/phpalI14443p3b_Sw.o
 .gnu.attributes
                0x00000720       0x10 build/default/debug/NxpNfcRdLib/comps/phpalI14443p3b/src/phpalI14443p3b.o
 .gnu.attributes
                0x00000730       0x10 build/default/debug/NxpNfcRdLib/comps/phpalI14443p4/src/Sw/phpalI14443p4_Sw.o
 .gnu.attributes
                0x00000740       0x10 build/default/debug/NxpNfcRdLib/comps/phpalI14443p4/src/phpalI14443p4.o
 .gnu.attributes
                0x00000750       0x10 build/default/debug/NxpNfcRdLib/comps/phpalI14443p4a/src/Sw/phpalI14443p4a_Sw.o
 .gnu.attributes
                0x00000760       0x10 build/default/debug/NxpNfcRdLib/comps/phpalI14443p4a/src/phpalI14443p4a.o
 .gnu.attributes
                0x00000770       0x10 build/default/debug/NxpNfcRdLib/comps/phpalI14443p4mC/src/Sw/phpalI14443p4mC_Sw.o
 .gnu.attributes
                0x00000780       0x10 build/default/debug/NxpNfcRdLib/comps/phpalI14443p4mC/src/Sw/phpalI14443p4mC_Sw_Int.o
 .gnu.attributes
                0x00000790       0x10 build/default/debug/NxpNfcRdLib/comps/phpalI14443p4mC/src/phpalI14443p4mC.o
 .gnu.attributes
                0x000007a0       0x10 build/default/debug/NxpNfcRdLib/comps/phpalI18000p3m3/src/Sw/phpalI18000p3m3_Sw.o
 .gnu.attributes
                0x000007b0       0x10 build/default/debug/NxpNfcRdLib/comps/phpalI18000p3m3/src/phpalI18000p3m3.o
 .gnu.attributes
                0x000007c0       0x10 build/default/debug/NxpNfcRdLib/comps/phpalI18092mPI/src/Sw/phpalI18092mPI_Sw.o
 .gnu.attributes
                0x000007d0       0x10 build/default/debug/NxpNfcRdLib/comps/phpalI18092mPI/src/Sw/phpalI18092mPI_Sw_Int.o
 .gnu.attributes
                0x000007e0       0x10 build/default/debug/NxpNfcRdLib/comps/phpalI18092mPI/src/phpalI18092mPI.o
 .gnu.attributes
                0x000007f0       0x10 build/default/debug/NxpNfcRdLib/comps/phpalI18092mT/src/Sw/phpalI18092mT_Sw.o
 .gnu.attributes
                0x00000800       0x10 build/default/debug/NxpNfcRdLib/comps/phpalI18092mT/src/Sw/phpalI18092mT_Sw_Int.o
 .gnu.attributes
                0x00000810       0x10 build/default/debug/NxpNfcRdLib/comps/phpalI18092mT/src/phpalI18092mT.o
 .gnu.attributes
                0x00000820       0x10 build/default/debug/NxpNfcRdLib/comps/phpalMifare/src/Sw/phpalMifare_Sw.o
 .gnu.attributes
                0x00000830       0x10 build/default/debug/NxpNfcRdLib/comps/phpalMifare/src/phpalMifare.o
 .gnu.attributes
                0x00000840       0x10 build/default/debug/NxpNfcRdLib/comps/phpalSli15693/src/Sw/phpalSli15693_Sw.o
 .gnu.attributes
                0x00000850       0x10 build/default/debug/NxpNfcRdLib/comps/phpalSli15693/src/phpalSli15693.o
 .gnu.attributes
                0x00000860       0x10 build/default/debug/NxpNfcRdLib/comps/phPlatform/src/Port/K81/phPlatform_Port_K81.o
 .gnu.attributes
                0x00000870       0x10 build/default/debug/NxpNfcRdLib/comps/phPlatform/src/Port/K81/phPlatform_Port_KinetisTimer.o
 .gnu.attributes
                0x00000880       0x10 build/default/debug/NxpNfcRdLib/comps/phPlatform/src/Port/K82/phPlatform_Port_K82.o
 .gnu.attributes
                0x00000890       0x10 build/default/debug/NxpNfcRdLib/comps/phPlatform/src/Port/K82/phPlatform_Port_K82Timer.o
 .gnu.attributes
                0x000008a0       0x10 build/default/debug/NxpNfcRdLib/comps/phPlatform/src/Port/LPC11u68/cr_startup_lpc11u6x.o
 .gnu.attributes
                0x000008b0       0x10 build/default/debug/NxpNfcRdLib/comps/phPlatform/src/Port/LPC11u68/phPlatform_Port_LPC11u68.o
 .gnu.attributes
                0x000008c0       0x10 build/default/debug/NxpNfcRdLib/comps/phPlatform/src/Port/LPC1769/cr_startup_lpc175x_6x.o
 .gnu.attributes
                0x000008d0       0x10 build/default/debug/NxpNfcRdLib/comps/phPlatform/src/Port/LPC1769/keil_iar_sysinit.o
 .gnu.attributes
                0x000008e0       0x10 build/default/debug/NxpNfcRdLib/comps/phPlatform/src/Port/LPC1769/phPlatform_Port_LPC1769.o
 .gnu.attributes
                0x000008f0       0x10 build/default/debug/NxpNfcRdLib/comps/phPlatform/src/Port/LPCTimer/phPlatform_Port_LPCTimer.o
 .gnu.attributes
                0x00000900       0x10 build/default/debug/NxpNfcRdLib/comps/phPlatform/src/Port/PIC32MX/phPlatform_Port_PIC32MX.o
 .gnu.attributes
                0x00000910       0x10 build/default/debug/NxpNfcRdLib/comps/phPlatform/src/Port/PIC32MX/phPlatform_Port_PIC32MXTimer.o
 .gnu.attributes
                0x00000920       0x10 build/default/debug/NxpNfcRdLib/comps/phPlatform/src/Port/PN7462AU/phPlatform_Port_PN7462AU.o
 .gnu.attributes
                0x00000930       0x10 build/default/debug/NxpNfcRdLib/comps/phPlatform/src/Port/RaspberryPi/phPlatform_Port_Pi.o
 .gnu.attributes
                0x00000940       0x10 build/default/debug/NxpNfcRdLib/comps/phPlatform/src/Port/RaspberryPi/phPlatform_Port_PiGpio.o
 .gnu.attributes
                0x00000950       0x10 build/default/debug/NxpNfcRdLib/comps/phPlatform/src/phPlatform.o
 .gnu.attributes
                0x00000960       0x10 build/default/debug/NxpNfcRdLib/comps/phTools/src/phTools.o
 .gnu.attributes
                0x00000970       0x10 build/default/debug/NxpNfcRdLib/comps/phTools/src/phTools_Q.o
 .gnu.attributes
                0x00000980       0x10 build/default/debug/main.o
 .gnu.attributes
                0x00000990       0x10 c:/program files (x86)/microchip/xc32/v2.05/bin/bin/../../lib/gcc/pic32mx/4.8.3\libgcc.a(floatunsisf.o)
 .gnu.attributes
                0x000009a0       0x10 c:/program files (x86)/microchip/xc32/v2.05/bin/bin/../../lib/gcc/pic32mx/4.8.3/../../../../pic32mx/lib\libpic32.a(default-bootstrap-exception-handler.o)
 .gnu.attributes
                0x000009b0       0x10 c:/program files (x86)/microchip/xc32/v2.05/bin/bin/../../lib/gcc/pic32mx/4.8.3/../../../../pic32mx/lib\libpic32.a(default-on-reset.o)
 .gnu.attributes
                0x000009c0       0x10 c:/program files (x86)/microchip/xc32/v2.05/bin/bin/../../lib/gcc/pic32mx/4.8.3/../../../../pic32mx/lib\libpic32.a(default-on-bootstrap.o)
 .gnu.attributes
                0x000009d0       0x10 c:/program files (x86)/microchip/xc32/v2.05/bin/bin/../../lib/gcc/pic32mx/4.8.3/../../../../pic32mx/lib\libpic32.a(defaultinterrupt.o)
LOAD c:/program files (x86)/microchip/xc32/v2.05/bin/bin/../../lib/gcc/pic32mx/4.8.3\libgcc.a
START GROUP
LOAD c:/program files (x86)/microchip/xc32/v2.05/bin/bin/../../lib/gcc/pic32mx/4.8.3/../../../../pic32mx/lib\libpic32.a
LOAD c:/program files (x86)/microchip/xc32/v2.05/bin/bin/../../lib/gcc/pic32mx/4.8.3/../../../../pic32mx/lib\libdebug.a
LOAD c:/program files (x86)/microchip/xc32/v2.05/bin/bin/../../lib/gcc/pic32mx/4.8.3/../../../../pic32mx/lib\libpic32.a
LOAD c:/program files (x86)/microchip/xc32/v2.05/bin/bin/../../lib/gcc/pic32mx/4.8.3/../../../../pic32mx/lib\libc.a
LOAD c:/program files (x86)/microchip/xc32/v2.05/bin/bin/../../lib/gcc/pic32mx/4.8.3/../../../../pic32mx/lib\libc.a
LOAD c:/program files (x86)/microchip/xc32/v2.05/bin/bin/../../lib/gcc/pic32mx/4.8.3/../../../../pic32mx/lib\libm.a
LOAD c:/program files (x86)/microchip/xc32/v2.05/bin/bin/../../lib/gcc/pic32mx/4.8.3/../../../../pic32mx/lib\libe.a
LOAD c:/program files (x86)/microchip/xc32/v2.05/bin/bin/../../lib/gcc/pic32mx/4.8.3/../../../../pic32mx/lib\libdsp.a
LOAD c:/program files (x86)/microchip/xc32/v2.05/bin/bin/../../lib/gcc/pic32mx/4.8.3\libgcc.a
LOAD c:/program files (x86)/microchip/xc32/v2.05/bin/bin/../../lib/gcc/pic32mx/4.8.3/../../../../pic32mx/lib\libpic32.a
END GROUP
LOAD c:/program files (x86)/microchip/xc32/v2.05/bin/bin/../../lib/gcc/pic32mx/4.8.3\libgcc.a
OUTPUT(dist/default/debug/NfcDemo1.X.debug.elf elf32-tradlittlemips)
LOAD stack
LOAD data_init

.reginfo        0x00000000       0x18
 .reginfo       0x00000000       0x18 c:/program files (x86)/microchip/xc32/v2.05/bin/bin/../../lib/gcc/pic32mx/4.8.3/../../../../pic32mx/lib/./proc/32MX150F128D/crt0_mips32r2.o

.stack          0xa0000868      0x400
 .stack         0xa0000868      0x400 stack

.data.cause.cause
                0xa0000784       0x4c
 .data.cause.cause
                0xa0000784       0x4c build/default/debug/mcc_generated_files/mcc.o

.bss.cardInfo.cardInfo
                0xa00007d0       0x2c
 .bss.cardInfo.cardInfo
                0xa00007d0       0x2c build/default/debug/main.o

.bss.uart1_obj.uart1_obj
                0xa00007fc       0x14
 .bss.uart1_obj.uart1_obj
                0xa00007fc       0x14 build/default/debug/mcc_generated_files/uart1.o

.bss.gdwEvents.gdwEvents
                0xa0000810       0x14
 .bss.gdwEvents.gdwEvents
                0xa0000810       0x14 build/default/debug/NxpNfcRdLib/comps/phOsal/src/NullOs/phOsal_NullOs.o

.bss.bDataBuffer.bDataBuffer
                0xa0000824       0x14
 .bss.bDataBuffer.bDataBuffer
                0xa0000824       0x14 build/default/debug/main.o
                0xa0000824                bDataBuffer

.text.phhalHw_Pn5180_SetConfig
                0x9d000000     0x1ff8
 .text.phhalHw_Pn5180_SetConfig
                0x9d000000     0x1ff8 build/default/debug/NxpNfcRdLib/comps/phhalHw/src/Pn5180/phhalHw_Pn5180.o
                0x9d000000                phhalHw_Pn5180_SetConfig

.text.phpalI14443p4_Sw_IsoHandling
                0x9d001ff8      0xd48
 .text.phpalI14443p4_Sw_IsoHandling
                0x9d001ff8      0xd48 build/default/debug/NxpNfcRdLib/comps/phpalI14443p4/src/Sw/phpalI14443p4_Sw.o
                0x9d001ff8                phpalI14443p4_Sw_IsoHandling

.text.phhalHw_Pn5180_SetCardMode
                0x9d002d40      0xd34
 .text.phhalHw_Pn5180_SetCardMode
                0x9d002d40      0xd34 build/default/debug/NxpNfcRdLib/comps/phhalHw/src/Pn5180/phhalHw_Pn5180_Int.o
                0x9d002d40                phhalHw_Pn5180_SetCardMode

.text.phpalI14443p4_Sw_Exchange
                0x9d003a74      0xd20
 .text.phpalI14443p4_Sw_Exchange
                0x9d003a74      0xd20 build/default/debug/NxpNfcRdLib/comps/phpalI14443p4/src/Sw/phpalI14443p4_Sw.o
                0x9d003a74                phpalI14443p4_Sw_Exchange

.text.phpalI14443p4a_Sw_Rats
                0x9d004794      0x994
 .text.phpalI14443p4a_Sw_Rats
                0x9d004794      0x994 build/default/debug/NxpNfcRdLib/comps/phpalI14443p4a/src/Sw/phpalI14443p4a_Sw.o
                0x9d004794                phpalI14443p4a_Sw_Rats

.text.phacDiscLoop_Sw_Int_CollisionResolutionA
                0x9d005128      0x8d4
 .text.phacDiscLoop_Sw_Int_CollisionResolutionA
                0x9d005128      0x8d4 build/default/debug/NxpNfcRdLib/comps/phacDiscLoop/src/Sw/phacDiscLoop_Sw_Int_A.o
                0x9d005128                phacDiscLoop_Sw_Int_CollisionResolutionA

.text.phhalHw_Pn5180_GetConfig
                0x9d0059fc      0x8bc
 .text.phhalHw_Pn5180_GetConfig
                0x9d0059fc      0x8bc build/default/debug/NxpNfcRdLib/comps/phhalHw/src/Pn5180/phhalHw_Pn5180.o
                0x9d0059fc                phhalHw_Pn5180_GetConfig

.text.phhalHw_Pn5180_Receive_Int
                0x9d0062b8      0x8a0
 .text.phhalHw_Pn5180_Receive_Int
                0x9d0062b8      0x8a0 build/default/debug/NxpNfcRdLib/comps/phhalHw/src/Pn5180/phhalHw_Pn5180_Int.o
                0x9d0062b8                phhalHw_Pn5180_Receive_Int

.text.phhalHw_Pn5180_Exchange
                0x9d006b58      0x89c
 .text.phhalHw_Pn5180_Exchange
                0x9d006b58      0x89c build/default/debug/NxpNfcRdLib/comps/phhalHw/src/Pn5180/phhalHw_Pn5180.o
                0x9d006b58                phhalHw_Pn5180_Exchange

.text.phpalI14443p3a_Sw_Anticollision
                0x9d0073f4      0x89c
 .text.phpalI14443p3a_Sw_Anticollision
                0x9d0073f4      0x89c build/default/debug/NxpNfcRdLib/comps/phpalI14443p3a/src/Sw/phpalI14443p3a_Sw.o
                0x9d0073f4                phpalI14443p3a_Sw_Anticollision

.text.phacDiscLoop_Sw_SetConfig
                0x9d007c90      0x7a0
 .text.phacDiscLoop_Sw_SetConfig
                0x9d007c90      0x7a0 build/default/debug/NxpNfcRdLib/comps/phacDiscLoop/src/Sw/phacDiscLoop_Sw.o
                0x9d007c90                phacDiscLoop_Sw_SetConfig

.text.phhalHw_Pn5180_SetConfig_Int
                0x9d008430      0x644
 .text.phhalHw_Pn5180_SetConfig_Int
                0x9d008430      0x644 build/default/debug/NxpNfcRdLib/comps/phhalHw/src/Pn5180/phhalHw_Pn5180_Int.o
                0x9d008430                phhalHw_Pn5180_SetConfig_Int

.text.phhalHw_Pn5180_ApplyProtocolSettings
                0x9d008a74      0x630
 .text.phhalHw_Pn5180_ApplyProtocolSettings
                0x9d008a74      0x630 build/default/debug/NxpNfcRdLib/comps/phhalHw/src/Pn5180/phhalHw_Pn5180.o
                0x9d008a74                phhalHw_Pn5180_ApplyProtocolSettings

.text.phpalI14443p3a_Sw_ActivateCard
                0x9d0090a4      0x61c
 .text.phpalI14443p3a_Sw_ActivateCard
                0x9d0090a4      0x61c build/default/debug/NxpNfcRdLib/comps/phpalI14443p3a/src/Sw/phpalI14443p3a_Sw.o
                0x9d0090a4                phpalI14443p3a_Sw_ActivateCard

.text.MIFARE_CardDetection
                0x9d0096c0      0x554
 .text.MIFARE_CardDetection
                0x9d0096c0      0x554 build/default/debug/main.o
                0x9d0096c0                MIFARE_CardDetection

.text.phacDiscLoop_Sw_GetConfig
                0x9d009c14      0x504
 .text.phacDiscLoop_Sw_GetConfig
                0x9d009c14      0x504 build/default/debug/NxpNfcRdLib/comps/phacDiscLoop/src/Sw/phacDiscLoop_Sw.o
                0x9d009c14                phacDiscLoop_Sw_GetConfig

.text.phacDiscLoop_Sw_Int_ActivateA
                0x9d00a118      0x4c0
 .text.phacDiscLoop_Sw_Int_ActivateA
                0x9d00a118      0x4c0 build/default/debug/NxpNfcRdLib/comps/phacDiscLoop/src/Sw/phacDiscLoop_Sw_Int_A.o
                0x9d00a118                phacDiscLoop_Sw_Int_ActivateA

.text.phTools_DecodeParity
                0x9d00a5d8      0x4a0
 .text.phTools_DecodeParity
                0x9d00a5d8      0x4a0 build/default/debug/NxpNfcRdLib/comps/phTools/src/phTools.o
                0x9d00a5d8                phTools_DecodeParity

.text.phalMfdf_Int_ComputeErrorResponse
                0x9d00aa78      0x410
 .text.phalMfdf_Int_ComputeErrorResponse
                0x9d00aa78      0x410 build/default/debug/NxpNfcRdLib/comps/phalMfdf/src/phalMfdf_Int.o
                0x9d00aa78                phalMfdf_Int_ComputeErrorResponse

.text.phpalMifare_Sw_ExchangeL3
                0x9d00ae88      0x400
 .text.phpalMifare_Sw_ExchangeL3
                0x9d00ae88      0x400 build/default/debug/NxpNfcRdLib/comps/phpalMifare/src/Sw/phpalMifare_Sw.o
                0x9d00ae88                phpalMifare_Sw_ExchangeL3

.text.phhalHw_Pn5180_Int_Wait
                0x9d00b288      0x3d0
 .text.phhalHw_Pn5180_Int_Wait
                0x9d00b288      0x3d0 build/default/debug/NxpNfcRdLib/comps/phhalHw/src/Pn5180/phhalHw_Pn5180_Int.o
                0x9d00b288                phhalHw_Pn5180_Int_Wait

.text.phpalI14443p3a_Sw_RequestAEx
                0x9d00b658      0x3c8
 .text.phpalI14443p3a_Sw_RequestAEx
                0x9d00b658      0x3c8 build/default/debug/NxpNfcRdLib/comps/phpalI14443p3a/src/Sw/phpalI14443p3a_Sw.o
                0x9d00b658                phpalI14443p3a_Sw_RequestAEx

.text.phhalHw_Pn5180_Lpcd
                0x9d00ba20      0x3c0
 .text.phhalHw_Pn5180_Lpcd
                0x9d00ba20      0x3c0 build/default/debug/NxpNfcRdLib/comps/phhalHw/src/Pn5180/phhalHw_Pn5180.o
                0x9d00ba20                phhalHw_Pn5180_Lpcd

.text.phhalHw_Pn5180_TimerStart
                0x9d00bde0      0x35c
 .text.phhalHw_Pn5180_TimerStart
                0x9d00bde0      0x35c build/default/debug/NxpNfcRdLib/comps/phhalHw/src/Pn5180/phhalHw_Pn5180_Int.o
                0x9d00bde0                phhalHw_Pn5180_TimerStart

.text.phacDiscLoop_Sw_Run
                0x9d00c13c      0x34c
 .text.phacDiscLoop_Sw_Run
                0x9d00c13c      0x34c build/default/debug/NxpNfcRdLib/comps/phacDiscLoop/src/Sw/phacDiscLoop_Sw.o
                0x9d00c13c                phacDiscLoop_Sw_Run

.text.phacDiscLoop_Sw_Int_PollMode
                0x9d00c488      0x324
 .text.phacDiscLoop_Sw_Int_PollMode
                0x9d00c488      0x324 build/default/debug/NxpNfcRdLib/comps/phacDiscLoop/src/Sw/phacDiscLoop_Sw_Int.o
                0x9d00c488                phacDiscLoop_Sw_Int_PollMode

.text._UART_1   0x9d00c7ac      0x320
 .text._UART_1  0x9d00c7ac      0x320 build/default/debug/mcc_generated_files/uart1.o
                0x9d00c7ac                _UART_1

.text.phhalHw_Pn5180_Init
                0x9d00cacc      0x310
 .text.phhalHw_Pn5180_Init
                0x9d00cacc      0x310 build/default/debug/NxpNfcRdLib/comps/phhalHw/src/Pn5180/phhalHw_Pn5180.o
                0x9d00cacc                phhalHw_Pn5180_Init

.text.phpalI14443p4a_Sw_Pps
                0x9d00cddc      0x2f8
 .text.phpalI14443p4a_Sw_Pps
                0x9d00cddc      0x2f8 build/default/debug/NxpNfcRdLib/comps/phpalI14443p4a/src/Sw/phpalI14443p4a_Sw.o
                0x9d00cddc                phpalI14443p4a_Sw_Pps

.text.phhalHw_Pn5180_Int_GetDigiDelay
                0x9d00d0d4      0x2e4
 .text.phhalHw_Pn5180_Int_GetDigiDelay
                0x9d00d0d4      0x2e4 build/default/debug/NxpNfcRdLib/comps/phhalHw/src/Pn5180/phhalHw_Pn5180_Int.o
                0x9d00d0d4                phhalHw_Pn5180_Int_GetDigiDelay

.text.phacDiscLoop_Sw_Int_TechDetectActivity
                0x9d00d3b8      0x2cc
 .text.phacDiscLoop_Sw_Int_TechDetectActivity
                0x9d00d3b8      0x2cc build/default/debug/NxpNfcRdLib/comps/phacDiscLoop/src/Sw/phacDiscLoop_Sw_Int.o
                0x9d00d3b8                phacDiscLoop_Sw_Int_TechDetectActivity

.text.phalMfdf_ExchangeCmd
                0x9d00d684      0x2c8
 .text.phalMfdf_ExchangeCmd
                0x9d00d684      0x2c8 build/default/debug/NxpNfcRdLib/comps/phalMfdf/src/phalMfdf_Int.o
                0x9d00d684                phalMfdf_ExchangeCmd

.text.phhalHw_Pn5180_Instr_MifareAuthenticate
                0x9d00d94c      0x2c8
 .text.phhalHw_Pn5180_Instr_MifareAuthenticate
                0x9d00d94c      0x2c8 build/default/debug/NxpNfcRdLib/comps/phhalHw/src/Pn5180/phhalHw_Pn5180_Instr.o
                0x9d00d94c                phhalHw_Pn5180_Instr_MifareAuthenticate

.text.phhalHw_Pn5180_WaitIrq
                0x9d00dc14      0x2b8
 .text.phhalHw_Pn5180_WaitIrq
                0x9d00dc14      0x2b8 build/default/debug/NxpNfcRdLib/comps/phhalHw/src/Pn5180/phhalHw_Pn5180_Wait.o
                0x9d00dc14                phhalHw_Pn5180_WaitIrq

.text.phhalHw_Pn5180_GetRxBuffer
                0x9d00decc      0x2a4
 .text.phhalHw_Pn5180_GetRxBuffer
                0x9d00decc      0x2a4 build/default/debug/NxpNfcRdLib/comps/phhalHw/src/Pn5180/phhalHw_Pn5180_Int.o
                0x9d00decc                phhalHw_Pn5180_GetRxBuffer

.text.phpalI14443p4_Sw_Deselect
                0x9d00e170      0x2a0
 .text.phpalI14443p4_Sw_Deselect
                0x9d00e170      0x2a0 build/default/debug/NxpNfcRdLib/comps/phpalI14443p4/src/Sw/phpalI14443p4_Sw.o
                0x9d00e170                phpalI14443p4_Sw_Deselect

.text.phTools_CalculateCrc16
                0x9d00e410      0x29c
 .text.phTools_CalculateCrc16
                0x9d00e410      0x29c build/default/debug/NxpNfcRdLib/comps/phTools/src/phTools.o
                0x9d00e410                phTools_CalculateCrc16

.text.phhalHw_Pn5180_Instr_WriteRegisterMultiple
                0x9d00e6ac      0x298
 .text.phhalHw_Pn5180_Instr_WriteRegisterMultiple
                0x9d00e6ac      0x298 build/default/debug/NxpNfcRdLib/comps/phhalHw/src/Pn5180/phhalHw_Pn5180_Instr.o
                0x9d00e6ac                phhalHw_Pn5180_Instr_WriteRegisterMultiple

.text.fpsubadd  0x9d00e944      0x278
 .text.fpsubadd
                0x9d00e944      0x278 c:/program files (x86)/microchip/xc32/v2.05/bin/bin/../../lib/gcc/pic32mx/4.8.3/../../../../pic32mx/lib\libm.a(fp32subadd.o)
                0x9d00e944                fpsub
                0x9d00e944                __subsf3
                0x9d00e94c                __addsf3
                0x9d00e94c                fpadd

.text.phpalI14443p4_Sw_SetConfig
                0x9d00ebbc      0x240
 .text.phpalI14443p4_Sw_SetConfig
                0x9d00ebbc      0x240 build/default/debug/NxpNfcRdLib/comps/phpalI14443p4/src/Sw/phpalI14443p4_Sw.o
                0x9d00ebbc                phpalI14443p4_Sw_SetConfig

.text.Mfdf_ReadCardInfo
                0x9d00edfc      0x230
 .text.Mfdf_ReadCardInfo
                0x9d00edfc      0x230 build/default/debug/main.o
                0x9d00edfc                Mfdf_ReadCardInfo

.text.fp32div   0x9d00f02c      0x230
 .text.fp32div  0x9d00f02c      0x230 c:/program files (x86)/microchip/xc32/v2.05/bin/bin/../../lib/gcc/pic32mx/4.8.3/../../../../pic32mx/lib\libm.a(fp32div.o)
                0x9d00f02c                fpdiv
                0x9d00f02c                __divsf3

.text.phApp_RdLibInit
                0x9d00f25c      0x22c
 .text.phApp_RdLibInit
                0x9d00f25c      0x22c build/default/debug/nxp_reader_config_files/phApp_Init.o
                0x9d00f25c                phApp_RdLibInit

.text.phhalHw_Pn5180_Int_LoadCommand
                0x9d00f488      0x208
 .text.phhalHw_Pn5180_Int_LoadCommand
                0x9d00f488      0x208 build/default/debug/NxpNfcRdLib/comps/phhalHw/src/Pn5180/phhalHw_Pn5180_Int.o
                0x9d00f488                phhalHw_Pn5180_Int_LoadCommand

.text.phhalHw_Pn5180_Wait
                0x9d00f690      0x200
 .text.phhalHw_Pn5180_Wait
                0x9d00f690      0x200 build/default/debug/NxpNfcRdLib/comps/phhalHw/src/Pn5180/phhalHw_Pn5180.o
                0x9d00f690                phhalHw_Pn5180_Wait

.text.PIN_MANAGER_Initialize
                0x9d00f890      0x1ec
 .text.PIN_MANAGER_Initialize
                0x9d00f890      0x1ec build/default/debug/mcc_generated_files/pin_manager.o
                0x9d00f890                PIN_MANAGER_Initialize

.dinit          0x9d00fa7c      0x1e0
 .dinit         0x9d00fa7c      0x1e0 data_init

.text.phOsal_EventPend
                0x9d00fc5c      0x1d4
 .text.phOsal_EventPend
                0x9d00fc5c      0x1d4 build/default/debug/NxpNfcRdLib/comps/phOsal/src/NullOs/phOsal_NullOs.o
                0x9d00fc5c                phOsal_EventPend

.text.phhalHw_Pn5180_SetMinFDT
                0x9d00fe30      0x1c8
 .text.phhalHw_Pn5180_SetMinFDT
                0x9d00fe30      0x1c8 build/default/debug/NxpNfcRdLib/comps/phhalHw/src/Pn5180/phhalHw_Pn5180.o
                0x9d00fe30                phhalHw_Pn5180_SetMinFDT

.text.phhalHw_Pn5180_Instr_WriteRegisterOrMask
                0x9d00fff8      0x1c0
 .text.phhalHw_Pn5180_Instr_WriteRegisterOrMask
                0x9d00fff8      0x1c0 build/default/debug/NxpNfcRdLib/comps/phhalHw/src/Pn5180/phhalHw_Pn5180_Instr.o
                0x9d00fff8                phhalHw_Pn5180_Instr_WriteRegisterOrMask

.text.phhalHw_Pn5180_Instr_WriteRegisterAndMask
                0x9d0101b8      0x1c0
 .text.phhalHw_Pn5180_Instr_WriteRegisterAndMask
                0x9d0101b8      0x1c0 build/default/debug/NxpNfcRdLib/comps/phhalHw/src/Pn5180/phhalHw_Pn5180_Instr.o
                0x9d0101b8                phhalHw_Pn5180_Instr_WriteRegisterAndMask

.text.phhalHw_Pn5180_Instr_WriteRegister
                0x9d010378      0x1bc
 .text.phhalHw_Pn5180_Instr_WriteRegister
                0x9d010378      0x1bc build/default/debug/NxpNfcRdLib/comps/phhalHw/src/Pn5180/phhalHw_Pn5180_Instr.o
                0x9d010378                phhalHw_Pn5180_Instr_WriteRegister

.text.fp32mul   0x9d010534      0x1bc
 .text.fp32mul  0x9d010534      0x1bc c:/program files (x86)/microchip/xc32/v2.05/bin/bin/../../lib/gcc/pic32mx/4.8.3/../../../../pic32mx/lib\libm.a(fp32mul.o)
                0x9d010534                fpmul
                0x9d010534                __mulsf3

.text.phpalI14443p4_Sw_IsValidIBlock
                0x9d0106f0      0x1b4
 .text.phpalI14443p4_Sw_IsValidIBlock
                0x9d0106f0      0x1b4 build/default/debug/NxpNfcRdLib/comps/phpalI14443p4/src/Sw/phpalI14443p4_Sw.o
                0x9d0106f0                phpalI14443p4_Sw_IsValidIBlock

.text.SPI1_ExchangeBuffer
                0x9d0108a4      0x1b0
 .text.SPI1_ExchangeBuffer
                0x9d0108a4      0x1b0 build/default/debug/mcc_generated_files/spi1.o
                0x9d0108a4                SPI1_ExchangeBuffer

.text.phhalHw_Pn5180_SetTmo
                0x9d010a54      0x1a8
 .text.phhalHw_Pn5180_SetTmo
                0x9d010a54      0x1a8 build/default/debug/NxpNfcRdLib/comps/phhalHw/src/Pn5180/phhalHw_Pn5180_Int.o
                0x9d010a54                phhalHw_Pn5180_SetTmo

.text._CHANGE_NOTICE
                0x9d010bfc      0x1a4
 .text._CHANGE_NOTICE
                0x9d010bfc      0x1a4 build/default/debug/mcc_generated_files/pin_manager.o
                0x9d010bfc                _CHANGE_NOTICE

.text.phacDiscLoop_Sw_DetTechTypeA
                0x9d010da0      0x1a0
 .text.phacDiscLoop_Sw_DetTechTypeA
                0x9d010da0      0x1a0 build/default/debug/NxpNfcRdLib/comps/phacDiscLoop/src/Sw/phacDiscLoop_Sw_Int_A.o
                0x9d010da0                phacDiscLoop_Sw_DetTechTypeA

.text.phhalHw_Pn5180_Instr_RetrieveRxData
                0x9d010f40      0x1a0
 .text.phhalHw_Pn5180_Instr_RetrieveRxData
                0x9d010f40      0x1a0 build/default/debug/NxpNfcRdLib/comps/phhalHw/src/Pn5180/phhalHw_Pn5180_Instr.o
                0x9d010f40                phhalHw_Pn5180_Instr_RetrieveRxData

.text           0x9d0110e0      0x1a0
 .text          0x9d0110e0      0x1a0 c:/program files (x86)/microchip/xc32/v2.05/bin/bin/../../lib/gcc/pic32mx/4.8.3/../../../../pic32mx/lib\libpic32.a(strcpy.o)
                0x9d0110e0                strcpy

.text.Mfc_ReadCardInfo
                0x9d011280      0x19c
 .text.Mfc_ReadCardInfo
                0x9d011280      0x19c build/default/debug/main.o
                0x9d011280                Mfc_ReadCardInfo

.text.phacDiscLoop_Sw_Init
                0x9d01141c      0x198
 .text.phacDiscLoop_Sw_Init
                0x9d01141c      0x198 build/default/debug/NxpNfcRdLib/comps/phacDiscLoop/src/Sw/phacDiscLoop_Sw.o
                0x9d01141c                phacDiscLoop_Sw_Init

.text.phhalHw_Pn5180_Instr_ReadRegister
                0x9d0115b4      0x194
 .text.phhalHw_Pn5180_Instr_ReadRegister
                0x9d0115b4      0x194 build/default/debug/NxpNfcRdLib/comps/phhalHw/src/Pn5180/phhalHw_Pn5180_Instr.o
                0x9d0115b4                phhalHw_Pn5180_Instr_ReadRegister

.text._T1Interrupt
                0x9d011748      0x188
 .text._T1Interrupt
                0x9d011748      0x188 build/default/debug/mcc_generated_files/tmr1.o
                0x9d011748                _T1Interrupt

.text.phhalHw_Pn5180_Instr_ReadE2Prom
                0x9d0118d0      0x188
 .text.phhalHw_Pn5180_Instr_ReadE2Prom
                0x9d0118d0      0x188 build/default/debug/NxpNfcRdLib/comps/phhalHw/src/Pn5180/phhalHw_Pn5180_Instr.o
                0x9d0118d0                phhalHw_Pn5180_Instr_ReadE2Prom

.text.phhalHw_Pn5180_Instr_LoadRfConfiguration
                0x9d011a58      0x180
 .text.phhalHw_Pn5180_Instr_LoadRfConfiguration
                0x9d011a58      0x180 build/default/debug/NxpNfcRdLib/comps/phhalHw/src/Pn5180/phhalHw_Pn5180_Instr.o
                0x9d011a58                phhalHw_Pn5180_Instr_LoadRfConfiguration

.text._T2Interrupt
                0x9d011bd8      0x16c
 .text._T2Interrupt
                0x9d011bd8      0x16c build/default/debug/mcc_generated_files/tmr2.o
                0x9d011bd8                _T2Interrupt

.text           0x9d011d44      0x168
 .text          0x9d011d44      0x168 c:/program files (x86)/microchip/xc32/v2.05/bin/bin/../../lib/gcc/pic32mx/4.8.3/../../../../pic32mx/lib\libpic32.a(memcpy.o)
                0x9d011d44                memcpy

.text.phpalI14443p4a_Sw_ActivateCard
                0x9d011eac      0x160
 .text.phpalI14443p4a_Sw_ActivateCard
                0x9d011eac      0x160 build/default/debug/NxpNfcRdLib/comps/phpalI14443p4a/src/Sw/phpalI14443p4a_Sw.o
                0x9d011eac                phpalI14443p4a_Sw_ActivateCard

.text.phpalI14443p3a_Sw_HaltA
                0x9d01200c      0x150
 .text.phpalI14443p3a_Sw_HaltA
                0x9d01200c      0x150 build/default/debug/NxpNfcRdLib/comps/phpalI14443p3a/src/Sw/phpalI14443p3a_Sw.o
                0x9d01200c                phpalI14443p3a_Sw_HaltA

.text.phalMfdf_Sw_Init
                0x9d01215c      0x14c
 .text.phalMfdf_Sw_Init
                0x9d01215c      0x14c build/default/debug/NxpNfcRdLib/comps/phalMfdf/src/Sw/phalMfdf_Sw.o
                0x9d01215c                phalMfdf_Sw_Init

.text.phhalHw_Pn5180_FieldOn
                0x9d0122a8      0x14c
 .text.phhalHw_Pn5180_FieldOn
                0x9d0122a8      0x14c build/default/debug/NxpNfcRdLib/comps/phhalHw/src/Pn5180/phhalHw_Pn5180.o
                0x9d0122a8                phhalHw_Pn5180_FieldOn

.text.phbalReg_Pic32mxSpi_Exchange
                0x9d0123f4      0x148
 .text.phbalReg_Pic32mxSpi_Exchange
                0x9d0123f4      0x148 build/default/debug/NxpNfcRdLib/comps/phbalReg/src/Pic32mxSPI/phbalReg_Pic32mxSpi.o
                0x9d0123f4                phbalReg_Pic32mxSpi_Exchange

.text.phhalHw_Pn5180_Instr_SwitchModeLpcd
                0x9d01253c      0x148
 .text.phhalHw_Pn5180_Instr_SwitchModeLpcd
                0x9d01253c      0x148 build/default/debug/NxpNfcRdLib/comps/phhalHw/src/Pn5180/phhalHw_Pn5180_Instr.o
                0x9d01253c                phhalHw_Pn5180_Instr_SwitchModeLpcd

.text.phPlatform_Port_Host_SetPinConfig
                0x9d012684      0x140
 .text.phPlatform_Port_Host_SetPinConfig
                0x9d012684      0x140 build/default/debug/NxpNfcRdLib/comps/phPlatform/src/Port/PIC32MX/phPlatform_Port_PIC32MX.o
                0x9d012684                phPlatform_Port_Host_SetPinConfig

.text.phpalI14443p4_Sw_IsValidSBlock
                0x9d0127c4      0x138
 .text.phpalI14443p4_Sw_IsValidSBlock
                0x9d0127c4      0x138 build/default/debug/NxpNfcRdLib/comps/phpalI14443p4/src/Sw/phpalI14443p4_Sw.o
                0x9d0127c4                phpalI14443p4_Sw_IsValidSBlock

.text.phacDiscLoop_Sw_Int_ColsnReslnActivity
                0x9d0128fc      0x134
 .text.phacDiscLoop_Sw_Int_ColsnReslnActivity
                0x9d0128fc      0x134 build/default/debug/NxpNfcRdLib/comps/phacDiscLoop/src/Sw/phacDiscLoop_Sw_Int.o
                0x9d0128fc                phacDiscLoop_Sw_Int_ColsnReslnActivity

.text.UART1_Initialize
                0x9d012a30      0x130
 .text.UART1_Initialize
                0x9d012a30      0x130 build/default/debug/mcc_generated_files/uart1.o
                0x9d012a30                UART1_Initialize

.text.phPlatform_Init
                0x9d012b60      0x130
 .text.phPlatform_Init
                0x9d012b60      0x130 build/default/debug/NxpNfcRdLib/comps/phPlatform/src/phPlatform.o
                0x9d012b60                phPlatform_Init

.text.INTERRUPT_Initialize
                0x9d012c90      0x124
 .text.INTERRUPT_Initialize
                0x9d012c90      0x124 build/default/debug/mcc_generated_files/interrupt_manager.o
                0x9d012c90                INTERRUPT_Initialize

.text.phpalI14443p4_Sw_BuildIBlock
                0x9d012db4      0x120
 .text.phpalI14443p4_Sw_BuildIBlock
                0x9d012db4      0x120 build/default/debug/NxpNfcRdLib/comps/phpalI14443p4/src/Sw/phpalI14443p4_Sw.o
                0x9d012db4                phpalI14443p4_Sw_BuildIBlock

.text.phpalMifare_Sw_ExchangeL4
                0x9d012ed4      0x120
 .text.phpalMifare_Sw_ExchangeL4
                0x9d012ed4      0x120 build/default/debug/NxpNfcRdLib/comps/phpalMifare/src/Sw/phpalMifare_Sw.o
                0x9d012ed4                phpalMifare_Sw_ExchangeL4

.text.phOsal_EventCreate
                0x9d012ff4      0x11c
 .text.phOsal_EventCreate
                0x9d012ff4      0x11c build/default/debug/NxpNfcRdLib/comps/phOsal/src/NullOs/phOsal_NullOs.o
                0x9d012ff4                phOsal_EventCreate

.text.phhalHw_Pn5180_ReadData
                0x9d013110      0x118
 .text.phhalHw_Pn5180_ReadData
                0x9d013110      0x118 build/default/debug/NxpNfcRdLib/comps/phhalHw/src/Pn5180/phhalHw_Pn5180_Int.o
                0x9d013110                phhalHw_Pn5180_ReadData

.text.phhalHw_Pn5180_BalExchange
                0x9d013228      0x114
 .text.phhalHw_Pn5180_BalExchange
                0x9d013228      0x114 build/default/debug/NxpNfcRdLib/comps/phhalHw/src/Pn5180/phhalHw_Pn5180.o
                0x9d013228                phhalHw_Pn5180_BalExchange

.text.phpalI14443p4_Sw_IsValidRBlock
                0x9d01333c      0x114
 .text.phpalI14443p4_Sw_IsValidRBlock
                0x9d01333c      0x114 build/default/debug/NxpNfcRdLib/comps/phpalI14443p4/src/Sw/phpalI14443p4_Sw.o
                0x9d01333c                phpalI14443p4_Sw_IsValidRBlock

.text.phpalI14443p4_Sw_BuildSBlock
                0x9d013450      0x10c
 .text.phpalI14443p4_Sw_BuildSBlock
                0x9d013450      0x10c build/default/debug/NxpNfcRdLib/comps/phpalI14443p4/src/Sw/phpalI14443p4_Sw.o
                0x9d013450                phpalI14443p4_Sw_BuildSBlock

.text.phhalHw_Pn5180_GetTxBuffer
                0x9d01355c      0x104
 .text.phhalHw_Pn5180_GetTxBuffer
                0x9d01355c      0x104 build/default/debug/NxpNfcRdLib/comps/phhalHw/src/Pn5180/phhalHw_Pn5180_Int.o
                0x9d01355c                phhalHw_Pn5180_GetTxBuffer

.text.phhalHw_Pn5180_Instr_RfOn
                0x9d013660       0xf8
 .text.phhalHw_Pn5180_Instr_RfOn
                0x9d013660       0xf8 build/default/debug/NxpNfcRdLib/comps/phhalHw/src/Pn5180/phhalHw_Pn5180_Instr.o
                0x9d013660                phhalHw_Pn5180_Instr_RfOn

.text.phacDiscLoop_Sw_Int_FieldOn
                0x9d013758       0xf4
 .text.phacDiscLoop_Sw_Int_FieldOn
                0x9d013758       0xf4 build/default/debug/NxpNfcRdLib/comps/phacDiscLoop/src/Sw/phacDiscLoop_Sw_Int.o
                0x9d013758                phacDiscLoop_Sw_Int_FieldOn

.text.main      0x9d01384c       0xf4
 .text.main     0x9d01384c       0xf4 build/default/debug/main.o
                0x9d01384c                main

.text.phhalHw_Pn5180_FieldReset
                0x9d013940       0xf0
 .text.phhalHw_Pn5180_FieldReset
                0x9d013940       0xf0 build/default/debug/NxpNfcRdLib/comps/phhalHw/src/Pn5180/phhalHw_Pn5180.o
                0x9d013940                phhalHw_Pn5180_FieldReset

.text.phacDiscLoop_Sw_Int_ActivateDevice
                0x9d013a30       0xec
 .text.phacDiscLoop_Sw_Int_ActivateDevice
                0x9d013a30       0xec build/default/debug/NxpNfcRdLib/comps/phacDiscLoop/src/Sw/phacDiscLoop_Sw_Int.o
                0x9d013a30                phacDiscLoop_Sw_Int_ActivateDevice

.text.phpalI14443p3a_Sw_SetConfig
                0x9d013b1c       0xe8
 .text.phpalI14443p3a_Sw_SetConfig
                0x9d013b1c       0xe8 build/default/debug/NxpNfcRdLib/comps/phpalI14443p3a/src/Sw/phpalI14443p3a_Sw.o
                0x9d013b1c                phpalI14443p3a_Sw_SetConfig

.text.phpalI14443p4_Sw_SetProtocol
                0x9d013c04       0xe8
 .text.phpalI14443p4_Sw_SetProtocol
                0x9d013c04       0xe8 build/default/debug/NxpNfcRdLib/comps/phpalI14443p4/src/Sw/phpalI14443p4_Sw.o
                0x9d013c04                phpalI14443p4_Sw_SetProtocol

.rodata         0x9d013cec       0xdc
 .rodata        0x9d013cec       0xdc build/default/debug/mcc_generated_files/mcc.o

.text.phhalHw_Pn5180_MfcAuthenticate
                0x9d013dc8       0xdc
 .text.phhalHw_Pn5180_MfcAuthenticate
                0x9d013dc8       0xdc build/default/debug/NxpNfcRdLib/comps/phhalHw/src/Pn5180/phhalHw_Pn5180.o
                0x9d013dc8                phhalHw_Pn5180_MfcAuthenticate

.text.phhalHw_Pn5180_Instr_RfOff
                0x9d013ea4       0xdc
 .text.phhalHw_Pn5180_Instr_RfOff
                0x9d013ea4       0xdc build/default/debug/NxpNfcRdLib/comps/phhalHw/src/Pn5180/phhalHw_Pn5180_Instr.o
                0x9d013ea4                phhalHw_Pn5180_Instr_RfOff

.text.general_exception
                0x9d013f80       0xdc
 .text.general_exception
                0x9d013f80       0xdc c:/program files (x86)/microchip/xc32/v2.05/bin/bin/../../lib/gcc/pic32mx/4.8.3/../../../../pic32mx/lib\libpic32.a(general-exception.o)
                0x9d013f80                _general_exception_context

.text.phalMfdf_Sw_SelectApplication
                0x9d01405c       0xd8
 .text.phalMfdf_Sw_SelectApplication
                0x9d01405c       0xd8 build/default/debug/NxpNfcRdLib/comps/phalMfdf/src/Sw/phalMfdf_Sw.o
                0x9d01405c                phalMfdf_Sw_SelectApplication

.text.phpalI14443p4_Sw_BuildRBlock
                0x9d014134       0xd8
 .text.phpalI14443p4_Sw_BuildRBlock
                0x9d014134       0xd8 build/default/debug/NxpNfcRdLib/comps/phpalI14443p4/src/Sw/phpalI14443p4_Sw.o
                0x9d014134                phpalI14443p4_Sw_BuildRBlock

.text.phpalMifare_Sw_MfcAuthenticate
                0x9d01420c       0xd8
 .text.phpalMifare_Sw_MfcAuthenticate
                0x9d01420c       0xd8 build/default/debug/NxpNfcRdLib/comps/phpalMifare/src/Sw/phpalMifare_Sw.o
                0x9d01420c                phpalMifare_Sw_MfcAuthenticate

.text.phPlatform_Port_Host_SetPinValue
                0x9d0142e4       0xd4
 .text.phPlatform_Port_Host_SetPinValue
                0x9d0142e4       0xd4 build/default/debug/NxpNfcRdLib/comps/phPlatform/src/Port/PIC32MX/phPlatform_Port_PIC32MX.o
                0x9d0142e4                phPlatform_Port_Host_SetPinValue

.text.phpalI14443p4a_Sw_Init
                0x9d0143b8       0xd0
 .text.phpalI14443p4a_Sw_Init
                0x9d0143b8       0xd0 build/default/debug/NxpNfcRdLib/comps/phpalI14443p4a/src/Sw/phpalI14443p4a_Sw.o
                0x9d0143b8                phpalI14443p4a_Sw_Init

.text.phPlatform_FE_Reset
                0x9d014488       0xd0
 .text.phPlatform_FE_Reset
                0x9d014488       0xd0 build/default/debug/NxpNfcRdLib/comps/phPlatform/src/phPlatform.o
                0x9d014488                phPlatform_FE_Reset

.text.phpalI14443p4a_Sw_SetConfig
                0x9d014558       0xc8
 .text.phpalI14443p4a_Sw_SetConfig
                0x9d014558       0xc8 build/default/debug/NxpNfcRdLib/comps/phpalI14443p4a/src/Sw/phpalI14443p4a_Sw.o
                0x9d014558                phpalI14443p4a_Sw_SetConfig

.text.phTools_ComputeCrc_B
                0x9d014620       0xc4
 .text.phTools_ComputeCrc_B
                0x9d014620       0xc4 build/default/debug/NxpNfcRdLib/comps/phTools/src/phTools.o
                0x9d014620                phTools_ComputeCrc_B

.text.phTools_UpdateCrc_B
                0x9d0146e4       0xc0
 .text.phTools_UpdateCrc_B
                0x9d0146e4       0xc0 build/default/debug/NxpNfcRdLib/comps/phTools/src/phTools.o

.text.phOsal_NullOs_GetFreeIndex
                0x9d0147a4       0xb8
 .text.phOsal_NullOs_GetFreeIndex
                0x9d0147a4       0xb8 build/default/debug/NxpNfcRdLib/comps/phOsal/src/NullOs/phOsal_NullOs.o

.text.phTools_CalcParity
                0x9d01485c       0xb4
 .text.phTools_CalcParity
                0x9d01485c       0xb4 build/default/debug/NxpNfcRdLib/comps/phTools/src/phTools.o

.text.phacDiscLoop_Sw_Int_ActivePollMode
                0x9d014910       0xb0
 .text.phacDiscLoop_Sw_Int_ActivePollMode
                0x9d014910       0xb0 build/default/debug/NxpNfcRdLib/comps/phacDiscLoop/src/Sw/phacDiscLoop_Sw_Int.o
                0x9d014910                phacDiscLoop_Sw_Int_ActivePollMode

.text           0x9d0149c0       0xa8
 .text          0x9d0149c0       0xa8 c:/program files (x86)/microchip/xc32/v2.05/bin/bin/../../lib/gcc/pic32mx/4.8.3/../../../../pic32mx/lib\libpic32.a(memset.o)
                0x9d0149c0                memset

.text.phbalReg_Pic32mxSpi_Init
                0x9d014a68       0xa0
 .text.phbalReg_Pic32mxSpi_Init
                0x9d014a68       0xa0 build/default/debug/NxpNfcRdLib/comps/phbalReg/src/Pic32mxSPI/phbalReg_Pic32mxSpi.o
                0x9d014a68                phbalReg_Pic32mxSpi_Init

.text.phOsal_EventClear
                0x9d014b08       0xa0
 .text.phOsal_EventClear
                0x9d014b08       0xa0 build/default/debug/NxpNfcRdLib/comps/phOsal/src/NullOs/phOsal_NullOs.o
                0x9d014b08                phOsal_EventClear

.text.phOsal_EventPost
                0x9d014ba8       0x9c
 .text.phOsal_EventPost
                0x9d014ba8       0x9c build/default/debug/NxpNfcRdLib/comps/phOsal/src/NullOs/phOsal_NullOs.o
                0x9d014ba8                phOsal_EventPost

.text.phacDiscLoop_Sw_Int_IsValidPollStatus
                0x9d014c44       0x98
 .text.phacDiscLoop_Sw_Int_IsValidPollStatus
                0x9d014c44       0x98 build/default/debug/NxpNfcRdLib/comps/phacDiscLoop/src/Sw/phacDiscLoop_Sw_Int.o
                0x9d014c44                phacDiscLoop_Sw_Int_IsValidPollStatus

.text           0x9d014cdc       0x98
 .text          0x9d014cdc       0x98 c:/program files (x86)/microchip/xc32/v2.05/bin/bin/../../lib/gcc/pic32mx/4.8.3/../../../../pic32mx/lib\libpic32.a(memcmp.o)
                0x9d014cdc                memcmp

.text.phpalI14443p4a_Sw_GetProtocolParams
                0x9d014d74       0x94
 .text.phpalI14443p4a_Sw_GetProtocolParams
                0x9d014d74       0x94 build/default/debug/NxpNfcRdLib/comps/phpalI14443p4a/src/Sw/phpalI14443p4a_Sw.o
                0x9d014d74                phpalI14443p4a_Sw_GetProtocolParams

.text.phPlatform_Timer_Init
                0x9d014e08       0x94
 .text.phPlatform_Timer_Init
                0x9d014e08       0x94 build/default/debug/NxpNfcRdLib/comps/phPlatform/src/phPlatform.o
                0x9d014e08                phPlatform_Timer_Init

.text.ADC_1     0x9d014e9c       0x90
 .text.ADC_1    0x9d014e9c       0x90 build/default/debug/mcc_generated_files/adc1.o
                0x9d014e9c                ADC_1

.text.phhalHw_Pn5180_FieldOff
                0x9d014f2c       0x90
 .text.phhalHw_Pn5180_FieldOff
                0x9d014f2c       0x90 build/default/debug/NxpNfcRdLib/comps/phhalHw/src/Pn5180/phhalHw_Pn5180.o
                0x9d014f2c                phhalHw_Pn5180_FieldOff

.text.phhalHw_Pn5180_Int_IdleCommand
                0x9d014fbc       0x90
 .text.phhalHw_Pn5180_Int_IdleCommand
                0x9d014fbc       0x90 build/default/debug/NxpNfcRdLib/comps/phhalHw/src/Pn5180/phhalHw_Pn5180_Int.o
                0x9d014fbc                phhalHw_Pn5180_Int_IdleCommand

.text.phpalI14443p3a_Sw_Init
                0x9d01504c       0x8c
 .text.phpalI14443p3a_Sw_Init
                0x9d01504c       0x8c build/default/debug/NxpNfcRdLib/comps/phpalI14443p3a/src/Sw/phpalI14443p3a_Sw.o
                0x9d01504c                phpalI14443p3a_Sw_Init

.text.phpalI14443p3a_Sw_GetSerialNo
                0x9d0150d8       0x88
 .text.phpalI14443p3a_Sw_GetSerialNo
                0x9d0150d8       0x88 build/default/debug/NxpNfcRdLib/comps/phpalI14443p3a/src/Sw/phpalI14443p3a_Sw.o
                0x9d0150d8                phpalI14443p3a_Sw_GetSerialNo

.text.phpalI14443p4_Sw_ResetProtocol
                0x9d015160       0x88
 .text.phpalI14443p4_Sw_ResetProtocol
                0x9d015160       0x88 build/default/debug/NxpNfcRdLib/comps/phpalI14443p4/src/Sw/phpalI14443p4_Sw.o
                0x9d015160                phpalI14443p4_Sw_ResetProtocol

.text.SysTick_Handler
                0x9d0151e8       0x88
 .text.SysTick_Handler
                0x9d0151e8       0x88 build/default/debug/NxpNfcRdLib/comps/phPlatform/src/Port/PIC32MX/phPlatform_Port_PIC32MXTimer.o
                0x9d0151e8                SysTick_Handler

.text.phpalI14443p4_Sw_Init
                0x9d015270       0x84
 .text.phpalI14443p4_Sw_Init
                0x9d015270       0x84 build/default/debug/NxpNfcRdLib/comps/phpalI14443p4/src/Sw/phpalI14443p4_Sw.o
                0x9d015270                phpalI14443p4_Sw_Init

.text.phPlatform_Port_Host_GetPinValue
                0x9d0152f4       0x84
 .text.phPlatform_Port_Host_GetPinValue
                0x9d0152f4       0x84 build/default/debug/NxpNfcRdLib/comps/phPlatform/src/Port/PIC32MX/phPlatform_Port_PIC32MX.o
                0x9d0152f4                phPlatform_Port_Host_GetPinValue

.text.phhalHw_Pn5180_Check_Reg_Readonly
                0x9d015378       0x80
 .text.phhalHw_Pn5180_Check_Reg_Readonly
                0x9d015378       0x80 build/default/debug/NxpNfcRdLib/comps/phhalHw/src/Pn5180/phhalHw_Pn5180_Instr.o

.text.fptoul    0x9d0153f8       0x7c
 .text.fptoul   0x9d0153f8       0x7c c:/program files (x86)/microchip/xc32/v2.05/bin/bin/../../lib/gcc/pic32mx/4.8.3/../../../../pic32mx/lib\libm.a(fptoul.o)
                0x9d0153f8                __fixunssfsi
                0x9d0153f8                fptoul
                0x9d0153f8                fptoui

.text.phalMfc_Sw_Init
                0x9d015474       0x78
 .text.phalMfc_Sw_Init
                0x9d015474       0x78 build/default/debug/NxpNfcRdLib/comps/phalMfc/src/Sw/phalMfc_Sw.o
                0x9d015474                phalMfc_Sw_Init

.text.phpalMifare_Sw_Init
                0x9d0154ec       0x78
 .text.phpalMifare_Sw_Init
                0x9d0154ec       0x78 build/default/debug/NxpNfcRdLib/comps/phpalMifare/src/Sw/phpalMifare_Sw.o
                0x9d0154ec                phpalMifare_Sw_Init

.rodata         0x9d015564       0x74
 .rodata        0x9d015564       0x74 build/default/debug/main.o

.text.SYSTEM_Initialize
                0x9d0155d8       0x70
 .text.SYSTEM_Initialize
                0x9d0155d8       0x70 build/default/debug/mcc_generated_files/mcc.o
                0x9d0155d8                SYSTEM_Initialize

.text.RF_IRQ_Handler
                0x9d015648       0x70
 .text.RF_IRQ_Handler
                0x9d015648       0x70 build/default/debug/NxpNfcRdLib/comps/phPlatform/src/phPlatform.o
                0x9d015648                RF_IRQ_Handler

.text.ADC1_Initialize
                0x9d0156b8       0x68
 .text.ADC1_Initialize
                0x9d0156b8       0x68 build/default/debug/mcc_generated_files/adc1.o
                0x9d0156b8                ADC1_Initialize

.text.phpalI14443p3a_Sw_Select
                0x9d015720       0x68
 .text.phpalI14443p3a_Sw_Select
                0x9d015720       0x68 build/default/debug/NxpNfcRdLib/comps/phpalI14443p3a/src/Sw/phpalI14443p3a_Sw.o
                0x9d015720                phpalI14443p3a_Sw_Select

.text.TMR1_Initialize
                0x9d015788       0x64
 .text.TMR1_Initialize
                0x9d015788       0x64 build/default/debug/mcc_generated_files/tmr1.o
                0x9d015788                TMR1_Initialize

.text.OSCILLATOR_Initialize
                0x9d0157ec       0x64
 .text.OSCILLATOR_Initialize
                0x9d0157ec       0x64 build/default/debug/mcc_generated_files/mcc.o
                0x9d0157ec                OSCILLATOR_Initialize

.text.phalMfdf_Sw_SetConfig
                0x9d015850       0x64
 .text.phalMfdf_Sw_SetConfig
                0x9d015850       0x64 build/default/debug/NxpNfcRdLib/comps/phalMfdf/src/Sw/phalMfdf_Sw.o
                0x9d015850                phalMfdf_Sw_SetConfig

.text.NfcRdLibInit
                0x9d0158b4       0x64
 .text.NfcRdLibInit
                0x9d0158b4       0x64 build/default/debug/main.o

.text.TMR2_Initialize
                0x9d015918       0x60
 .text.TMR2_Initialize
                0x9d015918       0x60 build/default/debug/mcc_generated_files/tmr2.o
                0x9d015918                TMR2_Initialize

.text.sitofp    0x9d015978       0x60
 .text.sitofp   0x9d015978       0x60 c:/program files (x86)/microchip/xc32/v2.05/bin/bin/../../lib/gcc/pic32mx/4.8.3/../../../../pic32mx/lib\libm.a(sitofp.o)
                0x9d015978                __floatsisf
                0x9d015978                litofp
                0x9d015978                sitofp

.text.TMR1_Start
                0x9d0159d8       0x58
 .text.TMR1_Start
                0x9d0159d8       0x58 build/default/debug/mcc_generated_files/tmr1.o
                0x9d0159d8                TMR1_Start

.text.phApp_Print_Buff
                0x9d015a30       0x58
 .text.phApp_Print_Buff
                0x9d015a30       0x58 build/default/debug/nxp_reader_config_files/phApp_Init.o
                0x9d015a30                phApp_Print_Buff

.text.main_entry
                0x9d015a88       0x54
 .text.main_entry
                0x9d015a88       0x54 c:/program files (x86)/microchip/xc32/v2.05/bin/bin/../../lib/gcc/pic32mx/4.8.3/../../../../pic32mx/lib/./proc/32MX150F128D/crt0_mips32r2.o
                0x9d015abc                __crt0_exit

.text.phhalHw_Pn5180_EventCallback
                0x9d015adc       0x54
 .text.phhalHw_Pn5180_EventCallback
                0x9d015adc       0x54 build/default/debug/NxpNfcRdLib/comps/phhalHw/src/Pn5180/phhalHw_Pn5180.o
                0x9d015adc                phhalHw_Pn5180_EventCallback

.text.phPlatform_StartTickTimer
                0x9d015b30       0x54
 .text.phPlatform_StartTickTimer
                0x9d015b30       0x54 build/default/debug/NxpNfcRdLib/comps/phPlatform/src/Port/PIC32MX/phPlatform_Port_PIC32MXTimer.o
                0x9d015b30                phPlatform_StartTickTimer

.text.SYSTEM_RegUnlock
                0x9d015b84       0x50
 .text.SYSTEM_RegUnlock
                0x9d015b84       0x50 build/default/debug/mcc_generated_files/mcc.o
                0x9d015b84                SYSTEM_RegUnlock

.text.SPI1_Exchange8bitBuffer
                0x9d015bd4       0x50
 .text.SPI1_Exchange8bitBuffer
                0x9d015bd4       0x50 build/default/debug/mcc_generated_files/spi1.o
                0x9d015bd4                SPI1_Exchange8bitBuffer

.text.phhalHw_Pn5180_WriteRegister
                0x9d015c24       0x50
 .text.phhalHw_Pn5180_WriteRegister
                0x9d015c24       0x50 build/default/debug/NxpNfcRdLib/comps/phhalHw/src/Pn5180/phhalHw_Pn5180.o
                0x9d015c24                phhalHw_Pn5180_WriteRegister

.text.phhalHw_Pn5180_ReadRegister
                0x9d015c74       0x50
 .text.phhalHw_Pn5180_ReadRegister
                0x9d015c74       0x50 build/default/debug/NxpNfcRdLib/comps/phhalHw/src/Pn5180/phhalHw_Pn5180.o
                0x9d015c74                phhalHw_Pn5180_ReadRegister

.text.phPlatform_InitTickTimer
                0x9d015cc4       0x50
 .text.phPlatform_InitTickTimer
                0x9d015cc4       0x50 build/default/debug/NxpNfcRdLib/comps/phPlatform/src/Port/PIC32MX/phPlatform_Port_PIC32MXTimer.o
                0x9d015cc4                phPlatform_InitTickTimer

.text._general_exception_handler
                0x9d015d14       0x4c
 .text._general_exception_handler
                0x9d015d14       0x4c build/default/debug/mcc_generated_files/mcc.o
                0x9d015d14                _general_exception_handler

.text.SPI1_Initialize
                0x9d015d60       0x4c
 .text.SPI1_Initialize
                0x9d015d60       0x4c build/default/debug/mcc_generated_files/spi1.o
                0x9d015d60                SPI1_Initialize

.text.SPI2_Initialize
                0x9d015dac       0x4c
 .text.SPI2_Initialize
                0x9d015dac       0x4c build/default/debug/mcc_generated_files/spi2.o
                0x9d015dac                SPI2_Initialize

.text           0x9d015df8       0x4c
 .text          0x9d015df8       0x4c c:/program files (x86)/microchip/xc32/v2.05/bin/bin/../../lib/gcc/pic32mx/4.8.3\libgcc.a(floatunsisf.o)
                0x9d015df8                __floatunsisf

.text.phhalHw_Pn5180_Instr_GetInstrBuffer
                0x9d015e44       0x48
 .text.phhalHw_Pn5180_Instr_GetInstrBuffer
                0x9d015e44       0x48 build/default/debug/NxpNfcRdLib/comps/phhalHw/src/Pn5180/phhalHw_Pn5180_Instr.o

.text._bootstrap_exception_handler
                0x9d015e8c       0x48
 .text._bootstrap_exception_handler
                0x9d015e8c       0x48 c:/program files (x86)/microchip/xc32/v2.05/bin/bin/../../lib/gcc/pic32mx/4.8.3/../../../../pic32mx/lib\libpic32.a(default-bootstrap-exception-handler.o)
                0x9d015e8c                _bootstrap_exception_handler

.vector_default
                0x9d015ed4       0x48
 .vector_default
                0x9d015ed4       0x48 c:/program files (x86)/microchip/xc32/v2.05/bin/bin/../../lib/gcc/pic32mx/4.8.3/../../../../pic32mx/lib\libpic32.a(defaultinterrupt.o)
                0x9d015ed4                _DefaultInterrupt

.text.phOsal_Init
                0x9d015f1c       0x44
 .text.phOsal_Init
                0x9d015f1c       0x44 build/default/debug/NxpNfcRdLib/comps/phOsal/src/NullOs/phOsal_NullOs.o
                0x9d015f1c                phOsal_Init

.text.phpalI14443p3a_Sw_RequestA
                0x9d015f60       0x44
 .text.phpalI14443p3a_Sw_RequestA
                0x9d015f60       0x44 build/default/debug/NxpNfcRdLib/comps/phpalI14443p3a/src/Sw/phpalI14443p3a_Sw.o
                0x9d015f60                phpalI14443p3a_Sw_RequestA

.text.phpalI14443p3a_Sw_WakeUpA
                0x9d015fa4       0x44
 .text.phpalI14443p3a_Sw_WakeUpA
                0x9d015fa4       0x44 build/default/debug/NxpNfcRdLib/comps/phpalI14443p3a/src/Sw/phpalI14443p3a_Sw.o
                0x9d015fa4                phpalI14443p3a_Sw_WakeUpA

.text.phPlatform_Port_Host_HwTimer_Init
                0x9d015fe8       0x44
 .text.phPlatform_Port_Host_HwTimer_Init
                0x9d015fe8       0x44 build/default/debug/NxpNfcRdLib/comps/phPlatform/src/Port/PIC32MX/phPlatform_Port_PIC32MXTimer.o
                0x9d015fe8                phPlatform_Port_Host_HwTimer_Init

.text           0x9d01602c       0x44
 .text          0x9d01602c       0x44 c:/program files (x86)/microchip/xc32/v2.05/bin/bin/../../lib/gcc/pic32mx/4.8.3/../../../../pic32mx/lib\pic32_software_reset.o
                0x9d01602c                __pic32_software_reset

.text.TMR1_Stop
                0x9d016070       0x40
 .text.TMR1_Stop
                0x9d016070       0x40 build/default/debug/mcc_generated_files/tmr1.o
                0x9d016070                TMR1_Stop

.rodata.gkphhalHw_Pn5180_DigiDelays_Us.gkphhalHw_Pn5180_DigiDelays_Us
                0x9d0160b0       0x38
 .rodata.gkphhalHw_Pn5180_DigiDelays_Us.gkphhalHw_Pn5180_DigiDelays_Us
                0x9d0160b0       0x38 build/default/debug/NxpNfcRdLib/comps/phhalHw/src/Pn5180/phhalHw_Pn5180_Int.o

.text.phOsal_NullOsSysTickHandler
                0x9d0160e8       0x38
 .text.phOsal_NullOsSysTickHandler
                0x9d0160e8       0x38 build/default/debug/NxpNfcRdLib/comps/phOsal/src/NullOs/phOsal_NullOs.o

.text.phacDiscLoop_Sw_Int_EmvcoTechDetectActivity
                0x9d016120       0x34
 .text.phacDiscLoop_Sw_Int_EmvcoTechDetectActivity
                0x9d016120       0x34 build/default/debug/NxpNfcRdLib/comps/phacDiscLoop/src/Sw/phacDiscLoop_Sw_Int.o
                0x9d016120                phacDiscLoop_Sw_Int_EmvcoTechDetectActivity

.text.phPlatform_StopTickTimer
                0x9d016154       0x34
 .text.phPlatform_StopTickTimer
                0x9d016154       0x34 build/default/debug/NxpNfcRdLib/comps/phPlatform/src/Port/PIC32MX/phPlatform_Port_PIC32MXTimer.o
                0x9d016154                phPlatform_StopTickTimer

.text.phacDiscLoop_Sw_Int_ActivateB
                0x9d016188       0x30
 .text.phacDiscLoop_Sw_Int_ActivateB
                0x9d016188       0x30 build/default/debug/NxpNfcRdLib/comps/phacDiscLoop/src/Sw/phacDiscLoop_Sw_Int_B.o
                0x9d016188                phacDiscLoop_Sw_Int_ActivateB

.text.phacDiscLoop_Sw_Int_ActivateF
                0x9d0161b8       0x30
 .text.phacDiscLoop_Sw_Int_ActivateF
                0x9d0161b8       0x30 build/default/debug/NxpNfcRdLib/comps/phacDiscLoop/src/Sw/phacDiscLoop_Sw_Int_F.o
                0x9d0161b8                phacDiscLoop_Sw_Int_ActivateF

.text.phacDiscLoop_Sw_Int_ActivateI18000p3m3
                0x9d0161e8       0x30
 .text.phacDiscLoop_Sw_Int_ActivateI18000p3m3
                0x9d0161e8       0x30 build/default/debug/NxpNfcRdLib/comps/phacDiscLoop/src/Sw/phacDiscLoop_Sw_Int_I18000p3m3.o
                0x9d0161e8                phacDiscLoop_Sw_Int_ActivateI18000p3m3

.text.phacDiscLoop_Sw_Int_ActivateV
                0x9d016218       0x30
 .text.phacDiscLoop_Sw_Int_ActivateV
                0x9d016218       0x30 build/default/debug/NxpNfcRdLib/comps/phacDiscLoop/src/Sw/phacDiscLoop_Sw_Int_V.o
                0x9d016218                phacDiscLoop_Sw_Int_ActivateV

.rodata.wPn5180_DefaultShadow_I15693.wPn5180_DefaultShadow_I15693
                0x9d016248       0x30
 .rodata.wPn5180_DefaultShadow_I15693.wPn5180_DefaultShadow_I15693
                0x9d016248       0x30 build/default/debug/NxpNfcRdLib/comps/phhalHw/src/Pn5180/phhalHw_Pn5180.o

.rodata.wPn5180_DefaultShadow_I18000p3m3.wPn5180_DefaultShadow_I18000p3m3
                0x9d016278       0x30
 .rodata.wPn5180_DefaultShadow_I18000p3m3.wPn5180_DefaultShadow_I18000p3m3
                0x9d016278       0x30 build/default/debug/NxpNfcRdLib/comps/phhalHw/src/Pn5180/phhalHw_Pn5180.o

.rodata.wPn5180_DefaultShadow_I14443b.wPn5180_DefaultShadow_I14443b
                0x9d0162a8       0x2c
 .rodata.wPn5180_DefaultShadow_I14443b.wPn5180_DefaultShadow_I14443b
                0x9d0162a8       0x2c build/default/debug/NxpNfcRdLib/comps/phhalHw/src/Pn5180/phhalHw_Pn5180.o

.rodata.wPn5180_DefaultShadow_Felica.wPn5180_DefaultShadow_Felica
                0x9d0162d4       0x2c
 .rodata.wPn5180_DefaultShadow_Felica.wPn5180_DefaultShadow_Felica
                0x9d0162d4       0x2c build/default/debug/NxpNfcRdLib/comps/phhalHw/src/Pn5180/phhalHw_Pn5180.o

.rodata.wPn5180_DefaultShadow_Felica_424.wPn5180_DefaultShadow_Felica_424
                0x9d016300       0x2c
 .rodata.wPn5180_DefaultShadow_Felica_424.wPn5180_DefaultShadow_Felica_424
                0x9d016300       0x2c build/default/debug/NxpNfcRdLib/comps/phhalHw/src/Pn5180/phhalHw_Pn5180.o

.rodata.wPn5180_DefShadow_I18092m_Active.wPn5180_DefShadow_I18092m_Active
                0x9d01632c       0x2c
 .rodata.wPn5180_DefShadow_I18092m_Active.wPn5180_DefShadow_I18092m_Active
                0x9d01632c       0x2c build/default/debug/NxpNfcRdLib/comps/phhalHw/src/Pn5180/phhalHw_Pn5180.o

.rodata.wPn5180_DefShadow_I18092m_212_Active.wPn5180_DefShadow_I18092m_212_Active
                0x9d016358       0x2c
 .rodata.wPn5180_DefShadow_I18092m_212_Active.wPn5180_DefShadow_I18092m_212_Active
                0x9d016358       0x2c build/default/debug/NxpNfcRdLib/comps/phhalHw/src/Pn5180/phhalHw_Pn5180.o

.rodata.wPn5180_DefShadow_I18092m_424_Active.wPn5180_DefShadow_I18092m_424_Active
                0x9d016384       0x2c
 .rodata.wPn5180_DefShadow_I18092m_424_Active.wPn5180_DefShadow_I18092m_424_Active
                0x9d016384       0x2c build/default/debug/NxpNfcRdLib/comps/phhalHw/src/Pn5180/phhalHw_Pn5180.o

.text.SYSTEM_RegLock
                0x9d0163b0       0x28
 .text.SYSTEM_RegLock
                0x9d0163b0       0x28 build/default/debug/mcc_generated_files/mcc.o
                0x9d0163b0                SYSTEM_RegLock

.text.phacDiscLoop_Sw_Int_ListenMode
                0x9d0163d8       0x28
 .text.phacDiscLoop_Sw_Int_ListenMode
                0x9d0163d8       0x28 build/default/debug/NxpNfcRdLib/comps/phacDiscLoop/src/Sw/phacDiscLoop_Sw_Int.o
                0x9d0163d8                phacDiscLoop_Sw_Int_ListenMode

.text.phacDiscLoop_Sw_Int_EmvcoRemovalProcedure
                0x9d016400       0x28
 .text.phacDiscLoop_Sw_Int_EmvcoRemovalProcedure
                0x9d016400       0x28 build/default/debug/NxpNfcRdLib/comps/phacDiscLoop/src/Sw/phacDiscLoop_Sw_Int.o
                0x9d016400                phacDiscLoop_Sw_Int_EmvcoRemovalProcedure

.text.phacDiscLoop_Sw_DetTechTypeB
                0x9d016428       0x28
 .text.phacDiscLoop_Sw_DetTechTypeB
                0x9d016428       0x28 build/default/debug/NxpNfcRdLib/comps/phacDiscLoop/src/Sw/phacDiscLoop_Sw_Int_B.o
                0x9d016428                phacDiscLoop_Sw_DetTechTypeB

.text.phacDiscLoop_Sw_Int_CollisionResolutionB
                0x9d016450       0x28
 .text.phacDiscLoop_Sw_Int_CollisionResolutionB
                0x9d016450       0x28 build/default/debug/NxpNfcRdLib/comps/phacDiscLoop/src/Sw/phacDiscLoop_Sw_Int_B.o
                0x9d016450                phacDiscLoop_Sw_Int_CollisionResolutionB

.text.phacDiscLoop_Sw_DetTechTypeF
                0x9d016478       0x28
 .text.phacDiscLoop_Sw_DetTechTypeF
                0x9d016478       0x28 build/default/debug/NxpNfcRdLib/comps/phacDiscLoop/src/Sw/phacDiscLoop_Sw_Int_F.o
                0x9d016478                phacDiscLoop_Sw_DetTechTypeF

.text.phacDiscLoop_Sw_Int_CollisionResolutionF
                0x9d0164a0       0x28
 .text.phacDiscLoop_Sw_Int_CollisionResolutionF
                0x9d0164a0       0x28 build/default/debug/NxpNfcRdLib/comps/phacDiscLoop/src/Sw/phacDiscLoop_Sw_Int_F.o
                0x9d0164a0                phacDiscLoop_Sw_Int_CollisionResolutionF

.text.phacDiscLoop_Sw_DetTechTypeI18000p3m3
                0x9d0164c8       0x28
 .text.phacDiscLoop_Sw_DetTechTypeI18000p3m3
                0x9d0164c8       0x28 build/default/debug/NxpNfcRdLib/comps/phacDiscLoop/src/Sw/phacDiscLoop_Sw_Int_I18000p3m3.o
                0x9d0164c8                phacDiscLoop_Sw_DetTechTypeI18000p3m3

.text.phacDiscLoop_Sw_Int_CollisionResolutionI18000p3m3
                0x9d0164f0       0x28
 .text.phacDiscLoop_Sw_Int_CollisionResolutionI18000p3m3
                0x9d0164f0       0x28 build/default/debug/NxpNfcRdLib/comps/phacDiscLoop/src/Sw/phacDiscLoop_Sw_Int_I18000p3m3.o
                0x9d0164f0                phacDiscLoop_Sw_Int_CollisionResolutionI18000p3m3

.text.phacDiscLoop_Sw_DetTechTypeV
                0x9d016518       0x28
 .text.phacDiscLoop_Sw_DetTechTypeV
                0x9d016518       0x28 build/default/debug/NxpNfcRdLib/comps/phacDiscLoop/src/Sw/phacDiscLoop_Sw_Int_V.o
                0x9d016518                phacDiscLoop_Sw_DetTechTypeV

.text.phacDiscLoop_Sw_Int_CollisionResolutionV
                0x9d016540       0x28
 .text.phacDiscLoop_Sw_Int_CollisionResolutionV
                0x9d016540       0x28 build/default/debug/NxpNfcRdLib/comps/phacDiscLoop/src/Sw/phacDiscLoop_Sw_Int_V.o
                0x9d016540                phacDiscLoop_Sw_Int_CollisionResolutionV

.rodata.wPn5180_DefaultShadow_I14443a.wPn5180_DefaultShadow_I14443a
                0x9d016568       0x28
 .rodata.wPn5180_DefaultShadow_I14443a.wPn5180_DefaultShadow_I14443a
                0x9d016568       0x28 build/default/debug/NxpNfcRdLib/comps/phhalHw/src/Pn5180/phhalHw_Pn5180.o

.text.TMR1_SoftwareCounterGet
                0x9d016590       0x24
 .text.TMR1_SoftwareCounterGet
                0x9d016590       0x24 build/default/debug/mcc_generated_files/tmr1.o
                0x9d016590                TMR1_SoftwareCounterGet

.text.TMR1_SoftwareCounterClear
                0x9d0165b4       0x24
 .text.TMR1_SoftwareCounterClear
                0x9d0165b4       0x24 build/default/debug/mcc_generated_files/tmr1.o
                0x9d0165b4                TMR1_SoftwareCounterClear

.text.TMR2_CallBack
                0x9d0165d8       0x20
 .text.TMR2_CallBack
                0x9d0165d8       0x20 build/default/debug/mcc_generated_files/tmr2.o
                0x9d0165d8                TMR2_CallBack

.text.TMR1_CallBack
                0x9d0165f8       0x20
 .text.TMR1_CallBack
                0x9d0165f8       0x20 build/default/debug/mcc_generated_files/tmr1.o
                0x9d0165f8                TMR1_CallBack

.text.phPlatform_Port_Host_ClearInt
                0x9d016618       0x20
 .text.phPlatform_Port_Host_ClearInt
                0x9d016618       0x20 build/default/debug/NxpNfcRdLib/comps/phPlatform/src/Port/PIC32MX/phPlatform_Port_PIC32MX.o
                0x9d016618                phPlatform_Port_Host_ClearInt

.rodata.bI14443p4_FsTable.bI14443p4_FsTable
                0x9d016638       0x1c
 .rodata.bI14443p4_FsTable.bI14443p4_FsTable
                0x9d016638       0x1c build/default/debug/NxpNfcRdLib/comps/phpalI14443p4/src/Sw/phpalI14443p4_Sw.o

.rodata.gPasTechTypeMapTable.gPasTechTypeMapTable
                0x9d016654       0x18
 .rodata.gPasTechTypeMapTable.gPasTechTypeMapTable
                0x9d016654       0x18 build/default/debug/NxpNfcRdLib/comps/phacDiscLoop/src/Sw/phacDiscLoop_Sw_Int.o

.rodata.pfColnRelsns.pfColnRelsns
                0x9d01666c       0x18
 .rodata.pfColnRelsns.pfColnRelsns
                0x9d01666c       0x18 build/default/debug/NxpNfcRdLib/comps/phacDiscLoop/src/Sw/phacDiscLoop_Sw_Int.o

.rodata.pfDetTechs.pfDetTechs
                0x9d016684       0x18
 .rodata.pfDetTechs.pfDetTechs
                0x9d016684       0x18 build/default/debug/NxpNfcRdLib/comps/phacDiscLoop/src/Sw/phacDiscLoop_Sw_Int.o

.rodata.pfDeviceActivate.pfDeviceActivate
                0x9d01669c       0x18
 .rodata.pfDeviceActivate.pfDeviceActivate
                0x9d01669c       0x18 build/default/debug/NxpNfcRdLib/comps/phacDiscLoop/src/Sw/phacDiscLoop_Sw_Int.o

.text           0x9d0166b4       0x18
 .text          0x9d0166b4       0x18 c:/program files (x86)/microchip/xc32/v2.05/bin/bin/../../lib/gcc/pic32mx/4.8.3/../../../../pic32mx/lib\libpic32.a(default-nmi-handler.o)
                0x9d0166b4                _nmi_handler

.text.__exception_handler_break
                0x9d0166cc        0xc
 .text.__exception_handler_break
                0x9d0166cc        0xc c:/program files (x86)/microchip/xc32/v2.05/bin/bin/../../lib/gcc/pic32mx/4.8.3/../../../../pic32mx/lib\software-debug-break.o
                0x9d0166cc                __exception_handler_break

.rodata.phhalHw_Pn5180_Instr_RO_Reg_Table.phhalHw_Pn5180_Instr_RO_Reg_Table
                0x9d0166d8        0x8
 .rodata.phhalHw_Pn5180_Instr_RO_Reg_Table.phhalHw_Pn5180_Instr_RO_Reg_Table
                0x9d0166d8        0x8 build/default/debug/NxpNfcRdLib/comps/phhalHw/src/Pn5180/phhalHw_Pn5180_Instr.o

.text._on_reset
                0x9d0166e0        0x8
 .text._on_reset
                0x9d0166e0        0x8 c:/program files (x86)/microchip/xc32/v2.05/bin/bin/../../lib/gcc/pic32mx/4.8.3/../../../../pic32mx/lib\libpic32.a(default-on-reset.o)
                0x9d0166e0                _on_reset

.text._on_bootstrap
                0x9d0166e8        0x8
 .text._on_bootstrap
                0x9d0166e8        0x8 c:/program files (x86)/microchip/xc32/v2.05/bin/bin/../../lib/gcc/pic32mx/4.8.3/../../../../pic32mx/lib\libpic32.a(default-on-bootstrap.o)
                0x9d0166e8                _on_bootstrap

.rodata.aCascadeCodes.aCascadeCodes
                0x9d0166f0        0x4
 .rodata.aCascadeCodes.aCascadeCodes
                0x9d0166f0        0x4 build/default/debug/NxpNfcRdLib/comps/phacDiscLoop/src/Sw/phacDiscLoop_Sw_Int_A.o

.rodata.bHalEventName.bHalEventName
                0x9d0166f4        0x4
 .rodata.bHalEventName.bHalEventName
                0x9d0166f4        0x4 build/default/debug/NxpNfcRdLib/comps/phhalHw/src/Pn5180/phhalHw_Pn5180.o

.rodata         0x9d0166f8        0x4
 .rodata        0x9d0166f8        0x4 build/default/debug/NxpNfcRdLib/comps/phhalHw/src/Pn5180/phhalHw_Pn5180.o
