
Optional file libmchp_peripheral.a not found

Optional file libmchp_peripheral_32MX150F128D.a not found
Archive member included because of file (symbol)

c:/program files (x86)/microchip/xc32/v2.05/bin/bin/../../lib/gcc/pic32mx/4.8.3\libgcc.a(floatunsisf.o)
                              build/default/production/NxpNfcRdLib/comps/phhalHw/src/Pn5180/phhalHw_Pn5180.o (__floatunsisf)
c:/program files (x86)/microchip/xc32/v2.05/bin/bin/../../lib/gcc/pic32mx/4.8.3/../../../../pic32mx/lib\libpic32.a(memcmp.o)
                              build/default/production/NxpNfcRdLib/comps/phpalI14443p4/src/Sw/phpalI14443p4_Sw.o (memcmp)
c:/program files (x86)/microchip/xc32/v2.05/bin/bin/../../lib/gcc/pic32mx/4.8.3/../../../../pic32mx/lib\libpic32.a(memcpy.o)
                              build/default/production/NxpNfcRdLib/comps/phalMfc/src/Sw/phalMfc_Sw.o (memcpy)
c:/program files (x86)/microchip/xc32/v2.05/bin/bin/../../lib/gcc/pic32mx/4.8.3/../../../../pic32mx/lib\libpic32.a(memset.o)
                              build/default/production/NxpNfcRdLib/comps/phalMfc/src/Sw/phalMfc_Sw.o (memset)
c:/program files (x86)/microchip/xc32/v2.05/bin/bin/../../lib/gcc/pic32mx/4.8.3/../../../../pic32mx/lib\libpic32.a(strcpy.o)
                              build/default/production/main.o (strcpy)
c:/program files (x86)/microchip/xc32/v2.05/bin/bin/../../lib/gcc/pic32mx/4.8.3/../../../../pic32mx/lib\libpic32.a(default-bootstrap-exception-handler.o)
                              c:/program files (x86)/microchip/xc32/v2.05/bin/bin/../../lib/gcc/pic32mx/4.8.3/../../../../pic32mx/lib/./proc/32MX150F128D/crt0_mips32r2.o (_bootstrap_exception_handler)
c:/program files (x86)/microchip/xc32/v2.05/bin/bin/../../lib/gcc/pic32mx/4.8.3/../../../../pic32mx/lib\libpic32.a(default-on-reset.o)
                              c:/program files (x86)/microchip/xc32/v2.05/bin/bin/../../lib/gcc/pic32mx/4.8.3/../../../../pic32mx/lib/./proc/32MX150F128D/crt0_mips32r2.o (_on_reset)
c:/program files (x86)/microchip/xc32/v2.05/bin/bin/../../lib/gcc/pic32mx/4.8.3/../../../../pic32mx/lib\libpic32.a(default-on-bootstrap.o)
                              c:/program files (x86)/microchip/xc32/v2.05/bin/bin/../../lib/gcc/pic32mx/4.8.3/../../../../pic32mx/lib/./proc/32MX150F128D/crt0_mips32r2.o (_on_bootstrap)
c:/program files (x86)/microchip/xc32/v2.05/bin/bin/../../lib/gcc/pic32mx/4.8.3/../../../../pic32mx/lib\libpic32.a(default-nmi-handler.o)
                              c:/program files (x86)/microchip/xc32/v2.05/bin/bin/../../lib/gcc/pic32mx/4.8.3/../../../../pic32mx/lib/./proc/32MX150F128D/crt0_mips32r2.o (_nmi_handler)
c:/program files (x86)/microchip/xc32/v2.05/bin/bin/../../lib/gcc/pic32mx/4.8.3/../../../../pic32mx/lib\libpic32.a(general-exception.o)
                              c:/program files (x86)/microchip/xc32/v2.05/bin/bin/../../lib/gcc/pic32mx/4.8.3/../../../../pic32mx/lib/./proc/32MX150F128D/crt0_mips32r2.o (_general_exception_context)
c:/program files (x86)/microchip/xc32/v2.05/bin/bin/../../lib/gcc/pic32mx/4.8.3/../../../../pic32mx/lib\libpic32.a(vector0.o)
                              c:/program files (x86)/microchip/xc32/v2.05/bin/bin/../../lib/gcc/pic32mx/4.8.3/../../../../pic32mx/lib/./proc/32MX150F128D\default_isr_vectors.o (__vector_dispatch_0)
c:/program files (x86)/microchip/xc32/v2.05/bin/bin/../../lib/gcc/pic32mx/4.8.3/../../../../pic32mx/lib\libpic32.a(vector1.o)
                              c:/program files (x86)/microchip/xc32/v2.05/bin/bin/../../lib/gcc/pic32mx/4.8.3/../../../../pic32mx/lib/./proc/32MX150F128D\default_isr_vectors.o (__vector_dispatch_1)
c:/program files (x86)/microchip/xc32/v2.05/bin/bin/../../lib/gcc/pic32mx/4.8.3/../../../../pic32mx/lib\libpic32.a(vector2.o)
                              c:/program files (x86)/microchip/xc32/v2.05/bin/bin/../../lib/gcc/pic32mx/4.8.3/../../../../pic32mx/lib/./proc/32MX150F128D\default_isr_vectors.o (__vector_dispatch_2)
c:/program files (x86)/microchip/xc32/v2.05/bin/bin/../../lib/gcc/pic32mx/4.8.3/../../../../pic32mx/lib\libpic32.a(vector3.o)
                              c:/program files (x86)/microchip/xc32/v2.05/bin/bin/../../lib/gcc/pic32mx/4.8.3/../../../../pic32mx/lib/./proc/32MX150F128D\default_isr_vectors.o (__vector_dispatch_3)
c:/program files (x86)/microchip/xc32/v2.05/bin/bin/../../lib/gcc/pic32mx/4.8.3/../../../../pic32mx/lib\libpic32.a(vector5.o)
                              c:/program files (x86)/microchip/xc32/v2.05/bin/bin/../../lib/gcc/pic32mx/4.8.3/../../../../pic32mx/lib/./proc/32MX150F128D\default_isr_vectors.o (__vector_dispatch_5)
c:/program files (x86)/microchip/xc32/v2.05/bin/bin/../../lib/gcc/pic32mx/4.8.3/../../../../pic32mx/lib\libpic32.a(vector6.o)
                              c:/program files (x86)/microchip/xc32/v2.05/bin/bin/../../lib/gcc/pic32mx/4.8.3/../../../../pic32mx/lib/./proc/32MX150F128D\default_isr_vectors.o (__vector_dispatch_6)
c:/program files (x86)/microchip/xc32/v2.05/bin/bin/../../lib/gcc/pic32mx/4.8.3/../../../../pic32mx/lib\libpic32.a(vector7.o)
                              c:/program files (x86)/microchip/xc32/v2.05/bin/bin/../../lib/gcc/pic32mx/4.8.3/../../../../pic32mx/lib/./proc/32MX150F128D\default_isr_vectors.o (__vector_dispatch_7)
c:/program files (x86)/microchip/xc32/v2.05/bin/bin/../../lib/gcc/pic32mx/4.8.3/../../../../pic32mx/lib\libpic32.a(vector9.o)
                              c:/program files (x86)/microchip/xc32/v2.05/bin/bin/../../lib/gcc/pic32mx/4.8.3/../../../../pic32mx/lib/./proc/32MX150F128D\default_isr_vectors.o (__vector_dispatch_9)
c:/program files (x86)/microchip/xc32/v2.05/bin/bin/../../lib/gcc/pic32mx/4.8.3/../../../../pic32mx/lib\libpic32.a(vector10.o)
                              c:/program files (x86)/microchip/xc32/v2.05/bin/bin/../../lib/gcc/pic32mx/4.8.3/../../../../pic32mx/lib/./proc/32MX150F128D\default_isr_vectors.o (__vector_dispatch_10)
c:/program files (x86)/microchip/xc32/v2.05/bin/bin/../../lib/gcc/pic32mx/4.8.3/../../../../pic32mx/lib\libpic32.a(vector11.o)
                              c:/program files (x86)/microchip/xc32/v2.05/bin/bin/../../lib/gcc/pic32mx/4.8.3/../../../../pic32mx/lib/./proc/32MX150F128D\default_isr_vectors.o (__vector_dispatch_11)
c:/program files (x86)/microchip/xc32/v2.05/bin/bin/../../lib/gcc/pic32mx/4.8.3/../../../../pic32mx/lib\libpic32.a(vector12.o)
                              c:/program files (x86)/microchip/xc32/v2.05/bin/bin/../../lib/gcc/pic32mx/4.8.3/../../../../pic32mx/lib/./proc/32MX150F128D\default_isr_vectors.o (__vector_dispatch_12)
c:/program files (x86)/microchip/xc32/v2.05/bin/bin/../../lib/gcc/pic32mx/4.8.3/../../../../pic32mx/lib\libpic32.a(vector13.o)
                              c:/program files (x86)/microchip/xc32/v2.05/bin/bin/../../lib/gcc/pic32mx/4.8.3/../../../../pic32mx/lib/./proc/32MX150F128D\default_isr_vectors.o (__vector_dispatch_13)
c:/program files (x86)/microchip/xc32/v2.05/bin/bin/../../lib/gcc/pic32mx/4.8.3/../../../../pic32mx/lib\libpic32.a(vector14.o)
                              c:/program files (x86)/microchip/xc32/v2.05/bin/bin/../../lib/gcc/pic32mx/4.8.3/../../../../pic32mx/lib/./proc/32MX150F128D\default_isr_vectors.o (__vector_dispatch_14)
c:/program files (x86)/microchip/xc32/v2.05/bin/bin/../../lib/gcc/pic32mx/4.8.3/../../../../pic32mx/lib\libpic32.a(vector15.o)
                              c:/program files (x86)/microchip/xc32/v2.05/bin/bin/../../lib/gcc/pic32mx/4.8.3/../../../../pic32mx/lib/./proc/32MX150F128D\default_isr_vectors.o (__vector_dispatch_15)
c:/program files (x86)/microchip/xc32/v2.05/bin/bin/../../lib/gcc/pic32mx/4.8.3/../../../../pic32mx/lib\libpic32.a(vector16.o)
                              c:/program files (x86)/microchip/xc32/v2.05/bin/bin/../../lib/gcc/pic32mx/4.8.3/../../../../pic32mx/lib/./proc/32MX150F128D\default_isr_vectors.o (__vector_dispatch_16)
c:/program files (x86)/microchip/xc32/v2.05/bin/bin/../../lib/gcc/pic32mx/4.8.3/../../../../pic32mx/lib\libpic32.a(vector17.o)
                              c:/program files (x86)/microchip/xc32/v2.05/bin/bin/../../lib/gcc/pic32mx/4.8.3/../../../../pic32mx/lib/./proc/32MX150F128D\default_isr_vectors.o (__vector_dispatch_17)
c:/program files (x86)/microchip/xc32/v2.05/bin/bin/../../lib/gcc/pic32mx/4.8.3/../../../../pic32mx/lib\libpic32.a(vector18.o)
                              c:/program files (x86)/microchip/xc32/v2.05/bin/bin/../../lib/gcc/pic32mx/4.8.3/../../../../pic32mx/lib/./proc/32MX150F128D\default_isr_vectors.o (__vector_dispatch_18)
c:/program files (x86)/microchip/xc32/v2.05/bin/bin/../../lib/gcc/pic32mx/4.8.3/../../../../pic32mx/lib\libpic32.a(vector19.o)
                              c:/program files (x86)/microchip/xc32/v2.05/bin/bin/../../lib/gcc/pic32mx/4.8.3/../../../../pic32mx/lib/./proc/32MX150F128D\default_isr_vectors.o (__vector_dispatch_19)
c:/program files (x86)/microchip/xc32/v2.05/bin/bin/../../lib/gcc/pic32mx/4.8.3/../../../../pic32mx/lib\libpic32.a(vector20.o)
                              c:/program files (x86)/microchip/xc32/v2.05/bin/bin/../../lib/gcc/pic32mx/4.8.3/../../../../pic32mx/lib/./proc/32MX150F128D\default_isr_vectors.o (__vector_dispatch_20)
c:/program files (x86)/microchip/xc32/v2.05/bin/bin/../../lib/gcc/pic32mx/4.8.3/../../../../pic32mx/lib\libpic32.a(vector21.o)
                              c:/program files (x86)/microchip/xc32/v2.05/bin/bin/../../lib/gcc/pic32mx/4.8.3/../../../../pic32mx/lib/./proc/32MX150F128D\default_isr_vectors.o (__vector_dispatch_21)
c:/program files (x86)/microchip/xc32/v2.05/bin/bin/../../lib/gcc/pic32mx/4.8.3/../../../../pic32mx/lib\libpic32.a(vector22.o)
                              c:/program files (x86)/microchip/xc32/v2.05/bin/bin/../../lib/gcc/pic32mx/4.8.3/../../../../pic32mx/lib/./proc/32MX150F128D\default_isr_vectors.o (__vector_dispatch_22)
c:/program files (x86)/microchip/xc32/v2.05/bin/bin/../../lib/gcc/pic32mx/4.8.3/../../../../pic32mx/lib\libpic32.a(vector24.o)
                              c:/program files (x86)/microchip/xc32/v2.05/bin/bin/../../lib/gcc/pic32mx/4.8.3/../../../../pic32mx/lib/./proc/32MX150F128D\default_isr_vectors.o (__vector_dispatch_24)
c:/program files (x86)/microchip/xc32/v2.05/bin/bin/../../lib/gcc/pic32mx/4.8.3/../../../../pic32mx/lib\libpic32.a(vector25.o)
                              c:/program files (x86)/microchip/xc32/v2.05/bin/bin/../../lib/gcc/pic32mx/4.8.3/../../../../pic32mx/lib/./proc/32MX150F128D\default_isr_vectors.o (__vector_dispatch_25)
c:/program files (x86)/microchip/xc32/v2.05/bin/bin/../../lib/gcc/pic32mx/4.8.3/../../../../pic32mx/lib\libpic32.a(vector26.o)
                              c:/program files (x86)/microchip/xc32/v2.05/bin/bin/../../lib/gcc/pic32mx/4.8.3/../../../../pic32mx/lib/./proc/32MX150F128D\default_isr_vectors.o (__vector_dispatch_26)
c:/program files (x86)/microchip/xc32/v2.05/bin/bin/../../lib/gcc/pic32mx/4.8.3/../../../../pic32mx/lib\libpic32.a(vector27.o)
                              c:/program files (x86)/microchip/xc32/v2.05/bin/bin/../../lib/gcc/pic32mx/4.8.3/../../../../pic32mx/lib/./proc/32MX150F128D\default_isr_vectors.o (__vector_dispatch_27)
c:/program files (x86)/microchip/xc32/v2.05/bin/bin/../../lib/gcc/pic32mx/4.8.3/../../../../pic32mx/lib\libpic32.a(vector28.o)
                              c:/program files (x86)/microchip/xc32/v2.05/bin/bin/../../lib/gcc/pic32mx/4.8.3/../../../../pic32mx/lib/./proc/32MX150F128D\default_isr_vectors.o (__vector_dispatch_28)
c:/program files (x86)/microchip/xc32/v2.05/bin/bin/../../lib/gcc/pic32mx/4.8.3/../../../../pic32mx/lib\libpic32.a(vector29.o)
                              c:/program files (x86)/microchip/xc32/v2.05/bin/bin/../../lib/gcc/pic32mx/4.8.3/../../../../pic32mx/lib/./proc/32MX150F128D\default_isr_vectors.o (__vector_dispatch_29)
c:/program files (x86)/microchip/xc32/v2.05/bin/bin/../../lib/gcc/pic32mx/4.8.3/../../../../pic32mx/lib\libpic32.a(vector30.o)
                              c:/program files (x86)/microchip/xc32/v2.05/bin/bin/../../lib/gcc/pic32mx/4.8.3/../../../../pic32mx/lib/./proc/32MX150F128D\default_isr_vectors.o (__vector_dispatch_30)
c:/program files (x86)/microchip/xc32/v2.05/bin/bin/../../lib/gcc/pic32mx/4.8.3/../../../../pic32mx/lib\libpic32.a(vector31.o)
                              c:/program files (x86)/microchip/xc32/v2.05/bin/bin/../../lib/gcc/pic32mx/4.8.3/../../../../pic32mx/lib/./proc/32MX150F128D\default_isr_vectors.o (__vector_dispatch_31)
c:/program files (x86)/microchip/xc32/v2.05/bin/bin/../../lib/gcc/pic32mx/4.8.3/../../../../pic32mx/lib\libpic32.a(vector33.o)
                              c:/program files (x86)/microchip/xc32/v2.05/bin/bin/../../lib/gcc/pic32mx/4.8.3/../../../../pic32mx/lib/./proc/32MX150F128D\default_isr_vectors.o (__vector_dispatch_33)
c:/program files (x86)/microchip/xc32/v2.05/bin/bin/../../lib/gcc/pic32mx/4.8.3/../../../../pic32mx/lib\libpic32.a(vector35.o)
                              c:/program files (x86)/microchip/xc32/v2.05/bin/bin/../../lib/gcc/pic32mx/4.8.3/../../../../pic32mx/lib/./proc/32MX150F128D\default_isr_vectors.o (__vector_dispatch_35)
c:/program files (x86)/microchip/xc32/v2.05/bin/bin/../../lib/gcc/pic32mx/4.8.3/../../../../pic32mx/lib\libpic32.a(vector36.o)
                              c:/program files (x86)/microchip/xc32/v2.05/bin/bin/../../lib/gcc/pic32mx/4.8.3/../../../../pic32mx/lib/./proc/32MX150F128D\default_isr_vectors.o (__vector_dispatch_36)
c:/program files (x86)/microchip/xc32/v2.05/bin/bin/../../lib/gcc/pic32mx/4.8.3/../../../../pic32mx/lib\libpic32.a(vector37.o)
                              c:/program files (x86)/microchip/xc32/v2.05/bin/bin/../../lib/gcc/pic32mx/4.8.3/../../../../pic32mx/lib/./proc/32MX150F128D\default_isr_vectors.o (__vector_dispatch_37)
c:/program files (x86)/microchip/xc32/v2.05/bin/bin/../../lib/gcc/pic32mx/4.8.3/../../../../pic32mx/lib\libpic32.a(vector38.o)
                              c:/program files (x86)/microchip/xc32/v2.05/bin/bin/../../lib/gcc/pic32mx/4.8.3/../../../../pic32mx/lib/./proc/32MX150F128D\default_isr_vectors.o (__vector_dispatch_38)
c:/program files (x86)/microchip/xc32/v2.05/bin/bin/../../lib/gcc/pic32mx/4.8.3/../../../../pic32mx/lib\libpic32.a(vector39.o)
                              c:/program files (x86)/microchip/xc32/v2.05/bin/bin/../../lib/gcc/pic32mx/4.8.3/../../../../pic32mx/lib/./proc/32MX150F128D\default_isr_vectors.o (__vector_dispatch_39)
c:/program files (x86)/microchip/xc32/v2.05/bin/bin/../../lib/gcc/pic32mx/4.8.3/../../../../pic32mx/lib\libpic32.a(vector40.o)
                              c:/program files (x86)/microchip/xc32/v2.05/bin/bin/../../lib/gcc/pic32mx/4.8.3/../../../../pic32mx/lib/./proc/32MX150F128D\default_isr_vectors.o (__vector_dispatch_40)
c:/program files (x86)/microchip/xc32/v2.05/bin/bin/../../lib/gcc/pic32mx/4.8.3/../../../../pic32mx/lib\libpic32.a(vector41.o)
                              c:/program files (x86)/microchip/xc32/v2.05/bin/bin/../../lib/gcc/pic32mx/4.8.3/../../../../pic32mx/lib/./proc/32MX150F128D\default_isr_vectors.o (__vector_dispatch_41)
c:/program files (x86)/microchip/xc32/v2.05/bin/bin/../../lib/gcc/pic32mx/4.8.3/../../../../pic32mx/lib\libpic32.a(vector42.o)
                              c:/program files (x86)/microchip/xc32/v2.05/bin/bin/../../lib/gcc/pic32mx/4.8.3/../../../../pic32mx/lib/./proc/32MX150F128D\default_isr_vectors.o (__vector_dispatch_42)
c:/program files (x86)/microchip/xc32/v2.05/bin/bin/../../lib/gcc/pic32mx/4.8.3/../../../../pic32mx/lib\libpic32.a(vector43.o)
                              c:/program files (x86)/microchip/xc32/v2.05/bin/bin/../../lib/gcc/pic32mx/4.8.3/../../../../pic32mx/lib/./proc/32MX150F128D\default_isr_vectors.o (__vector_dispatch_43)
c:/program files (x86)/microchip/xc32/v2.05/bin/bin/../../lib/gcc/pic32mx/4.8.3/../../../../pic32mx/lib\libpic32.a(defaultinterrupt.o)
                              c:/program files (x86)/microchip/xc32/v2.05/bin/bin/../../lib/gcc/pic32mx/4.8.3/../../../../pic32mx/lib\libpic32.a(vector0.o) (_DefaultInterrupt)
c:/program files (x86)/microchip/xc32/v2.05/bin/bin/../../lib/gcc/pic32mx/4.8.3/../../../../pic32mx/lib\libm.a(fp32div.o)
                              build/default/production/NxpNfcRdLib/comps/phhalHw/src/Pn5180/phhalHw_Pn5180.o (fpdiv)
c:/program files (x86)/microchip/xc32/v2.05/bin/bin/../../lib/gcc/pic32mx/4.8.3/../../../../pic32mx/lib\libm.a(fp32mul.o)
                              build/default/production/NxpNfcRdLib/comps/phhalHw/src/Pn5180/phhalHw_Pn5180.o (fpmul)
c:/program files (x86)/microchip/xc32/v2.05/bin/bin/../../lib/gcc/pic32mx/4.8.3/../../../../pic32mx/lib\libm.a(fp32subadd.o)
                              c:/program files (x86)/microchip/xc32/v2.05/bin/bin/../../lib/gcc/pic32mx/4.8.3\libgcc.a(floatunsisf.o) (fpadd)
c:/program files (x86)/microchip/xc32/v2.05/bin/bin/../../lib/gcc/pic32mx/4.8.3/../../../../pic32mx/lib\libm.a(fpcmp.o)
                              build/default/production/NxpNfcRdLib/comps/phhalHw/src/Pn5180/phhalHw_Pn5180_Int.o (fpcmp)
c:/program files (x86)/microchip/xc32/v2.05/bin/bin/../../lib/gcc/pic32mx/4.8.3/../../../../pic32mx/lib\libm.a(fptoul.o)
                              build/default/production/NxpNfcRdLib/comps/phhalHw/src/Pn5180/phhalHw_Pn5180.o (fptoui)
c:/program files (x86)/microchip/xc32/v2.05/bin/bin/../../lib/gcc/pic32mx/4.8.3/../../../../pic32mx/lib\libm.a(sitofp.o)
                              c:/program files (x86)/microchip/xc32/v2.05/bin/bin/../../lib/gcc/pic32mx/4.8.3\libgcc.a(floatunsisf.o) (sitofp)

Allocating common symbols
Common symbol       size              file

sKeyVersionPairs    0x88              build/default/production/main.o
sKUCEntries         0x8               build/default/production/main.o
bSak                0x1               build/default/production/main.o
bHalBufferRx        0x80              build/default/production/main.o
sDiscLoop           0x74              build/default/production/nxp_reader_config_files/phApp_Init.o
spalI14443p4        0x14              build/default/production/nxp_reader_config_files/phApp_Init.o
aResponseHolder     0x40              build/default/production/nxp_reader_config_files/phApp_Init.o
spalI14443p4a       0x14              build/default/production/nxp_reader_config_files/phApp_Init.o
gpphPlatform_DataParams
                    0x4               build/default/production/NxpNfcRdLib/comps/phPlatform/src/phPlatform.o
sPlatform           0x1f4             build/default/production/nxp_reader_config_files/phApp_Init.o
sKeyEntries         0x8               build/default/production/main.o
salMFDF             0x68              build/default/production/nxp_reader_config_files/phApp_Init.o
wAtqa               0x2               build/default/production/main.o
bHalBufferTx        0x80              build/default/production/main.o
spalI14443p3a       0x18              build/default/production/nxp_reader_config_files/phApp_Init.o
salMFC              0xc               build/default/production/nxp_reader_config_files/phApp_Init.o
spalMifare          0xc               build/default/production/nxp_reader_config_files/phApp_Init.o
pHal                0x4               build/default/production/nxp_reader_config_files/phApp_Init.o

Microchip PIC32 Memory-Usage Report

kseg0 Program-Memory Usage
section                    address  length [bytes]      (dec)  Description
-------                 ----------  -------------------------  -----------
.text.phhalHw_Pn5180_Se 0x9d000000         0x1ff8        8184   
.text.phpalI14443p4_Sw_ 0x9d001ff8          0xd48        3400   
.text.phhalHw_Pn5180_Se 0x9d002d40          0xd34        3380   
.text.phpalI14443p4_Sw_ 0x9d003a74          0xd20        3360   
.text.phpalI14443p4a_Sw 0x9d004794          0x994        2452   
.text.phacDiscLoop_Sw_I 0x9d005128          0x8d4        2260   
.text.phhalHw_Pn5180_Ge 0x9d0059fc          0x8bc        2236   
.text.phhalHw_Pn5180_Re 0x9d0062b8          0x8a0        2208   
.text.phhalHw_Pn5180_Ex 0x9d006b58          0x89c        2204   
.text.phpalI14443p3a_Sw 0x9d0073f4          0x89c        2204   
.text.phacDiscLoop_Sw_S 0x9d007c90          0x7a0        1952   
.text.phhalHw_Pn5180_Se 0x9d008430          0x644        1604   
.text.phhalHw_Pn5180_Ap 0x9d008a74          0x630        1584   
.text.phpalI14443p3a_Sw 0x9d0090a4          0x61c        1564   
.text.MIFARE_CardDetect 0x9d0096c0          0x554        1364   
.text.phacDiscLoop_Sw_G 0x9d009c14          0x504        1284   
.text.phacDiscLoop_Sw_I 0x9d00a118          0x4c0        1216   
.text.phTools_DecodePar 0x9d00a5d8          0x4a0        1184   
.text.phalMfdf_Int_Comp 0x9d00aa78          0x410        1040   
.text.phpalMifare_Sw_Ex 0x9d00ae88          0x400        1024   
.text.phhalHw_Pn5180_In 0x9d00b288          0x3d0         976   
.text.phpalI14443p3a_Sw 0x9d00b658          0x3c8         968   
.text.phhalHw_Pn5180_Lp 0x9d00ba20          0x3c0         960   
.text.phhalHw_Pn5180_Ti 0x9d00bde0          0x35c         860   
.text.phacDiscLoop_Sw_R 0x9d00c13c          0x34c         844   
.text.phacDiscLoop_Sw_I 0x9d00c488          0x324         804   
.text._UART_1           0x9d00c7ac          0x320         800   
.text.phhalHw_Pn5180_In 0x9d00cacc          0x310         784   
.text.phpalI14443p4a_Sw 0x9d00cddc          0x2f8         760   
.text.phhalHw_Pn5180_In 0x9d00d0d4          0x2e4         740   
.text.phacDiscLoop_Sw_I 0x9d00d3b8          0x2cc         716   
.text.phalMfdf_Exchange 0x9d00d684          0x2c8         712   
.text.phhalHw_Pn5180_In 0x9d00d94c          0x2c8         712   
.text.phhalHw_Pn5180_Wa 0x9d00dc14          0x2b8         696   
.text.phhalHw_Pn5180_Ge 0x9d00decc          0x2a4         676   
.text.phpalI14443p4_Sw_ 0x9d00e170          0x2a0         672   
.text.phTools_Calculate 0x9d00e410          0x29c         668   
.text.phhalHw_Pn5180_In 0x9d00e6ac          0x298         664   
.text.fpsubadd          0x9d00e944          0x278         632   
.text.phpalI14443p4_Sw_ 0x9d00ebbc          0x240         576   
.text.fp32div           0x9d00edfc          0x230         560   
.text.phApp_RdLibInit   0x9d00f02c          0x22c         556   
.text.phhalHw_Pn5180_In 0x9d00f258          0x208         520   
.text.Mfdf_ReadCardInfo 0x9d00f460          0x204         516   
.text.phhalHw_Pn5180_Wa 0x9d00f664          0x200         512   
.text.PIN_MANAGER_Initi 0x9d00f864          0x1ec         492   
.dinit                  0x9d00fa50          0x1e0         480   
.text.phOsal_EventPend  0x9d00fc30          0x1d4         468   
.text.phhalHw_Pn5180_Se 0x9d00fe04          0x1c8         456   
.text.phhalHw_Pn5180_In 0x9d00ffcc          0x1c0         448   
.text.phhalHw_Pn5180_In 0x9d01018c          0x1c0         448   
.text.phhalHw_Pn5180_In 0x9d01034c          0x1bc         444   
.text.fp32mul           0x9d010508          0x1bc         444   
.text.phpalI14443p4_Sw_ 0x9d0106c4          0x1b4         436   
.text.SPI1_ExchangeBuff 0x9d010878          0x1b0         432   
.text.phhalHw_Pn5180_Se 0x9d010a28          0x1a8         424   
.text._CHANGE_NOTICE    0x9d010bd0          0x1a4         420   
.text.phacDiscLoop_Sw_D 0x9d010d74          0x1a0         416   
.text.phhalHw_Pn5180_In 0x9d010f14          0x1a0         416   
.text                   0x9d0110b4          0x1a0         416  App's exec code 
.text.phacDiscLoop_Sw_I 0x9d011254          0x198         408   
.text.phhalHw_Pn5180_In 0x9d0113ec          0x194         404   
.text._T1Interrupt      0x9d011580          0x188         392   
.text.phhalHw_Pn5180_In 0x9d011708          0x188         392   
.text.phhalHw_Pn5180_In 0x9d011890          0x180         384   
.text.Mfc_ReadCardInfo  0x9d011a10          0x170         368   
.text._T2Interrupt      0x9d011b80          0x16c         364   
.text                   0x9d011cec          0x168         360  App's exec code 
.text.phpalI14443p4a_Sw 0x9d011e54          0x160         352   
.text.phpalI14443p3a_Sw 0x9d011fb4          0x150         336   
.text.phalMfdf_Sw_Init  0x9d012104          0x14c         332   
.text.phhalHw_Pn5180_Fi 0x9d012250          0x14c         332   
.text.phbalReg_Pic32mxS 0x9d01239c          0x148         328   
.text.phhalHw_Pn5180_In 0x9d0124e4          0x148         328   
.text.phPlatform_Port_H 0x9d01262c          0x140         320   
.text.phpalI14443p4_Sw_ 0x9d01276c          0x138         312   
.text.phacDiscLoop_Sw_I 0x9d0128a4          0x134         308   
.text.UART1_Initialize  0x9d0129d8          0x130         304   
.text.phPlatform_Init   0x9d012b08          0x130         304   
.text.INTERRUPT_Initial 0x9d012c38          0x124         292   
.text.phpalI14443p4_Sw_ 0x9d012d5c          0x120         288   
.text.phpalMifare_Sw_Ex 0x9d012e7c          0x120         288   
.text.phOsal_EventCreat 0x9d012f9c          0x11c         284   
.text.phhalHw_Pn5180_Re 0x9d0130b8          0x118         280   
.text.phhalHw_Pn5180_Ba 0x9d0131d0          0x114         276   
.text.phpalI14443p4_Sw_ 0x9d0132e4          0x114         276   
.text.phpalI14443p4_Sw_ 0x9d0133f8          0x10c         268   
.text.phhalHw_Pn5180_Ge 0x9d013504          0x104         260   
.text.phhalHw_Pn5180_In 0x9d013608           0xf8         248   
.text.phacDiscLoop_Sw_I 0x9d013700           0xf4         244   
.text.main              0x9d0137f4           0xf4         244   
.text.phhalHw_Pn5180_Fi 0x9d0138e8           0xf0         240   
.text.phacDiscLoop_Sw_I 0x9d0139d8           0xec         236   
.text.phpalI14443p3a_Sw 0x9d013ac4           0xe8         232   
.text.phpalI14443p4_Sw_ 0x9d013bac           0xe8         232   
.rodata                 0x9d013c94           0xdc         220  Read-only const 
.text.phhalHw_Pn5180_Mf 0x9d013d70           0xdc         220   
.text.phhalHw_Pn5180_In 0x9d013e4c           0xdc         220   
.text.general_exception 0x9d013f28           0xdc         220   
.text.phalMfdf_Sw_Selec 0x9d014004           0xd8         216   
.text.phpalI14443p4_Sw_ 0x9d0140dc           0xd8         216   
.text.phpalMifare_Sw_Mf 0x9d0141b4           0xd8         216   
.text.phPlatform_Port_H 0x9d01428c           0xd4         212   
.text.phpalI14443p4a_Sw 0x9d014360           0xd0         208   
.text.phPlatform_FE_Res 0x9d014430           0xd0         208   
.text.phpalI14443p4a_Sw 0x9d014500           0xc8         200   
.text.phTools_ComputeCr 0x9d0145c8           0xc4         196   
.text.phTools_UpdateCrc 0x9d01468c           0xc0         192   
.text.phOsal_NullOs_Get 0x9d01474c           0xb8         184   
.text.phTools_CalcParit 0x9d014804           0xb4         180   
.text.phacDiscLoop_Sw_I 0x9d0148b8           0xb0         176   
.text                   0x9d014968           0xa8         168  App's exec code 
.text.phbalReg_Pic32mxS 0x9d014a10           0xa0         160   
.text.phOsal_EventClear 0x9d014ab0           0xa0         160   
.text.phOsal_EventPost  0x9d014b50           0x9c         156   
.text.phacDiscLoop_Sw_I 0x9d014bec           0x98         152   
.text                   0x9d014c84           0x98         152  App's exec code 
.text.phpalI14443p4a_Sw 0x9d014d1c           0x94         148   
.text.phPlatform_Timer_ 0x9d014db0           0x94         148   
.text.ADC_1             0x9d014e44           0x90         144   
.text.phhalHw_Pn5180_Fi 0x9d014ed4           0x90         144   
.text.phhalHw_Pn5180_In 0x9d014f64           0x90         144   
.text.phpalI14443p3a_Sw 0x9d014ff4           0x8c         140   
.text.phpalI14443p3a_Sw 0x9d015080           0x88         136   
.text.phpalI14443p4_Sw_ 0x9d015108           0x88         136   
.text.SysTick_Handler   0x9d015190           0x88         136   
.text.phpalI14443p4_Sw_ 0x9d015218           0x84         132   
.text.phPlatform_Port_H 0x9d01529c           0x84         132   
.text.phhalHw_Pn5180_Ch 0x9d015320           0x80         128   
.text.fptoul            0x9d0153a0           0x7c         124   
.text.phalMfc_Sw_Init   0x9d01541c           0x78         120   
.text.phpalMifare_Sw_In 0x9d015494           0x78         120   
.rodata                 0x9d01550c           0x74         116  Read-only const 
.text.SYSTEM_Initialize 0x9d015580           0x70         112   
.text.RF_IRQ_Handler    0x9d0155f0           0x70         112   
.text.ADC1_Initialize   0x9d015660           0x68         104   
.text.phpalI14443p3a_Sw 0x9d0156c8           0x68         104   
.text.TMR1_Initialize   0x9d015730           0x64         100   
.text.OSCILLATOR_Initia 0x9d015794           0x64         100   
.text.phalMfdf_Sw_SetCo 0x9d0157f8           0x64         100   
.text.NfcRdLibInit      0x9d01585c           0x64         100   
.text.TMR2_Initialize   0x9d0158c0           0x60          96   
.text.sitofp            0x9d015920           0x60          96   
.text.TMR1_Start        0x9d015980           0x58          88   
.text.phApp_Print_Buff  0x9d0159d8           0x58          88   
.text.main_entry        0x9d015a30           0x54          84   
.text.phhalHw_Pn5180_Ev 0x9d015a84           0x54          84   
.text.phPlatform_StartT 0x9d015ad8           0x54          84   
.text.SYSTEM_RegUnlock  0x9d015b2c           0x50          80   
.text.SPI1_Exchange8bit 0x9d015b7c           0x50          80   
.text.phhalHw_Pn5180_Wr 0x9d015bcc           0x50          80   
.text.phhalHw_Pn5180_Re 0x9d015c1c           0x50          80   
.text.phPlatform_InitTi 0x9d015c6c           0x50          80   
.text._general_exceptio 0x9d015cbc           0x4c          76   
.text.SPI1_Initialize   0x9d015d08           0x4c          76   
.text.SPI2_Initialize   0x9d015d54           0x4c          76   
.text                   0x9d015da0           0x4c          76  App's exec code 
.text.phhalHw_Pn5180_In 0x9d015dec           0x48          72   
.text._bootstrap_except 0x9d015e34           0x48          72   
.vector_default         0x9d015e7c           0x48          72   
.text.phOsal_Init       0x9d015ec4           0x44          68   
.text.phpalI14443p3a_Sw 0x9d015f08           0x44          68   
.text.phpalI14443p3a_Sw 0x9d015f4c           0x44          68   
.text.phPlatform_Port_H 0x9d015f90           0x44          68   
.text                   0x9d015fd4           0x44          68  App's exec code 
.text.TMR1_Stop         0x9d016018           0x40          64   
.rodata.gkphhalHw_Pn518 0x9d016058           0x38          56   
.text.phOsal_NullOsSysT 0x9d016090           0x38          56   
.text.phacDiscLoop_Sw_I 0x9d0160c8           0x34          52   
.text.phPlatform_StopTi 0x9d0160fc           0x34          52   
.text.phacDiscLoop_Sw_I 0x9d016130           0x30          48   
.text.phacDiscLoop_Sw_I 0x9d016160           0x30          48   
.text.phacDiscLoop_Sw_I 0x9d016190           0x30          48   
.text.phacDiscLoop_Sw_I 0x9d0161c0           0x30          48   
.rodata.wPn5180_Default 0x9d0161f0           0x30          48   
.rodata.wPn5180_Default 0x9d016220           0x30          48   
.rodata.wPn5180_Default 0x9d016250           0x2c          44   
.rodata.wPn5180_Default 0x9d01627c           0x2c          44   
.rodata.wPn5180_Default 0x9d0162a8           0x2c          44   
.rodata.wPn5180_DefShad 0x9d0162d4           0x2c          44   
.rodata.wPn5180_DefShad 0x9d016300           0x2c          44   
.rodata.wPn5180_DefShad 0x9d01632c           0x2c          44   
.text.SYSTEM_RegLock    0x9d016358           0x28          40   
.text.phacDiscLoop_Sw_I 0x9d016380           0x28          40   
.text.phacDiscLoop_Sw_I 0x9d0163a8           0x28          40   
.text.phacDiscLoop_Sw_D 0x9d0163d0           0x28          40   
.text.phacDiscLoop_Sw_I 0x9d0163f8           0x28          40   
.text.phacDiscLoop_Sw_D 0x9d016420           0x28          40   
.text.phacDiscLoop_Sw_I 0x9d016448           0x28          40   
.text.phacDiscLoop_Sw_D 0x9d016470           0x28          40   
.text.phacDiscLoop_Sw_I 0x9d016498           0x28          40   
.text.phacDiscLoop_Sw_D 0x9d0164c0           0x28          40   
.text.phacDiscLoop_Sw_I 0x9d0164e8           0x28          40   
.rodata.wPn5180_Default 0x9d016510           0x28          40   
.text.TMR1_SoftwareCoun 0x9d016538           0x24          36   
.text.TMR1_SoftwareCoun 0x9d01655c           0x24          36   
.text.TMR2_CallBack     0x9d016580           0x20          32   
.text.TMR1_CallBack     0x9d0165a0           0x20          32   
.text.phPlatform_Port_H 0x9d0165c0           0x20          32   
.rodata.bI14443p4_FsTab 0x9d0165e0           0x1c          28   
.rodata.gPasTechTypeMap 0x9d0165fc           0x18          24   
.rodata.pfColnRelsns.pf 0x9d016614           0x18          24   
.rodata.pfDetTechs.pfDe 0x9d01662c           0x18          24   
.rodata.pfDeviceActivat 0x9d016644           0x18          24   
.text                   0x9d01665c           0x18          24  App's exec code 
.rodata.phhalHw_Pn5180_ 0x9d016674            0x8           8   
.text._on_reset         0x9d01667c            0x8           8   
.text._on_bootstrap     0x9d016684            0x8           8   
.rodata.aCascadeCodes.a 0x9d01668c            0x4           4   
.rodata.bHalEventName.b 0x9d016690            0x4           4   
.rodata                 0x9d016694            0x4           4  Read-only const 
      Total kseg0_program_mem used  :     0x16698       91800  72.3% of 0x1f000

kseg0 Boot-Memory Usage
section                    address  length [bytes]      (dec)  Description
-------                 ----------  -------------------------  -----------
         Total kseg0_boot_mem used  :           0           0  

Exception-Memory Usage 
section                    address  length [bytes]      (dec)  Description
-------                 ----------  -------------------------  -----------
.app_excpt              0x9d01f180           0x10          16  General-Exception 
.vector_0               0x9d01f200            0x8           8  Interrupt Vector 0 
.vector_1               0x9d01f220            0x8           8  Interrupt Vector 1 
.vector_2               0x9d01f240            0x8           8  Interrupt Vector 2 
.vector_3               0x9d01f260            0x8           8  Interrupt Vector 3 
.vector_4               0x9d01f280            0x8           8  Interrupt Vector 4 
.vector_5               0x9d01f2a0            0x8           8  Interrupt Vector 5 
.vector_6               0x9d01f2c0            0x8           8  Interrupt Vector 6 
.vector_7               0x9d01f2e0            0x8           8  Interrupt Vector 7 
.vector_8               0x9d01f300            0x8           8  Interrupt Vector 8 
.vector_9               0x9d01f320            0x8           8  Interrupt Vector 9 
.vector_10              0x9d01f340            0x8           8  Interrupt Vector 10 
.vector_11              0x9d01f360            0x8           8  Interrupt Vector 11 
.vector_12              0x9d01f380            0x8           8  Interrupt Vector 12 
.vector_13              0x9d01f3a0            0x8           8  Interrupt Vector 13 
.vector_14              0x9d01f3c0            0x8           8  Interrupt Vector 14 
.vector_15              0x9d01f3e0            0x8           8  Interrupt Vector 15 
.vector_16              0x9d01f400            0x8           8  Interrupt Vector 16 
.vector_17              0x9d01f420            0x8           8  Interrupt Vector 17 
.vector_18              0x9d01f440            0x8           8  Interrupt Vector 18 
.vector_19              0x9d01f460            0x8           8  Interrupt Vector 19 
.vector_20              0x9d01f480            0x8           8  Interrupt Vector 20 
.vector_21              0x9d01f4a0            0x8           8  Interrupt Vector 21 
.vector_22              0x9d01f4c0            0x8           8  Interrupt Vector 22 
.vector_23              0x9d01f4e0            0x8           8  Interrupt Vector 23 
.vector_24              0x9d01f500            0x8           8  Interrupt Vector 24 
.vector_25              0x9d01f520            0x8           8  Interrupt Vector 25 
.vector_26              0x9d01f540            0x8           8  Interrupt Vector 26 
.vector_27              0x9d01f560            0x8           8  Interrupt Vector 27 
.vector_28              0x9d01f580            0x8           8  Interrupt Vector 28 
.vector_29              0x9d01f5a0            0x8           8  Interrupt Vector 29 
.vector_30              0x9d01f5c0            0x8           8  Interrupt Vector 30 
.vector_31              0x9d01f5e0            0x8           8  Interrupt Vector 31 
.vector_32              0x9d01f600            0x8           8  Interrupt Vector 32 
.vector_33              0x9d01f620            0x8           8  Interrupt Vector 33 
.vector_34              0x9d01f640            0x8           8  Interrupt Vector 34 
.vector_35              0x9d01f660            0x8           8  Interrupt Vector 35 
.vector_36              0x9d01f680            0x8           8  Interrupt Vector 36 
.vector_37              0x9d01f6a0            0x8           8  Interrupt Vector 37 
.vector_38              0x9d01f6c0            0x8           8  Interrupt Vector 38 
.vector_39              0x9d01f6e0            0x8           8  Interrupt Vector 39 
.vector_40              0x9d01f700            0x8           8  Interrupt Vector 40 
.vector_41              0x9d01f720            0x8           8  Interrupt Vector 41 
.vector_42              0x9d01f740            0x8           8  Interrupt Vector 42 
.vector_43              0x9d01f760            0x8           8  Interrupt Vector 43 
          Total exception_mem used  :       0x170         368  9.0% of 0x1000

kseg1 Boot-Memory Usage
section                    address  length [bytes]      (dec)  Description
-------                 ----------  -------------------------  -----------
.reset                  0xbfc00000          0x1e4         484  Reset handler 
.bev_excpt              0xbfc00380           0x10          16  BEV-Exception 
         Total kseg1_boot_mem used  :       0x1f4         500  42.8% of 0x490
        --------------------------------------------------------------------------
         Total Program Memory used  :     0x169fc       92668  70.1% of 0x20490
        --------------------------------------------------------------------------


kseg1 Data-Memory Usage
section                    address  length [bytes]      (dec)  Description
-------                 ----------  -------------------------  -----------
.sdata                  0xa0000000           0x24          36  Small init data 
.sbss                   0xa0000024           0x70         112  Small uninit data 
.bss                    0xa0000094          0x4f0        1264  Uninitialized data 
.data.cause.cause       0xa0000584           0x4c          76   
.bss.cardInfo.cardInfo  0xa00005d0           0x2c          44   
.bss.uart1_obj.uart1_ob 0xa00005fc           0x14          20   
.bss.gdwEvents.gdwEvent 0xa0000610           0x14          20   
.bss.bDataBuffer.bDataB 0xa0000624           0x14          20   
         Total kseg1_data_mem used  :       0x638        1592  4.9% of 0x8000
        --------------------------------------------------------------------------
            Total Data Memory used  :       0x638        1592  4.9% of 0x8000
        --------------------------------------------------------------------------


Dynamic Data-Memory Reservation
section                    address  length [bytes]      (dec)  Description
-------                 ----------  -------------------------  -----------
heap                    0xa0000640           0x10          16  Reserved for heap 
stack                   0xa0000668         0x7990       31120  Reserved for stack 

        --------------------------------------------------------------------------

Discarded input sections

 .text          0x00000000        0x0 c:/program files (x86)/microchip/xc32/v2.05/bin/bin/../../lib/gcc/pic32mx/4.8.3/../../../../pic32mx/lib/./proc/32MX150F128D/crt0_mips32r2.o
 .data          0x00000000        0x0 c:/program files (x86)/microchip/xc32/v2.05/bin/bin/../../lib/gcc/pic32mx/4.8.3/../../../../pic32mx/lib/./proc/32MX150F128D/crt0_mips32r2.o
 .bss           0x00000000        0x0 c:/program files (x86)/microchip/xc32/v2.05/bin/bin/../../lib/gcc/pic32mx/4.8.3/../../../../pic32mx/lib/./proc/32MX150F128D/crt0_mips32r2.o
 .text          0x00000000        0x0 c:/program files (x86)/microchip/xc32/v2.05/bin/bin/../../lib/gcc/pic32mx/4.8.3/../../../../pic32mx/lib\debug-exception-return.o
 .data          0x00000000        0x0 c:/program files (x86)/microchip/xc32/v2.05/bin/bin/../../lib/gcc/pic32mx/4.8.3/../../../../pic32mx/lib\debug-exception-return.o
 .bss           0x00000000        0x0 c:/program files (x86)/microchip/xc32/v2.05/bin/bin/../../lib/gcc/pic32mx/4.8.3/../../../../pic32mx/lib\debug-exception-return.o
 .reginfo       0x00000000       0x18 c:/program files (x86)/microchip/xc32/v2.05/bin/bin/../../lib/gcc/pic32mx/4.8.3/../../../../pic32mx/lib\debug-exception-return.o
 .text          0x00000000        0x0 build/default/production/mcc_generated_files/tmr2.o
 .data          0x00000000        0x0 build/default/production/mcc_generated_files/tmr2.o
 .bss           0x00000000        0x0 build/default/production/mcc_generated_files/tmr2.o
 .reginfo       0x00000000       0x18 build/default/production/mcc_generated_files/tmr2.o
 .text.TMR2_Period16BitSet
                0x00000000       0x38 build/default/production/mcc_generated_files/tmr2.o
 .text.TMR2_Period16BitGet
                0x00000000       0x2c build/default/production/mcc_generated_files/tmr2.o
 .text.TMR2_Counter16BitSet
                0x00000000       0x38 build/default/production/mcc_generated_files/tmr2.o
 .text.TMR2_Counter16BitGet
                0x00000000       0x2c build/default/production/mcc_generated_files/tmr2.o
 .text.TMR2_Start
                0x00000000       0x58 build/default/production/mcc_generated_files/tmr2.o
 .text.TMR2_Stop
                0x00000000       0x40 build/default/production/mcc_generated_files/tmr2.o
 .text.TMR2_GetElapsedThenClear
                0x00000000       0x3c build/default/production/mcc_generated_files/tmr2.o
 .text.TMR2_SoftwareCounterGet
                0x00000000       0x24 build/default/production/mcc_generated_files/tmr2.o
 .text.TMR2_SoftwareCounterClear
                0x00000000       0x24 build/default/production/mcc_generated_files/tmr2.o
 .text          0x00000000        0x0 build/default/production/mcc_generated_files/uart1.o
 .data          0x00000000        0x0 build/default/production/mcc_generated_files/uart1.o
 .bss           0x00000000        0x0 build/default/production/mcc_generated_files/uart1.o
 .reginfo       0x00000000       0x18 build/default/production/mcc_generated_files/uart1.o
 .text.UART1_Read
                0x00000000       0xcc build/default/production/mcc_generated_files/uart1.o
 .text.UART1_ReadBuffer
                0x00000000       0x9c build/default/production/mcc_generated_files/uart1.o
 .text.UART1_Write
                0x00000000       0xf4 build/default/production/mcc_generated_files/uart1.o
 .text.UART1_WriteBuffer
                0x00000000       0x98 build/default/production/mcc_generated_files/uart1.o
 .text.UART1_TransferStatusGet
                0x00000000       0xcc build/default/production/mcc_generated_files/uart1.o
 .text.UART1_Peek
                0x00000000       0xa0 build/default/production/mcc_generated_files/uart1.o
 .text.UART1_ReceiveBufferSizeGet
                0x00000000       0xa8 build/default/production/mcc_generated_files/uart1.o
 .text.UART1_TransmitBufferSizeGet
                0x00000000       0xb4 build/default/production/mcc_generated_files/uart1.o
 .text.UART1_ReceiveBufferIsEmpty
                0x00000000       0x3c build/default/production/mcc_generated_files/uart1.o
 .text.UART1_TransmitBufferIsFull
                0x00000000       0x3c build/default/production/mcc_generated_files/uart1.o
 .text.UART1_StatusGet
                0x00000000       0x28 build/default/production/mcc_generated_files/uart1.o
 .text          0x00000000        0x0 build/default/production/mcc_generated_files/interrupt_manager.o
 .data          0x00000000        0x0 build/default/production/mcc_generated_files/interrupt_manager.o
 .bss           0x00000000        0x0 build/default/production/mcc_generated_files/interrupt_manager.o
 .reginfo       0x00000000       0x18 build/default/production/mcc_generated_files/interrupt_manager.o
 .text          0x00000000        0x0 build/default/production/mcc_generated_files/tmr1.o
 .data          0x00000000        0x0 build/default/production/mcc_generated_files/tmr1.o
 .bss           0x00000000        0x0 build/default/production/mcc_generated_files/tmr1.o
 .reginfo       0x00000000       0x18 build/default/production/mcc_generated_files/tmr1.o
 .text.TMR1_Period16BitSet
                0x00000000       0x38 build/default/production/mcc_generated_files/tmr1.o
 .text.TMR1_Period16BitGet
                0x00000000       0x2c build/default/production/mcc_generated_files/tmr1.o
 .text.TMR1_Counter16BitSet
                0x00000000       0x38 build/default/production/mcc_generated_files/tmr1.o
 .text.TMR1_Counter16BitGet
                0x00000000       0x2c build/default/production/mcc_generated_files/tmr1.o
 .text.TMR1_GetElapsedThenClear
                0x00000000       0x3c build/default/production/mcc_generated_files/tmr1.o
 .text          0x00000000        0x0 build/default/production/mcc_generated_files/mcc.o
 .data          0x00000000        0x0 build/default/production/mcc_generated_files/mcc.o
 .bss           0x00000000        0x0 build/default/production/mcc_generated_files/mcc.o
 .reginfo       0x00000000       0x18 build/default/production/mcc_generated_files/mcc.o
 .text          0x00000000        0x0 build/default/production/mcc_generated_files/pin_manager.o
 .data          0x00000000        0x0 build/default/production/mcc_generated_files/pin_manager.o
 .bss           0x00000000        0x0 build/default/production/mcc_generated_files/pin_manager.o
 .reginfo       0x00000000       0x18 build/default/production/mcc_generated_files/pin_manager.o
 .text          0x00000000        0x0 build/default/production/mcc_generated_files/spi1.o
 .data          0x00000000        0x0 build/default/production/mcc_generated_files/spi1.o
 .bss           0x00000000        0x0 build/default/production/mcc_generated_files/spi1.o
 .reginfo       0x00000000       0x18 build/default/production/mcc_generated_files/spi1.o
 .text.SPI1_Exchange
                0x00000000       0x80 build/default/production/mcc_generated_files/spi1.o
 .text.SPI1_Exchange8bit
                0x00000000       0x48 build/default/production/mcc_generated_files/spi1.o
 .text.SPI1_StatusGet
                0x00000000       0x28 build/default/production/mcc_generated_files/spi1.o
 .text          0x00000000        0x0 build/default/production/mcc_generated_files/adc1.o
 .data          0x00000000        0x0 build/default/production/mcc_generated_files/adc1.o
 .bss           0x00000000        0x0 build/default/production/mcc_generated_files/adc1.o
 .reginfo       0x00000000       0x18 build/default/production/mcc_generated_files/adc1.o
 .text.ADC1_Start
                0x00000000       0x34 build/default/production/mcc_generated_files/adc1.o
 .text.ADC1_Stop
                0x00000000       0x30 build/default/production/mcc_generated_files/adc1.o
 .text.ADC1_ConversionResultBufferGet
                0x00000000       0x80 build/default/production/mcc_generated_files/adc1.o
 .text.ADC1_ConversionResultGet
                0x00000000       0x28 build/default/production/mcc_generated_files/adc1.o
 .text.ADC1_IsConversionComplete
                0x00000000       0x38 build/default/production/mcc_generated_files/adc1.o
 .text.ADC1_ChannelSelect
                0x00000000       0x34 build/default/production/mcc_generated_files/adc1.o
 .text          0x00000000        0x0 build/default/production/mcc_generated_files/spi2.o
 .data          0x00000000        0x0 build/default/production/mcc_generated_files/spi2.o
 .bss           0x00000000        0x0 build/default/production/mcc_generated_files/spi2.o
 .reginfo       0x00000000       0x18 build/default/production/mcc_generated_files/spi2.o
 .text.SPI2_Exchange
                0x00000000       0x80 build/default/production/mcc_generated_files/spi2.o
 .text.SPI2_ExchangeBuffer
                0x00000000      0x19c build/default/production/mcc_generated_files/spi2.o
 .text.SPI2_Exchange8bit
                0x00000000       0x48 build/default/production/mcc_generated_files/spi2.o
 .text.SPI2_Exchange8bitBuffer
                0x00000000       0x50 build/default/production/mcc_generated_files/spi2.o
 .text.SPI2_StatusGet
                0x00000000       0x28 build/default/production/mcc_generated_files/spi2.o
 .text          0x00000000        0x0 build/default/production/nxp_reader_config_files/phApp_Init.o
 .data          0x00000000        0x0 build/default/production/nxp_reader_config_files/phApp_Init.o
 .bss           0x00000000        0x0 build/default/production/nxp_reader_config_files/phApp_Init.o
 .reginfo       0x00000000       0x18 build/default/production/nxp_reader_config_files/phApp_Init.o
 .text.phApp_HALConfigAutoColl
                0x00000000       0x24 build/default/production/nxp_reader_config_files/phApp_Init.o
 .text.phApp_ConfigureLPCD
                0x00000000       0xec build/default/production/nxp_reader_config_files/phApp_Init.o
 .text.phApp_PrintTech
                0x00000000       0x9c build/default/production/nxp_reader_config_files/phApp_Init.o
 .text.phApp_PrintTagInfo
                0x00000000      0x1cc build/default/production/nxp_reader_config_files/phApp_Init.o
 .text.PrintErrorInfo
                0x00000000      0x450 build/default/production/nxp_reader_config_files/phApp_Init.o
 .text          0x00000000        0x0 build/default/production/NxpNfcRdLib/comps/phacDiscLoop/src/Sw/phacDiscLoop_Sw.o
 .data          0x00000000        0x0 build/default/production/NxpNfcRdLib/comps/phacDiscLoop/src/Sw/phacDiscLoop_Sw.o
 .bss           0x00000000        0x0 build/default/production/NxpNfcRdLib/comps/phacDiscLoop/src/Sw/phacDiscLoop_Sw.o
 .reginfo       0x00000000       0x18 build/default/production/NxpNfcRdLib/comps/phacDiscLoop/src/Sw/phacDiscLoop_Sw.o
 .text.phacDiscLoop_Sw_ActivateCard
                0x00000000       0x58 build/default/production/NxpNfcRdLib/comps/phacDiscLoop/src/Sw/phacDiscLoop_Sw.o
 .text          0x00000000        0x0 build/default/production/NxpNfcRdLib/comps/phacDiscLoop/src/Sw/phacDiscLoop_Sw_Int.o
 .data          0x00000000        0x0 build/default/production/NxpNfcRdLib/comps/phacDiscLoop/src/Sw/phacDiscLoop_Sw_Int.o
 .bss           0x00000000        0x0 build/default/production/NxpNfcRdLib/comps/phacDiscLoop/src/Sw/phacDiscLoop_Sw_Int.o
 .reginfo       0x00000000       0x18 build/default/production/NxpNfcRdLib/comps/phacDiscLoop/src/Sw/phacDiscLoop_Sw_Int.o
 .rodata.gActTechTypeMapTable.gActTechTypeMapTable
                0x00000000        0xc build/default/production/NxpNfcRdLib/comps/phacDiscLoop/src/Sw/phacDiscLoop_Sw_Int.o
 .text.phacDiscLoop_Sw_Int_Stop
                0x00000000       0x28 build/default/production/NxpNfcRdLib/comps/phacDiscLoop/src/Sw/phacDiscLoop_Sw_Int.o
 .text.phacDiscLoop_Sw_Int_RfcaOff_FieldOn
                0x00000000       0xb4 build/default/production/NxpNfcRdLib/comps/phacDiscLoop/src/Sw/phacDiscLoop_Sw_Int.o
 .text          0x00000000        0x0 build/default/production/NxpNfcRdLib/comps/phacDiscLoop/src/Sw/phacDiscLoop_Sw_Int_A.o
 .data          0x00000000        0x0 build/default/production/NxpNfcRdLib/comps/phacDiscLoop/src/Sw/phacDiscLoop_Sw_Int_A.o
 .bss           0x00000000        0x0 build/default/production/NxpNfcRdLib/comps/phacDiscLoop/src/Sw/phacDiscLoop_Sw_Int_A.o
 .reginfo       0x00000000       0x18 build/default/production/NxpNfcRdLib/comps/phacDiscLoop/src/Sw/phacDiscLoop_Sw_Int_A.o
 .text          0x00000000        0x0 build/default/production/NxpNfcRdLib/comps/phacDiscLoop/src/Sw/phacDiscLoop_Sw_Int_B.o
 .data          0x00000000        0x0 build/default/production/NxpNfcRdLib/comps/phacDiscLoop/src/Sw/phacDiscLoop_Sw_Int_B.o
 .bss           0x00000000        0x0 build/default/production/NxpNfcRdLib/comps/phacDiscLoop/src/Sw/phacDiscLoop_Sw_Int_B.o
 .reginfo       0x00000000       0x18 build/default/production/NxpNfcRdLib/comps/phacDiscLoop/src/Sw/phacDiscLoop_Sw_Int_B.o
 .text          0x00000000        0x0 build/default/production/NxpNfcRdLib/comps/phacDiscLoop/src/Sw/phacDiscLoop_Sw_Int_F.o
 .data          0x00000000        0x0 build/default/production/NxpNfcRdLib/comps/phacDiscLoop/src/Sw/phacDiscLoop_Sw_Int_F.o
 .bss           0x00000000        0x0 build/default/production/NxpNfcRdLib/comps/phacDiscLoop/src/Sw/phacDiscLoop_Sw_Int_F.o
 .reginfo       0x00000000       0x18 build/default/production/NxpNfcRdLib/comps/phacDiscLoop/src/Sw/phacDiscLoop_Sw_Int_F.o
 .text          0x00000000        0x0 build/default/production/NxpNfcRdLib/comps/phacDiscLoop/src/Sw/phacDiscLoop_Sw_Int_I18000p3m3.o
 .data          0x00000000        0x0 build/default/production/NxpNfcRdLib/comps/phacDiscLoop/src/Sw/phacDiscLoop_Sw_Int_I18000p3m3.o
 .bss           0x00000000        0x0 build/default/production/NxpNfcRdLib/comps/phacDiscLoop/src/Sw/phacDiscLoop_Sw_Int_I18000p3m3.o
 .reginfo       0x00000000       0x18 build/default/production/NxpNfcRdLib/comps/phacDiscLoop/src/Sw/phacDiscLoop_Sw_Int_I18000p3m3.o
 .text          0x00000000        0x0 build/default/production/NxpNfcRdLib/comps/phacDiscLoop/src/Sw/phacDiscLoop_Sw_Int_V.o
 .data          0x00000000        0x0 build/default/production/NxpNfcRdLib/comps/phacDiscLoop/src/Sw/phacDiscLoop_Sw_Int_V.o
 .bss           0x00000000        0x0 build/default/production/NxpNfcRdLib/comps/phacDiscLoop/src/Sw/phacDiscLoop_Sw_Int_V.o
 .reginfo       0x00000000       0x18 build/default/production/NxpNfcRdLib/comps/phacDiscLoop/src/Sw/phacDiscLoop_Sw_Int_V.o
 .text          0x00000000        0x0 build/default/production/NxpNfcRdLib/comps/phacDiscLoop/src/phacDiscLoop.o
 .data          0x00000000        0x0 build/default/production/NxpNfcRdLib/comps/phacDiscLoop/src/phacDiscLoop.o
 .bss           0x00000000        0x0 build/default/production/NxpNfcRdLib/comps/phacDiscLoop/src/phacDiscLoop.o
 .reginfo       0x00000000       0x18 build/default/production/NxpNfcRdLib/comps/phacDiscLoop/src/phacDiscLoop.o
 .text          0x00000000        0x0 build/default/production/NxpNfcRdLib/comps/phalFelica/src/Sw/phalFelica_Sw.o
 .data          0x00000000        0x0 build/default/production/NxpNfcRdLib/comps/phalFelica/src/Sw/phalFelica_Sw.o
 .bss           0x00000000        0x0 build/default/production/NxpNfcRdLib/comps/phalFelica/src/Sw/phalFelica_Sw.o
 .reginfo       0x00000000       0x18 build/default/production/NxpNfcRdLib/comps/phalFelica/src/Sw/phalFelica_Sw.o
 .text          0x00000000        0x0 build/default/production/NxpNfcRdLib/comps/phalFelica/src/phalFelica.o
 .data          0x00000000        0x0 build/default/production/NxpNfcRdLib/comps/phalFelica/src/phalFelica.o
 .bss           0x00000000        0x0 build/default/production/NxpNfcRdLib/comps/phalFelica/src/phalFelica.o
 .reginfo       0x00000000       0x18 build/default/production/NxpNfcRdLib/comps/phalFelica/src/phalFelica.o
 .text          0x00000000        0x0 build/default/production/NxpNfcRdLib/comps/phalI15693/src/Sw/phalI15693_Sw.o
 .data          0x00000000        0x0 build/default/production/NxpNfcRdLib/comps/phalI15693/src/Sw/phalI15693_Sw.o
 .bss           0x00000000        0x0 build/default/production/NxpNfcRdLib/comps/phalI15693/src/Sw/phalI15693_Sw.o
 .reginfo       0x00000000       0x18 build/default/production/NxpNfcRdLib/comps/phalI15693/src/Sw/phalI15693_Sw.o
 .text          0x00000000        0x0 build/default/production/NxpNfcRdLib/comps/phalI15693/src/phalI15693.o
 .data          0x00000000        0x0 build/default/production/NxpNfcRdLib/comps/phalI15693/src/phalI15693.o
 .bss           0x00000000        0x0 build/default/production/NxpNfcRdLib/comps/phalI15693/src/phalI15693.o
 .reginfo       0x00000000       0x18 build/default/production/NxpNfcRdLib/comps/phalI15693/src/phalI15693.o
 .text          0x00000000        0x0 build/default/production/NxpNfcRdLib/comps/phalI18000p3m3/src/Sw/phalI18000p3m3_Sw.o
 .data          0x00000000        0x0 build/default/production/NxpNfcRdLib/comps/phalI18000p3m3/src/Sw/phalI18000p3m3_Sw.o
 .bss           0x00000000        0x0 build/default/production/NxpNfcRdLib/comps/phalI18000p3m3/src/Sw/phalI18000p3m3_Sw.o
 .reginfo       0x00000000       0x18 build/default/production/NxpNfcRdLib/comps/phalI18000p3m3/src/Sw/phalI18000p3m3_Sw.o
 .text          0x00000000        0x0 build/default/production/NxpNfcRdLib/comps/phalI18000p3m3/src/Sw/phalI18000p3m3_Sw_Int.o
 .data          0x00000000        0x0 build/default/production/NxpNfcRdLib/comps/phalI18000p3m3/src/Sw/phalI18000p3m3_Sw_Int.o
 .bss           0x00000000        0x0 build/default/production/NxpNfcRdLib/comps/phalI18000p3m3/src/Sw/phalI18000p3m3_Sw_Int.o
 .reginfo       0x00000000       0x18 build/default/production/NxpNfcRdLib/comps/phalI18000p3m3/src/Sw/phalI18000p3m3_Sw_Int.o
 .text          0x00000000        0x0 build/default/production/NxpNfcRdLib/comps/phalI18000p3m3/src/phalI18000p3m3.o
 .data          0x00000000        0x0 build/default/production/NxpNfcRdLib/comps/phalI18000p3m3/src/phalI18000p3m3.o
 .bss           0x00000000        0x0 build/default/production/NxpNfcRdLib/comps/phalI18000p3m3/src/phalI18000p3m3.o
 .reginfo       0x00000000       0x18 build/default/production/NxpNfcRdLib/comps/phalI18000p3m3/src/phalI18000p3m3.o
 .text          0x00000000        0x0 build/default/production/NxpNfcRdLib/comps/phalMfc/src/Sw/phalMfc_Sw.o
 .data          0x00000000        0x0 build/default/production/NxpNfcRdLib/comps/phalMfc/src/Sw/phalMfc_Sw.o
 .bss           0x00000000        0x0 build/default/production/NxpNfcRdLib/comps/phalMfc/src/Sw/phalMfc_Sw.o
 .reginfo       0x00000000       0x18 build/default/production/NxpNfcRdLib/comps/phalMfc/src/Sw/phalMfc_Sw.o
 .text.phalMfc_Sw_Authenticate
                0x00000000      0x1b4 build/default/production/NxpNfcRdLib/comps/phalMfc/src/Sw/phalMfc_Sw.o
 .text.phalMfc_Sw_Read
                0x00000000       0xd4 build/default/production/NxpNfcRdLib/comps/phalMfc/src/Sw/phalMfc_Sw.o
 .text.phalMfc_Sw_ReadValue
                0x00000000       0xc8 build/default/production/NxpNfcRdLib/comps/phalMfc/src/Sw/phalMfc_Sw.o
 .text.phalMfc_Sw_Write
                0x00000000       0xe8 build/default/production/NxpNfcRdLib/comps/phalMfc/src/Sw/phalMfc_Sw.o
 .text.phalMfc_Sw_WriteValue
                0x00000000       0x94 build/default/production/NxpNfcRdLib/comps/phalMfc/src/Sw/phalMfc_Sw.o
 .text.phalMfc_Sw_Increment
                0x00000000       0x5c build/default/production/NxpNfcRdLib/comps/phalMfc/src/Sw/phalMfc_Sw.o
 .text.phalMfc_Sw_Decrement
                0x00000000       0x5c build/default/production/NxpNfcRdLib/comps/phalMfc/src/Sw/phalMfc_Sw.o
 .text.phalMfc_Sw_Transfer
                0x00000000       0x50 build/default/production/NxpNfcRdLib/comps/phalMfc/src/Sw/phalMfc_Sw.o
 .text.phalMfc_Sw_Restore
                0x00000000       0x74 build/default/production/NxpNfcRdLib/comps/phalMfc/src/Sw/phalMfc_Sw.o
 .text.phalMfc_Sw_IncrementTransfer
                0x00000000       0xa8 build/default/production/NxpNfcRdLib/comps/phalMfc/src/Sw/phalMfc_Sw.o
 .text.phalMfc_Sw_DecrementTransfer
                0x00000000       0xa8 build/default/production/NxpNfcRdLib/comps/phalMfc/src/Sw/phalMfc_Sw.o
 .text.phalMfc_Sw_RestoreTransfer
                0x00000000       0xa0 build/default/production/NxpNfcRdLib/comps/phalMfc/src/Sw/phalMfc_Sw.o
 .text.phalMfc_Sw_PersonalizeUid
                0x00000000       0x78 build/default/production/NxpNfcRdLib/comps/phalMfc/src/Sw/phalMfc_Sw.o
 .text.phalMfc_Sw_GetVersion
                0x00000000       0xc4 build/default/production/NxpNfcRdLib/comps/phalMfc/src/Sw/phalMfc_Sw.o
 .text          0x00000000        0x0 build/default/production/NxpNfcRdLib/comps/phalMfc/src/phalMfc.o
 .data          0x00000000        0x0 build/default/production/NxpNfcRdLib/comps/phalMfc/src/phalMfc.o
 .bss           0x00000000        0x0 build/default/production/NxpNfcRdLib/comps/phalMfc/src/phalMfc.o
 .reginfo       0x00000000       0x18 build/default/production/NxpNfcRdLib/comps/phalMfc/src/phalMfc.o
 .text          0x00000000        0x0 build/default/production/NxpNfcRdLib/comps/phalMfc/src/phalMfc_Int.o
 .data          0x00000000        0x0 build/default/production/NxpNfcRdLib/comps/phalMfc/src/phalMfc_Int.o
 .bss           0x00000000        0x0 build/default/production/NxpNfcRdLib/comps/phalMfc/src/phalMfc_Int.o
 .reginfo       0x00000000       0x18 build/default/production/NxpNfcRdLib/comps/phalMfc/src/phalMfc_Int.o
 .text.phalMfc_Int_Transfer
                0x00000000       0x70 build/default/production/NxpNfcRdLib/comps/phalMfc/src/phalMfc_Int.o
 .text.phalMfc_Int_Value
                0x00000000      0x100 build/default/production/NxpNfcRdLib/comps/phalMfc/src/phalMfc_Int.o
 .text.phalMfc_Int_CreateValueBlock
                0x00000000      0x19c build/default/production/NxpNfcRdLib/comps/phalMfc/src/phalMfc_Int.o
 .text.phalMfc_Int_CheckValueBlockFormat
                0x00000000      0x1b4 build/default/production/NxpNfcRdLib/comps/phalMfc/src/phalMfc_Int.o
 .text.phalMfc_Int_ResolveReturnCode
                0x00000000       0xc0 build/default/production/NxpNfcRdLib/comps/phalMfc/src/phalMfc_Int.o
 .text          0x00000000        0x0 build/default/production/NxpNfcRdLib/comps/phalMfdf/src/Sw/phalMfdf_Sw.o
 .data          0x00000000        0x0 build/default/production/NxpNfcRdLib/comps/phalMfdf/src/Sw/phalMfdf_Sw.o
 .bss           0x00000000        0x0 build/default/production/NxpNfcRdLib/comps/phalMfdf/src/Sw/phalMfdf_Sw.o
 .reginfo       0x00000000       0x18 build/default/production/NxpNfcRdLib/comps/phalMfdf/src/Sw/phalMfdf_Sw.o
 .text.phalMfdf_Sw_CreateApplication
                0x00000000      0x1c0 build/default/production/NxpNfcRdLib/comps/phalMfdf/src/Sw/phalMfdf_Sw.o
 .text.phalMfdf_Sw_GetVersion
                0x00000000       0xd8 build/default/production/NxpNfcRdLib/comps/phalMfdf/src/Sw/phalMfdf_Sw.o
 .text.phalMfdf_Sw_CreateStdDataFile
                0x00000000      0x1b0 build/default/production/NxpNfcRdLib/comps/phalMfdf/src/Sw/phalMfdf_Sw.o
 .text.phalMfdf_Sw_WriteData
                0x00000000      0x13c build/default/production/NxpNfcRdLib/comps/phalMfdf/src/Sw/phalMfdf_Sw.o
 .text.phalMfdf_Sw_IsoSelectFile
                0x00000000      0x1ac build/default/production/NxpNfcRdLib/comps/phalMfdf/src/Sw/phalMfdf_Sw.o
 .text.phalMfdf_Sw_IsoReadBinary
                0x00000000      0x1cc build/default/production/NxpNfcRdLib/comps/phalMfdf/src/Sw/phalMfdf_Sw.o
 .text.phalMfdf_Sw_IsoUpdateBinary
                0x00000000      0x11c build/default/production/NxpNfcRdLib/comps/phalMfdf/src/Sw/phalMfdf_Sw.o
 .text.phalMfdf_Sw_GetConfig
                0x00000000       0x64 build/default/production/NxpNfcRdLib/comps/phalMfdf/src/Sw/phalMfdf_Sw.o
 .text          0x00000000        0x0 build/default/production/NxpNfcRdLib/comps/phalMfdf/src/Sw/phalMfdf_Sw_Int.o
 .data          0x00000000        0x0 build/default/production/NxpNfcRdLib/comps/phalMfdf/src/Sw/phalMfdf_Sw_Int.o
 .bss           0x00000000        0x0 build/default/production/NxpNfcRdLib/comps/phalMfdf/src/Sw/phalMfdf_Sw_Int.o
 .reginfo       0x00000000       0x18 build/default/production/NxpNfcRdLib/comps/phalMfdf/src/Sw/phalMfdf_Sw_Int.o
 .text.phalMfdf_Sw_Int_GetData
                0x00000000      0xc10 build/default/production/NxpNfcRdLib/comps/phalMfdf/src/Sw/phalMfdf_Sw_Int.o
 .text.phalMfdf_Sw_Int_ReadData_Plain
                0x00000000       0xe0 build/default/production/NxpNfcRdLib/comps/phalMfdf/src/Sw/phalMfdf_Sw_Int.o
 .text.phalMfdf_Sw_Int_Write_Plain
                0x00000000      0x4c0 build/default/production/NxpNfcRdLib/comps/phalMfdf/src/Sw/phalMfdf_Sw_Int.o
 .text.phalMfdf_Sw_Int_SendDataToPICC
                0x00000000      0x464 build/default/production/NxpNfcRdLib/comps/phalMfdf/src/Sw/phalMfdf_Sw_Int.o
 .text.phalMfdf_Sw_Int_IsoRead
                0x00000000      0x338 build/default/production/NxpNfcRdLib/comps/phalMfdf/src/Sw/phalMfdf_Sw_Int.o
 .text          0x00000000        0x0 build/default/production/NxpNfcRdLib/comps/phalMfdf/src/phalMfdf.o
 .data          0x00000000        0x0 build/default/production/NxpNfcRdLib/comps/phalMfdf/src/phalMfdf.o
 .bss           0x00000000        0x0 build/default/production/NxpNfcRdLib/comps/phalMfdf/src/phalMfdf.o
 .reginfo       0x00000000       0x18 build/default/production/NxpNfcRdLib/comps/phalMfdf/src/phalMfdf.o
 .text          0x00000000        0x0 build/default/production/NxpNfcRdLib/comps/phalMfdf/src/phalMfdf_Int.o
 .data          0x00000000        0x0 build/default/production/NxpNfcRdLib/comps/phalMfdf/src/phalMfdf_Int.o
 .bss           0x00000000        0x0 build/default/production/NxpNfcRdLib/comps/phalMfdf/src/phalMfdf_Int.o
 .reginfo       0x00000000       0x18 build/default/production/NxpNfcRdLib/comps/phalMfdf/src/phalMfdf_Int.o
 .text.phalMfdf_Int_Send7816Apdu
                0x00000000      0x2c0 build/default/production/NxpNfcRdLib/comps/phalMfdf/src/phalMfdf_Int.o
 .text          0x00000000        0x0 build/default/production/NxpNfcRdLib/comps/phalMful/src/Sw/phalMful_Sw.o
 .data          0x00000000        0x0 build/default/production/NxpNfcRdLib/comps/phalMful/src/Sw/phalMful_Sw.o
 .bss           0x00000000        0x0 build/default/production/NxpNfcRdLib/comps/phalMful/src/Sw/phalMful_Sw.o
 .reginfo       0x00000000       0x18 build/default/production/NxpNfcRdLib/comps/phalMful/src/Sw/phalMful_Sw.o
 .text          0x00000000        0x0 build/default/production/NxpNfcRdLib/comps/phalMful/src/phalMful.o
 .data          0x00000000        0x0 build/default/production/NxpNfcRdLib/comps/phalMful/src/phalMful.o
 .bss           0x00000000        0x0 build/default/production/NxpNfcRdLib/comps/phalMful/src/phalMful.o
 .reginfo       0x00000000       0x18 build/default/production/NxpNfcRdLib/comps/phalMful/src/phalMful.o
 .text          0x00000000        0x0 build/default/production/NxpNfcRdLib/comps/phalMful/src/phalMful_Int.o
 .data          0x00000000        0x0 build/default/production/NxpNfcRdLib/comps/phalMful/src/phalMful_Int.o
 .bss           0x00000000        0x0 build/default/production/NxpNfcRdLib/comps/phalMful/src/phalMful_Int.o
 .reginfo       0x00000000       0x18 build/default/production/NxpNfcRdLib/comps/phalMful/src/phalMful_Int.o
 .text          0x00000000        0x0 build/default/production/NxpNfcRdLib/comps/phalSli/src/Sw/phalSli_Sw.o
 .data          0x00000000        0x0 build/default/production/NxpNfcRdLib/comps/phalSli/src/Sw/phalSli_Sw.o
 .bss           0x00000000        0x0 build/default/production/NxpNfcRdLib/comps/phalSli/src/Sw/phalSli_Sw.o
 .reginfo       0x00000000       0x18 build/default/production/NxpNfcRdLib/comps/phalSli/src/Sw/phalSli_Sw.o
 .text          0x00000000        0x0 build/default/production/NxpNfcRdLib/comps/phalSli/src/phalSli.o
 .data          0x00000000        0x0 build/default/production/NxpNfcRdLib/comps/phalSli/src/phalSli.o
 .bss           0x00000000        0x0 build/default/production/NxpNfcRdLib/comps/phalSli/src/phalSli.o
 .reginfo       0x00000000       0x18 build/default/production/NxpNfcRdLib/comps/phalSli/src/phalSli.o
 .text          0x00000000        0x0 build/default/production/NxpNfcRdLib/comps/phalT1T/src/Sw/phalT1T_Sw.o
 .data          0x00000000        0x0 build/default/production/NxpNfcRdLib/comps/phalT1T/src/Sw/phalT1T_Sw.o
 .bss           0x00000000        0x0 build/default/production/NxpNfcRdLib/comps/phalT1T/src/Sw/phalT1T_Sw.o
 .reginfo       0x00000000       0x18 build/default/production/NxpNfcRdLib/comps/phalT1T/src/Sw/phalT1T_Sw.o
 .text          0x00000000        0x0 build/default/production/NxpNfcRdLib/comps/phalT1T/src/phalT1T.o
 .data          0x00000000        0x0 build/default/production/NxpNfcRdLib/comps/phalT1T/src/phalT1T.o
 .bss           0x00000000        0x0 build/default/production/NxpNfcRdLib/comps/phalT1T/src/phalT1T.o
 .reginfo       0x00000000       0x18 build/default/production/NxpNfcRdLib/comps/phalT1T/src/phalT1T.o
 .text          0x00000000        0x0 build/default/production/NxpNfcRdLib/comps/phalTop/src/Sw/phalTop_Sw.o
 .data          0x00000000        0x0 build/default/production/NxpNfcRdLib/comps/phalTop/src/Sw/phalTop_Sw.o
 .bss           0x00000000        0x0 build/default/production/NxpNfcRdLib/comps/phalTop/src/Sw/phalTop_Sw.o
 .reginfo       0x00000000       0x18 build/default/production/NxpNfcRdLib/comps/phalTop/src/Sw/phalTop_Sw.o
 .text          0x00000000        0x0 build/default/production/NxpNfcRdLib/comps/phalTop/src/Sw/phalTop_Sw_Int_T1T.o
 .data          0x00000000        0x0 build/default/production/NxpNfcRdLib/comps/phalTop/src/Sw/phalTop_Sw_Int_T1T.o
 .bss           0x00000000        0x0 build/default/production/NxpNfcRdLib/comps/phalTop/src/Sw/phalTop_Sw_Int_T1T.o
 .reginfo       0x00000000       0x18 build/default/production/NxpNfcRdLib/comps/phalTop/src/Sw/phalTop_Sw_Int_T1T.o
 .text          0x00000000        0x0 build/default/production/NxpNfcRdLib/comps/phalTop/src/Sw/phalTop_Sw_Int_T2T.o
 .data          0x00000000        0x0 build/default/production/NxpNfcRdLib/comps/phalTop/src/Sw/phalTop_Sw_Int_T2T.o
 .bss           0x00000000        0x0 build/default/production/NxpNfcRdLib/comps/phalTop/src/Sw/phalTop_Sw_Int_T2T.o
 .reginfo       0x00000000       0x18 build/default/production/NxpNfcRdLib/comps/phalTop/src/Sw/phalTop_Sw_Int_T2T.o
 .text          0x00000000        0x0 build/default/production/NxpNfcRdLib/comps/phalTop/src/Sw/phalTop_Sw_Int_T3T.o
 .data          0x00000000        0x0 build/default/production/NxpNfcRdLib/comps/phalTop/src/Sw/phalTop_Sw_Int_T3T.o
 .bss           0x00000000        0x0 build/default/production/NxpNfcRdLib/comps/phalTop/src/Sw/phalTop_Sw_Int_T3T.o
 .reginfo       0x00000000       0x18 build/default/production/NxpNfcRdLib/comps/phalTop/src/Sw/phalTop_Sw_Int_T3T.o
 .text          0x00000000        0x0 build/default/production/NxpNfcRdLib/comps/phalTop/src/Sw/phalTop_Sw_Int_T4T.o
 .data          0x00000000        0x0 build/default/production/NxpNfcRdLib/comps/phalTop/src/Sw/phalTop_Sw_Int_T4T.o
 .bss           0x00000000        0x0 build/default/production/NxpNfcRdLib/comps/phalTop/src/Sw/phalTop_Sw_Int_T4T.o
 .reginfo       0x00000000       0x18 build/default/production/NxpNfcRdLib/comps/phalTop/src/Sw/phalTop_Sw_Int_T4T.o
 .text          0x00000000        0x0 build/default/production/NxpNfcRdLib/comps/phalTop/src/Sw/phalTop_Sw_Int_T5T.o
 .data          0x00000000        0x0 build/default/production/NxpNfcRdLib/comps/phalTop/src/Sw/phalTop_Sw_Int_T5T.o
 .bss           0x00000000        0x0 build/default/production/NxpNfcRdLib/comps/phalTop/src/Sw/phalTop_Sw_Int_T5T.o
 .reginfo       0x00000000       0x18 build/default/production/NxpNfcRdLib/comps/phalTop/src/Sw/phalTop_Sw_Int_T5T.o
 .text          0x00000000        0x0 build/default/production/NxpNfcRdLib/comps/phalTop/src/phalTop.o
 .data          0x00000000        0x0 build/default/production/NxpNfcRdLib/comps/phalTop/src/phalTop.o
 .bss           0x00000000        0x0 build/default/production/NxpNfcRdLib/comps/phalTop/src/phalTop.o
 .reginfo       0x00000000       0x18 build/default/production/NxpNfcRdLib/comps/phalTop/src/phalTop.o
 .text          0x00000000        0x0 build/default/production/NxpNfcRdLib/comps/phbalReg/src/KinetisI2C/phbalReg_KinetisI2C.o
 .data          0x00000000        0x0 build/default/production/NxpNfcRdLib/comps/phbalReg/src/KinetisI2C/phbalReg_KinetisI2C.o
 .bss           0x00000000        0x0 build/default/production/NxpNfcRdLib/comps/phbalReg/src/KinetisI2C/phbalReg_KinetisI2C.o
 .reginfo       0x00000000       0x18 build/default/production/NxpNfcRdLib/comps/phbalReg/src/KinetisI2C/phbalReg_KinetisI2C.o
 .text          0x00000000        0x0 build/default/production/NxpNfcRdLib/comps/phbalReg/src/KinetisSPI/phbalReg_KinetisSpi.o
 .data          0x00000000        0x0 build/default/production/NxpNfcRdLib/comps/phbalReg/src/KinetisSPI/phbalReg_KinetisSpi.o
 .bss           0x00000000        0x0 build/default/production/NxpNfcRdLib/comps/phbalReg/src/KinetisSPI/phbalReg_KinetisSpi.o
 .reginfo       0x00000000       0x18 build/default/production/NxpNfcRdLib/comps/phbalReg/src/KinetisSPI/phbalReg_KinetisSpi.o
 .text          0x00000000        0x0 build/default/production/NxpNfcRdLib/comps/phbalReg/src/LinuxKernelSpi/phbalReg_LinuxKernelSpi.o
 .data          0x00000000        0x0 build/default/production/NxpNfcRdLib/comps/phbalReg/src/LinuxKernelSpi/phbalReg_LinuxKernelSpi.o
 .bss           0x00000000        0x0 build/default/production/NxpNfcRdLib/comps/phbalReg/src/LinuxKernelSpi/phbalReg_LinuxKernelSpi.o
 .reginfo       0x00000000       0x18 build/default/production/NxpNfcRdLib/comps/phbalReg/src/LinuxKernelSpi/phbalReg_LinuxKernelSpi.o
 .text          0x00000000        0x0 build/default/production/NxpNfcRdLib/comps/phbalReg/src/LinuxUserI2C/phbalReg_LinuxUserI2C.o
 .data          0x00000000        0x0 build/default/production/NxpNfcRdLib/comps/phbalReg/src/LinuxUserI2C/phbalReg_LinuxUserI2C.o
 .bss           0x00000000        0x0 build/default/production/NxpNfcRdLib/comps/phbalReg/src/LinuxUserI2C/phbalReg_LinuxUserI2C.o
 .reginfo       0x00000000       0x18 build/default/production/NxpNfcRdLib/comps/phbalReg/src/LinuxUserI2C/phbalReg_LinuxUserI2C.o
 .text          0x00000000        0x0 build/default/production/NxpNfcRdLib/comps/phbalReg/src/LinuxUserSpi/phbalReg_LinuxUserSpi.o
 .data          0x00000000        0x0 build/default/production/NxpNfcRdLib/comps/phbalReg/src/LinuxUserSpi/phbalReg_LinuxUserSpi.o
 .bss           0x00000000        0x0 build/default/production/NxpNfcRdLib/comps/phbalReg/src/LinuxUserSpi/phbalReg_LinuxUserSpi.o
 .reginfo       0x00000000       0x18 build/default/production/NxpNfcRdLib/comps/phbalReg/src/LinuxUserSpi/phbalReg_LinuxUserSpi.o
 .text          0x00000000        0x0 build/default/production/NxpNfcRdLib/comps/phbalReg/src/LpcOpenI2C/phbalReg_LpcOpenI2c.o
 .data          0x00000000        0x0 build/default/production/NxpNfcRdLib/comps/phbalReg/src/LpcOpenI2C/phbalReg_LpcOpenI2c.o
 .bss           0x00000000        0x0 build/default/production/NxpNfcRdLib/comps/phbalReg/src/LpcOpenI2C/phbalReg_LpcOpenI2c.o
 .reginfo       0x00000000       0x18 build/default/production/NxpNfcRdLib/comps/phbalReg/src/LpcOpenI2C/phbalReg_LpcOpenI2c.o
 .text          0x00000000        0x0 build/default/production/NxpNfcRdLib/comps/phbalReg/src/LpcOpenSPI/phbalReg_LpcOpenSpi.o
 .data          0x00000000        0x0 build/default/production/NxpNfcRdLib/comps/phbalReg/src/LpcOpenSPI/phbalReg_LpcOpenSpi.o
 .bss           0x00000000        0x0 build/default/production/NxpNfcRdLib/comps/phbalReg/src/LpcOpenSPI/phbalReg_LpcOpenSpi.o
 .reginfo       0x00000000       0x18 build/default/production/NxpNfcRdLib/comps/phbalReg/src/LpcOpenSPI/phbalReg_LpcOpenSpi.o
 .text          0x00000000        0x0 build/default/production/NxpNfcRdLib/comps/phbalReg/src/Pic32mxSPI/phbalReg_Pic32mxSpi.o
 .data          0x00000000        0x0 build/default/production/NxpNfcRdLib/comps/phbalReg/src/Pic32mxSPI/phbalReg_Pic32mxSpi.o
 .bss           0x00000000        0x0 build/default/production/NxpNfcRdLib/comps/phbalReg/src/Pic32mxSPI/phbalReg_Pic32mxSpi.o
 .reginfo       0x00000000       0x18 build/default/production/NxpNfcRdLib/comps/phbalReg/src/Pic32mxSPI/phbalReg_Pic32mxSpi.o
 .text.phbalReg_Pic32mxSpi_GetPortList
                0x00000000       0x28 build/default/production/NxpNfcRdLib/comps/phbalReg/src/Pic32mxSPI/phbalReg_Pic32mxSpi.o
 .text.phbalReg_Pic32mxSpi_SetPort
                0x00000000       0x28 build/default/production/NxpNfcRdLib/comps/phbalReg/src/Pic32mxSPI/phbalReg_Pic32mxSpi.o
 .text.phbalReg_Pic32mxSpi_OpenPort
                0x00000000       0x28 build/default/production/NxpNfcRdLib/comps/phbalReg/src/Pic32mxSPI/phbalReg_Pic32mxSpi.o
 .text.phbalReg_Pic32mxSpi_ClosePort
                0x00000000       0x28 build/default/production/NxpNfcRdLib/comps/phbalReg/src/Pic32mxSPI/phbalReg_Pic32mxSpi.o
 .text.phbalReg_Pic32mxSpi_SetConfig
                0x00000000       0x38 build/default/production/NxpNfcRdLib/comps/phbalReg/src/Pic32mxSPI/phbalReg_Pic32mxSpi.o
 .text.phbalReg_Pic32mxSpi_GetConfig
                0x00000000       0x34 build/default/production/NxpNfcRdLib/comps/phbalReg/src/Pic32mxSPI/phbalReg_Pic32mxSpi.o
 .text          0x00000000        0x0 build/default/production/NxpNfcRdLib/comps/phbalReg/src/phbalReg.o
 .data          0x00000000        0x0 build/default/production/NxpNfcRdLib/comps/phbalReg/src/phbalReg.o
 .bss           0x00000000        0x0 build/default/production/NxpNfcRdLib/comps/phbalReg/src/phbalReg.o
 .reginfo       0x00000000       0x18 build/default/production/NxpNfcRdLib/comps/phbalReg/src/phbalReg.o
 .text          0x00000000        0x0 build/default/production/NxpNfcRdLib/comps/phceT4T/src/Sw/phceT4T_Sw.o
 .data          0x00000000        0x0 build/default/production/NxpNfcRdLib/comps/phceT4T/src/Sw/phceT4T_Sw.o
 .bss           0x00000000        0x0 build/default/production/NxpNfcRdLib/comps/phceT4T/src/Sw/phceT4T_Sw.o
 .reginfo       0x00000000       0x18 build/default/production/NxpNfcRdLib/comps/phceT4T/src/Sw/phceT4T_Sw.o
 .text          0x00000000        0x0 build/default/production/NxpNfcRdLib/comps/phceT4T/src/Sw/phceT4T_Sw_Int.o
 .data          0x00000000        0x0 build/default/production/NxpNfcRdLib/comps/phceT4T/src/Sw/phceT4T_Sw_Int.o
 .bss           0x00000000        0x0 build/default/production/NxpNfcRdLib/comps/phceT4T/src/Sw/phceT4T_Sw_Int.o
 .reginfo       0x00000000       0x18 build/default/production/NxpNfcRdLib/comps/phceT4T/src/Sw/phceT4T_Sw_Int.o
 .text          0x00000000        0x0 build/default/production/NxpNfcRdLib/comps/phceT4T/src/phceT4T.o
 .data          0x00000000        0x0 build/default/production/NxpNfcRdLib/comps/phceT4T/src/phceT4T.o
 .bss           0x00000000        0x0 build/default/production/NxpNfcRdLib/comps/phceT4T/src/phceT4T.o
 .reginfo       0x00000000       0x18 build/default/production/NxpNfcRdLib/comps/phceT4T/src/phceT4T.o
 .text          0x00000000        0x0 build/default/production/NxpNfcRdLib/comps/phCidManager/src/Sw/phCidManager_Sw.o
 .data          0x00000000        0x0 build/default/production/NxpNfcRdLib/comps/phCidManager/src/Sw/phCidManager_Sw.o
 .bss           0x00000000        0x0 build/default/production/NxpNfcRdLib/comps/phCidManager/src/Sw/phCidManager_Sw.o
 .reginfo       0x00000000       0x18 build/default/production/NxpNfcRdLib/comps/phCidManager/src/Sw/phCidManager_Sw.o
 .text          0x00000000        0x0 build/default/production/NxpNfcRdLib/comps/phCidManager/src/phCidManager.o
 .data          0x00000000        0x0 build/default/production/NxpNfcRdLib/comps/phCidManager/src/phCidManager.o
 .bss           0x00000000        0x0 build/default/production/NxpNfcRdLib/comps/phCidManager/src/phCidManager.o
 .reginfo       0x00000000       0x18 build/default/production/NxpNfcRdLib/comps/phCidManager/src/phCidManager.o
 .text          0x00000000        0x0 build/default/production/NxpNfcRdLib/comps/phCryptoRng/src/Sw/phCryptoRng_Sw.o
 .data          0x00000000        0x0 build/default/production/NxpNfcRdLib/comps/phCryptoRng/src/Sw/phCryptoRng_Sw.o
 .bss           0x00000000        0x0 build/default/production/NxpNfcRdLib/comps/phCryptoRng/src/Sw/phCryptoRng_Sw.o
 .reginfo       0x00000000       0x18 build/default/production/NxpNfcRdLib/comps/phCryptoRng/src/Sw/phCryptoRng_Sw.o
 .text          0x00000000        0x0 build/default/production/NxpNfcRdLib/comps/phCryptoRng/src/phCryptoRng.o
 .data          0x00000000        0x0 build/default/production/NxpNfcRdLib/comps/phCryptoRng/src/phCryptoRng.o
 .bss           0x00000000        0x0 build/default/production/NxpNfcRdLib/comps/phCryptoRng/src/phCryptoRng.o
 .reginfo       0x00000000       0x18 build/default/production/NxpNfcRdLib/comps/phCryptoRng/src/phCryptoRng.o
 .text          0x00000000        0x0 build/default/production/NxpNfcRdLib/comps/phCryptoSym/src/Sw/phCryptoSym_Sw.o
 .data          0x00000000        0x0 build/default/production/NxpNfcRdLib/comps/phCryptoSym/src/Sw/phCryptoSym_Sw.o
 .bss           0x00000000        0x0 build/default/production/NxpNfcRdLib/comps/phCryptoSym/src/Sw/phCryptoSym_Sw.o
 .reginfo       0x00000000       0x18 build/default/production/NxpNfcRdLib/comps/phCryptoSym/src/Sw/phCryptoSym_Sw.o
 .text          0x00000000        0x0 build/default/production/NxpNfcRdLib/comps/phCryptoSym/src/Sw/phCryptoSym_Sw_Aes.o
 .data          0x00000000        0x0 build/default/production/NxpNfcRdLib/comps/phCryptoSym/src/Sw/phCryptoSym_Sw_Aes.o
 .bss           0x00000000        0x0 build/default/production/NxpNfcRdLib/comps/phCryptoSym/src/Sw/phCryptoSym_Sw_Aes.o
 .reginfo       0x00000000       0x18 build/default/production/NxpNfcRdLib/comps/phCryptoSym/src/Sw/phCryptoSym_Sw_Aes.o
 .text          0x00000000        0x0 build/default/production/NxpNfcRdLib/comps/phCryptoSym/src/Sw/phCryptoSym_Sw_Des.o
 .data          0x00000000        0x0 build/default/production/NxpNfcRdLib/comps/phCryptoSym/src/Sw/phCryptoSym_Sw_Des.o
 .bss           0x00000000        0x0 build/default/production/NxpNfcRdLib/comps/phCryptoSym/src/Sw/phCryptoSym_Sw_Des.o
 .reginfo       0x00000000       0x18 build/default/production/NxpNfcRdLib/comps/phCryptoSym/src/Sw/phCryptoSym_Sw_Des.o
 .text          0x00000000        0x0 build/default/production/NxpNfcRdLib/comps/phCryptoSym/src/Sw/phCryptoSym_Sw_Int.o
 .data          0x00000000        0x0 build/default/production/NxpNfcRdLib/comps/phCryptoSym/src/Sw/phCryptoSym_Sw_Int.o
 .bss           0x00000000        0x0 build/default/production/NxpNfcRdLib/comps/phCryptoSym/src/Sw/phCryptoSym_Sw_Int.o
 .reginfo       0x00000000       0x18 build/default/production/NxpNfcRdLib/comps/phCryptoSym/src/Sw/phCryptoSym_Sw_Int.o
 .text          0x00000000        0x0 build/default/production/NxpNfcRdLib/comps/phCryptoSym/src/phCryptoSym.o
 .data          0x00000000        0x0 build/default/production/NxpNfcRdLib/comps/phCryptoSym/src/phCryptoSym.o
 .bss           0x00000000        0x0 build/default/production/NxpNfcRdLib/comps/phCryptoSym/src/phCryptoSym.o
 .reginfo       0x00000000       0x18 build/default/production/NxpNfcRdLib/comps/phCryptoSym/src/phCryptoSym.o
 .text          0x00000000        0x0 build/default/production/NxpNfcRdLib/comps/phhalHw/src/Pn5180/phhalHw_Pn5180.o
 .data          0x00000000        0x0 build/default/production/NxpNfcRdLib/comps/phhalHw/src/Pn5180/phhalHw_Pn5180.o
 .bss           0x00000000        0x0 build/default/production/NxpNfcRdLib/comps/phhalHw/src/Pn5180/phhalHw_Pn5180.o
 .reginfo       0x00000000       0x18 build/default/production/NxpNfcRdLib/comps/phhalHw/src/Pn5180/phhalHw_Pn5180.o
 .text.phhalHw_Pn5180_MfcAuthenticateKeyNo
                0x00000000      0x198 build/default/production/NxpNfcRdLib/comps/phhalHw/src/Pn5180/phhalHw_Pn5180.o
 .text.phhalHw_Pn5180_Transmit
                0x00000000      0x8f4 build/default/production/NxpNfcRdLib/comps/phhalHw/src/Pn5180/phhalHw_Pn5180.o
 .text.phhalHw_Pn5180_Receive
                0x00000000      0x534 build/default/production/NxpNfcRdLib/comps/phhalHw/src/Pn5180/phhalHw_Pn5180.o
 .text.phhalHw_Pn5180_Autocoll
                0x00000000      0x928 build/default/production/NxpNfcRdLib/comps/phhalHw/src/Pn5180/phhalHw_Pn5180.o
 .text.phhalHw_Pn5180_SetListenParameters
                0x00000000       0xa8 build/default/production/NxpNfcRdLib/comps/phhalHw/src/Pn5180/phhalHw_Pn5180.o
 .text.phhalHw_Pn5180_AsyncAbort
                0x00000000       0x74 build/default/production/NxpNfcRdLib/comps/phhalHw/src/Pn5180/phhalHw_Pn5180.o
 .text.phhalHw_Pn5180_I18000p3m3Inventory
                0x00000000      0x31c build/default/production/NxpNfcRdLib/comps/phhalHw/src/Pn5180/phhalHw_Pn5180.o
 .text.phhalHw_Pn5180_18000p3m3ResumeInventory
                0x00000000      0x214 build/default/production/NxpNfcRdLib/comps/phhalHw/src/Pn5180/phhalHw_Pn5180.o
 .text.phhalHw_Pn5180_EventWait
                0x00000000       0x54 build/default/production/NxpNfcRdLib/comps/phhalHw/src/Pn5180/phhalHw_Pn5180.o
 .text.phhalHw_Pn5180_EventConsume
                0x00000000       0x4c build/default/production/NxpNfcRdLib/comps/phhalHw/src/Pn5180/phhalHw_Pn5180.o
 .text.phhalHw_Pn5180_DeInit
                0x00000000      0x1d8 build/default/production/NxpNfcRdLib/comps/phhalHw/src/Pn5180/phhalHw_Pn5180.o
 .text          0x00000000        0x0 build/default/production/NxpNfcRdLib/comps/phhalHw/src/Pn5180/phhalHw_Pn5180_Instr.o
 .data          0x00000000        0x0 build/default/production/NxpNfcRdLib/comps/phhalHw/src/Pn5180/phhalHw_Pn5180_Instr.o
 .bss           0x00000000        0x0 build/default/production/NxpNfcRdLib/comps/phhalHw/src/Pn5180/phhalHw_Pn5180_Instr.o
 .reginfo       0x00000000       0x18 build/default/production/NxpNfcRdLib/comps/phhalHw/src/Pn5180/phhalHw_Pn5180_Instr.o
 .text.phhalHw_Pn5180_Instr_Execute
                0x00000000      0x204 build/default/production/NxpNfcRdLib/comps/phhalHw/src/Pn5180/phhalHw_Pn5180_Instr.o
 .text.phhalHw_Pn5180_Instr_ReadRegisterMultiple
                0x00000000      0x220 build/default/production/NxpNfcRdLib/comps/phhalHw/src/Pn5180/phhalHw_Pn5180_Instr.o
 .text.phhalHw_Pn5180_Instr_WriteE2Prom
                0x00000000      0x1d4 build/default/production/NxpNfcRdLib/comps/phhalHw/src/Pn5180/phhalHw_Pn5180_Instr.o
 .text.phhalHw_Pn5180_Instr_WriteTxData
                0x00000000      0x1b8 build/default/production/NxpNfcRdLib/comps/phhalHw/src/Pn5180/phhalHw_Pn5180_Instr.o
 .text.phhalHw_Pn5180_Instr_SendData
                0x00000000      0x1ec build/default/production/NxpNfcRdLib/comps/phhalHw/src/Pn5180/phhalHw_Pn5180_Instr.o
 .text.phhalHw_Pn5180_Instr_SwitchModeStandby
                0x00000000      0x1c0 build/default/production/NxpNfcRdLib/comps/phhalHw/src/Pn5180/phhalHw_Pn5180_Instr.o
 .text.phhalHw_Pn5180_Instr_SwitchModeAutocoll
                0x00000000      0x14c build/default/production/NxpNfcRdLib/comps/phhalHw/src/Pn5180/phhalHw_Pn5180_Instr.o
 .text.phhalHw_Pn5180_Instr_SwitchModeNormal
                0x00000000       0xc4 build/default/production/NxpNfcRdLib/comps/phhalHw/src/Pn5180/phhalHw_Pn5180_Instr.o
 .text.phhalHw_Pn5180_Instr_EpcGen2Inventory
                0x00000000      0x230 build/default/production/NxpNfcRdLib/comps/phhalHw/src/Pn5180/phhalHw_Pn5180_Instr.o
 .text.phhalHw_Pn5180_Instr_EpcGen2RetrieveResultSize
                0x00000000      0x144 build/default/production/NxpNfcRdLib/comps/phhalHw/src/Pn5180/phhalHw_Pn5180_Instr.o
 .text.phhalHw_Pn5180_Instr_EpcGen2RetrieveResult
                0x00000000      0x168 build/default/production/NxpNfcRdLib/comps/phhalHw/src/Pn5180/phhalHw_Pn5180_Instr.o
 .text.phhalHw_Pn5180_Instr_EpcGen2ResumeInventory
                0x00000000       0xd8 build/default/production/NxpNfcRdLib/comps/phhalHw/src/Pn5180/phhalHw_Pn5180_Instr.o
 .text.phhalHw_Pn5180_Instr_UpdateRfConfiguration
                0x00000000      0x198 build/default/production/NxpNfcRdLib/comps/phhalHw/src/Pn5180/phhalHw_Pn5180_Instr.o
 .text.phhalHw_Pn5180_Instr_RetrieveRfConfigurationSize
                0x00000000      0x148 build/default/production/NxpNfcRdLib/comps/phhalHw/src/Pn5180/phhalHw_Pn5180_Instr.o
 .text.phhalHw_Pn5180_Instr_RetrieveRfConfiguration
                0x00000000      0x1c4 build/default/production/NxpNfcRdLib/comps/phhalHw/src/Pn5180/phhalHw_Pn5180_Instr.o
 .text.phhalHw_Pn5180_Instr_ConfigureTestBusDigital
                0x00000000      0x194 build/default/production/NxpNfcRdLib/comps/phhalHw/src/Pn5180/phhalHw_Pn5180_Instr.o
 .text.phhalHw_Pn5180_Instr_ConfigureTestBusAnalog
                0x00000000      0x144 build/default/production/NxpNfcRdLib/comps/phhalHw/src/Pn5180/phhalHw_Pn5180_Instr.o
 .text.phhalHw_Pn5180_Instr_GetHALVersion
                0x00000000       0x4c build/default/production/NxpNfcRdLib/comps/phhalHw/src/Pn5180/phhalHw_Pn5180_Instr.o
 .text.phhalHw_Pn5180_Int_LPCD_SetConfig
                0x00000000      0x214 build/default/production/NxpNfcRdLib/comps/phhalHw/src/Pn5180/phhalHw_Pn5180_Instr.o
 .text.phhalHw_Pn5180_Int_LPCD_GetConfig
                0x00000000       0xb4 build/default/production/NxpNfcRdLib/comps/phhalHw/src/Pn5180/phhalHw_Pn5180_Instr.o
 .text          0x00000000        0x0 build/default/production/NxpNfcRdLib/comps/phhalHw/src/Pn5180/phhalHw_Pn5180_Int.o
 .data          0x00000000        0x0 build/default/production/NxpNfcRdLib/comps/phhalHw/src/Pn5180/phhalHw_Pn5180_Int.o
 .bss           0x00000000        0x0 build/default/production/NxpNfcRdLib/comps/phhalHw/src/Pn5180/phhalHw_Pn5180_Int.o
 .reginfo       0x00000000       0x18 build/default/production/NxpNfcRdLib/comps/phhalHw/src/Pn5180/phhalHw_Pn5180_Int.o
 .text.phhalHw_Pn5180_Int_GetFdt
                0x00000000      0x24c build/default/production/NxpNfcRdLib/comps/phhalHw/src/Pn5180/phhalHw_Pn5180_Int.o
 .text.phhalHw_Pn5180_AutoSyncByte
                0x00000000     0x11cc build/default/production/NxpNfcRdLib/comps/phhalHw/src/Pn5180/phhalHw_Pn5180_Int.o
 .text          0x00000000        0x0 build/default/production/NxpNfcRdLib/comps/phhalHw/src/Pn5180/phhalHw_Pn5180_Wait.o
 .data          0x00000000        0x0 build/default/production/NxpNfcRdLib/comps/phhalHw/src/Pn5180/phhalHw_Pn5180_Wait.o
 .bss           0x00000000        0x0 build/default/production/NxpNfcRdLib/comps/phhalHw/src/Pn5180/phhalHw_Pn5180_Wait.o
 .reginfo       0x00000000       0x18 build/default/production/NxpNfcRdLib/comps/phhalHw/src/Pn5180/phhalHw_Pn5180_Wait.o
 .text          0x00000000        0x0 build/default/production/NxpNfcRdLib/comps/phhalHw/src/PN7462AU/phhalHw_PN7462AU.o
 .data          0x00000000        0x0 build/default/production/NxpNfcRdLib/comps/phhalHw/src/PN7462AU/phhalHw_PN7462AU.o
 .bss           0x00000000        0x0 build/default/production/NxpNfcRdLib/comps/phhalHw/src/PN7462AU/phhalHw_PN7462AU.o
 .reginfo       0x00000000       0x18 build/default/production/NxpNfcRdLib/comps/phhalHw/src/PN7462AU/phhalHw_PN7462AU.o
 .text          0x00000000        0x0 build/default/production/NxpNfcRdLib/comps/phhalHw/src/PN7462AU/phhalHw_PN7462AU_Int.o
 .data          0x00000000        0x0 build/default/production/NxpNfcRdLib/comps/phhalHw/src/PN7462AU/phhalHw_PN7462AU_Int.o
 .bss           0x00000000        0x0 build/default/production/NxpNfcRdLib/comps/phhalHw/src/PN7462AU/phhalHw_PN7462AU_Int.o
 .reginfo       0x00000000       0x18 build/default/production/NxpNfcRdLib/comps/phhalHw/src/PN7462AU/phhalHw_PN7462AU_Int.o
 .text          0x00000000        0x0 build/default/production/NxpNfcRdLib/comps/phhalHw/src/Rc523/phhalHw_Rc523.o
 .data          0x00000000        0x0 build/default/production/NxpNfcRdLib/comps/phhalHw/src/Rc523/phhalHw_Rc523.o
 .bss           0x00000000        0x0 build/default/production/NxpNfcRdLib/comps/phhalHw/src/Rc523/phhalHw_Rc523.o
 .reginfo       0x00000000       0x18 build/default/production/NxpNfcRdLib/comps/phhalHw/src/Rc523/phhalHw_Rc523.o
 .text          0x00000000        0x0 build/default/production/NxpNfcRdLib/comps/phhalHw/src/Rc523/phhalHw_Rc523_Cmd.o
 .data          0x00000000        0x0 build/default/production/NxpNfcRdLib/comps/phhalHw/src/Rc523/phhalHw_Rc523_Cmd.o
 .bss           0x00000000        0x0 build/default/production/NxpNfcRdLib/comps/phhalHw/src/Rc523/phhalHw_Rc523_Cmd.o
 .reginfo       0x00000000       0x18 build/default/production/NxpNfcRdLib/comps/phhalHw/src/Rc523/phhalHw_Rc523_Cmd.o
 .text          0x00000000        0x0 build/default/production/NxpNfcRdLib/comps/phhalHw/src/Rc523/phhalHw_Rc523_Int.o
 .data          0x00000000        0x0 build/default/production/NxpNfcRdLib/comps/phhalHw/src/Rc523/phhalHw_Rc523_Int.o
 .bss           0x00000000        0x0 build/default/production/NxpNfcRdLib/comps/phhalHw/src/Rc523/phhalHw_Rc523_Int.o
 .reginfo       0x00000000       0x18 build/default/production/NxpNfcRdLib/comps/phhalHw/src/Rc523/phhalHw_Rc523_Int.o
 .text          0x00000000        0x0 build/default/production/NxpNfcRdLib/comps/phhalHw/src/Rc523/phhalHw_Rc523_Wait.o
 .data          0x00000000        0x0 build/default/production/NxpNfcRdLib/comps/phhalHw/src/Rc523/phhalHw_Rc523_Wait.o
 .bss           0x00000000        0x0 build/default/production/NxpNfcRdLib/comps/phhalHw/src/Rc523/phhalHw_Rc523_Wait.o
 .reginfo       0x00000000       0x18 build/default/production/NxpNfcRdLib/comps/phhalHw/src/Rc523/phhalHw_Rc523_Wait.o
 .text          0x00000000        0x0 build/default/production/NxpNfcRdLib/comps/phhalHw/src/Rc663/phhalHw_Rc663.o
 .data          0x00000000        0x0 build/default/production/NxpNfcRdLib/comps/phhalHw/src/Rc663/phhalHw_Rc663.o
 .bss           0x00000000        0x0 build/default/production/NxpNfcRdLib/comps/phhalHw/src/Rc663/phhalHw_Rc663.o
 .reginfo       0x00000000       0x18 build/default/production/NxpNfcRdLib/comps/phhalHw/src/Rc663/phhalHw_Rc663.o
 .text          0x00000000        0x0 build/default/production/NxpNfcRdLib/comps/phhalHw/src/Rc663/phhalHw_Rc663_Cmd.o
 .data          0x00000000        0x0 build/default/production/NxpNfcRdLib/comps/phhalHw/src/Rc663/phhalHw_Rc663_Cmd.o
 .bss           0x00000000        0x0 build/default/production/NxpNfcRdLib/comps/phhalHw/src/Rc663/phhalHw_Rc663_Cmd.o
 .reginfo       0x00000000       0x18 build/default/production/NxpNfcRdLib/comps/phhalHw/src/Rc663/phhalHw_Rc663_Cmd.o
 .text          0x00000000        0x0 build/default/production/NxpNfcRdLib/comps/phhalHw/src/Rc663/phhalHw_Rc663_Int.o
 .data          0x00000000        0x0 build/default/production/NxpNfcRdLib/comps/phhalHw/src/Rc663/phhalHw_Rc663_Int.o
 .bss           0x00000000        0x0 build/default/production/NxpNfcRdLib/comps/phhalHw/src/Rc663/phhalHw_Rc663_Int.o
 .reginfo       0x00000000       0x18 build/default/production/NxpNfcRdLib/comps/phhalHw/src/Rc663/phhalHw_Rc663_Int.o
 .text          0x00000000        0x0 build/default/production/NxpNfcRdLib/comps/phhalHw/src/Rc663/phhalHw_Rc663_Wait.o
 .data          0x00000000        0x0 build/default/production/NxpNfcRdLib/comps/phhalHw/src/Rc663/phhalHw_Rc663_Wait.o
 .bss           0x00000000        0x0 build/default/production/NxpNfcRdLib/comps/phhalHw/src/Rc663/phhalHw_Rc663_Wait.o
 .reginfo       0x00000000       0x18 build/default/production/NxpNfcRdLib/comps/phhalHw/src/Rc663/phhalHw_Rc663_Wait.o
 .text          0x00000000        0x0 build/default/production/NxpNfcRdLib/comps/phhalHw/src/phhalHw.o
 .data          0x00000000        0x0 build/default/production/NxpNfcRdLib/comps/phhalHw/src/phhalHw.o
 .bss           0x00000000        0x0 build/default/production/NxpNfcRdLib/comps/phhalHw/src/phhalHw.o
 .reginfo       0x00000000       0x18 build/default/production/NxpNfcRdLib/comps/phhalHw/src/phhalHw.o
 .text.phhalHw_Nfc_IC_Init
                0x00000000       0x84 build/default/production/NxpNfcRdLib/comps/phhalHw/src/phhalHw.o
 .text          0x00000000        0x0 build/default/production/NxpNfcRdLib/comps/phKeyStore/src/Rc663/phKeyStore_Rc663.o
 .data          0x00000000        0x0 build/default/production/NxpNfcRdLib/comps/phKeyStore/src/Rc663/phKeyStore_Rc663.o
 .bss           0x00000000        0x0 build/default/production/NxpNfcRdLib/comps/phKeyStore/src/Rc663/phKeyStore_Rc663.o
 .reginfo       0x00000000       0x18 build/default/production/NxpNfcRdLib/comps/phKeyStore/src/Rc663/phKeyStore_Rc663.o
 .text          0x00000000        0x0 build/default/production/NxpNfcRdLib/comps/phKeyStore/src/Sw/phKeyStore_Sw.o
 .data          0x00000000        0x0 build/default/production/NxpNfcRdLib/comps/phKeyStore/src/Sw/phKeyStore_Sw.o
 .bss           0x00000000        0x0 build/default/production/NxpNfcRdLib/comps/phKeyStore/src/Sw/phKeyStore_Sw.o
 .reginfo       0x00000000       0x18 build/default/production/NxpNfcRdLib/comps/phKeyStore/src/Sw/phKeyStore_Sw.o
 .text.phKeyStore_Sw_Init
                0x00000000      0x1f4 build/default/production/NxpNfcRdLib/comps/phKeyStore/src/Sw/phKeyStore_Sw.o
 .text.phKeyStore_Sw_FormatKeyEntry
                0x00000000      0x154 build/default/production/NxpNfcRdLib/comps/phKeyStore/src/Sw/phKeyStore_Sw.o
 .text.phKeyStore_Sw_SetKey
                0x00000000       0xf4 build/default/production/NxpNfcRdLib/comps/phKeyStore/src/Sw/phKeyStore_Sw.o
 .text.phKeyStore_Sw_SetKeyAtPos
                0x00000000       0xf4 build/default/production/NxpNfcRdLib/comps/phKeyStore/src/Sw/phKeyStore_Sw.o
 .text.phKeyStore_Sw_SetKUC
                0x00000000       0x9c build/default/production/NxpNfcRdLib/comps/phKeyStore/src/Sw/phKeyStore_Sw.o
 .text.phKeyStore_Sw_SetFullKeyEntry
                0x00000000      0x1e4 build/default/production/NxpNfcRdLib/comps/phKeyStore/src/Sw/phKeyStore_Sw.o
 .text.phKeyStore_Sw_GetKeyEntry
                0x00000000      0x124 build/default/production/NxpNfcRdLib/comps/phKeyStore/src/Sw/phKeyStore_Sw.o
 .text.phKeyStore_Sw_GetKey
                0x00000000      0x154 build/default/production/NxpNfcRdLib/comps/phKeyStore/src/Sw/phKeyStore_Sw.o
 .text.phKeyStore_Sw_SetConfig
                0x00000000       0x38 build/default/production/NxpNfcRdLib/comps/phKeyStore/src/Sw/phKeyStore_Sw.o
 .text.phKeyStore_Sw_SetConfigStr
                0x00000000       0x3c build/default/production/NxpNfcRdLib/comps/phKeyStore/src/Sw/phKeyStore_Sw.o
 .text.phKeyStore_Sw_GetConfig
                0x00000000       0x34 build/default/production/NxpNfcRdLib/comps/phKeyStore/src/Sw/phKeyStore_Sw.o
 .text.phKeyStore_Sw_GetConfigStr
                0x00000000       0x38 build/default/production/NxpNfcRdLib/comps/phKeyStore/src/Sw/phKeyStore_Sw.o
 .text.phKeyStore_Sw_GetKeyValuePtrPos
                0x00000000       0xc8 build/default/production/NxpNfcRdLib/comps/phKeyStore/src/Sw/phKeyStore_Sw.o
 .text.phKeyStore_Sw_GetKeyValuePtrVersion
                0x00000000      0x114 build/default/production/NxpNfcRdLib/comps/phKeyStore/src/Sw/phKeyStore_Sw.o
 .text.phKeyStore_Sw_CheckUpdateKUC
                0x00000000       0xcc build/default/production/NxpNfcRdLib/comps/phKeyStore/src/Sw/phKeyStore_Sw.o
 .text.phKeyStore_Sw_ChangeKUC
                0x00000000       0x74 build/default/production/NxpNfcRdLib/comps/phKeyStore/src/Sw/phKeyStore_Sw.o
 .text.phKeyStore_Sw_GetKUC
                0x00000000       0x9c build/default/production/NxpNfcRdLib/comps/phKeyStore/src/Sw/phKeyStore_Sw.o
 .text          0x00000000        0x0 build/default/production/NxpNfcRdLib/comps/phKeyStore/src/phKeyStore.o
 .data          0x00000000        0x0 build/default/production/NxpNfcRdLib/comps/phKeyStore/src/phKeyStore.o
 .bss           0x00000000        0x0 build/default/production/NxpNfcRdLib/comps/phKeyStore/src/phKeyStore.o
 .reginfo       0x00000000       0x18 build/default/production/NxpNfcRdLib/comps/phKeyStore/src/phKeyStore.o
 .text.phKeyStore_GetKeySize
                0x00000000       0xb0 build/default/production/NxpNfcRdLib/comps/phKeyStore/src/phKeyStore.o
 .text          0x00000000        0x0 build/default/production/NxpNfcRdLib/comps/phlnLlcp/src/Sw/phlnLlcp_Sw.o
 .data          0x00000000        0x0 build/default/production/NxpNfcRdLib/comps/phlnLlcp/src/Sw/phlnLlcp_Sw.o
 .bss           0x00000000        0x0 build/default/production/NxpNfcRdLib/comps/phlnLlcp/src/Sw/phlnLlcp_Sw.o
 .reginfo       0x00000000       0x18 build/default/production/NxpNfcRdLib/comps/phlnLlcp/src/Sw/phlnLlcp_Sw.o
 .text          0x00000000        0x0 build/default/production/NxpNfcRdLib/comps/phlnLlcp/src/Sw/phlnLlcp_Sw_Int.o
 .data          0x00000000        0x0 build/default/production/NxpNfcRdLib/comps/phlnLlcp/src/Sw/phlnLlcp_Sw_Int.o
 .bss           0x00000000        0x0 build/default/production/NxpNfcRdLib/comps/phlnLlcp/src/Sw/phlnLlcp_Sw_Int.o
 .reginfo       0x00000000       0x18 build/default/production/NxpNfcRdLib/comps/phlnLlcp/src/Sw/phlnLlcp_Sw_Int.o
 .text          0x00000000        0x0 build/default/production/NxpNfcRdLib/comps/phlnLlcp/src/Sw/phlnLlcp_Sw_Mac.o
 .data          0x00000000        0x0 build/default/production/NxpNfcRdLib/comps/phlnLlcp/src/Sw/phlnLlcp_Sw_Mac.o
 .bss           0x00000000        0x0 build/default/production/NxpNfcRdLib/comps/phlnLlcp/src/Sw/phlnLlcp_Sw_Mac.o
 .reginfo       0x00000000       0x18 build/default/production/NxpNfcRdLib/comps/phlnLlcp/src/Sw/phlnLlcp_Sw_Mac.o
 .text          0x00000000        0x0 build/default/production/NxpNfcRdLib/comps/phlnLlcp/src/Sw/phlnLlcp_Sw_Transport.o
 .data          0x00000000        0x0 build/default/production/NxpNfcRdLib/comps/phlnLlcp/src/Sw/phlnLlcp_Sw_Transport.o
 .bss           0x00000000        0x0 build/default/production/NxpNfcRdLib/comps/phlnLlcp/src/Sw/phlnLlcp_Sw_Transport.o
 .reginfo       0x00000000       0x18 build/default/production/NxpNfcRdLib/comps/phlnLlcp/src/Sw/phlnLlcp_Sw_Transport.o
 .text          0x00000000        0x0 build/default/production/NxpNfcRdLib/comps/phlnLlcp/src/Sw/phlnLlcp_Sw_Transport_Connection.o
 .data          0x00000000        0x0 build/default/production/NxpNfcRdLib/comps/phlnLlcp/src/Sw/phlnLlcp_Sw_Transport_Connection.o
 .bss           0x00000000        0x0 build/default/production/NxpNfcRdLib/comps/phlnLlcp/src/Sw/phlnLlcp_Sw_Transport_Connection.o
 .reginfo       0x00000000       0x18 build/default/production/NxpNfcRdLib/comps/phlnLlcp/src/Sw/phlnLlcp_Sw_Transport_Connection.o
 .text          0x00000000        0x0 build/default/production/NxpNfcRdLib/comps/phlnLlcp/src/Sw/phlnLlcp_Sw_Transport_Connectionless.o
 .data          0x00000000        0x0 build/default/production/NxpNfcRdLib/comps/phlnLlcp/src/Sw/phlnLlcp_Sw_Transport_Connectionless.o
 .bss           0x00000000        0x0 build/default/production/NxpNfcRdLib/comps/phlnLlcp/src/Sw/phlnLlcp_Sw_Transport_Connectionless.o
 .reginfo       0x00000000       0x18 build/default/production/NxpNfcRdLib/comps/phlnLlcp/src/Sw/phlnLlcp_Sw_Transport_Connectionless.o
 .text          0x00000000        0x0 build/default/production/NxpNfcRdLib/comps/phlnLlcp/src/Sw/phlnLlcp_Timers.o
 .data          0x00000000        0x0 build/default/production/NxpNfcRdLib/comps/phlnLlcp/src/Sw/phlnLlcp_Timers.o
 .bss           0x00000000        0x0 build/default/production/NxpNfcRdLib/comps/phlnLlcp/src/Sw/phlnLlcp_Timers.o
 .reginfo       0x00000000       0x18 build/default/production/NxpNfcRdLib/comps/phlnLlcp/src/Sw/phlnLlcp_Timers.o
 .text          0x00000000        0x0 build/default/production/NxpNfcRdLib/comps/phlnLlcp/src/phlnLlcp.o
 .data          0x00000000        0x0 build/default/production/NxpNfcRdLib/comps/phlnLlcp/src/phlnLlcp.o
 .bss           0x00000000        0x0 build/default/production/NxpNfcRdLib/comps/phlnLlcp/src/phlnLlcp.o
 .reginfo       0x00000000       0x18 build/default/production/NxpNfcRdLib/comps/phlnLlcp/src/phlnLlcp.o
 .text          0x00000000        0x0 build/default/production/NxpNfcRdLib/comps/phLog/src/phLog.o
 .data          0x00000000        0x0 build/default/production/NxpNfcRdLib/comps/phLog/src/phLog.o
 .bss           0x00000000        0x0 build/default/production/NxpNfcRdLib/comps/phLog/src/phLog.o
 .reginfo       0x00000000       0x18 build/default/production/NxpNfcRdLib/comps/phLog/src/phLog.o
 .text          0x00000000        0x0 build/default/production/NxpNfcRdLib/comps/phNfcLib/src/phNfcLib.o
 .data          0x00000000        0x0 build/default/production/NxpNfcRdLib/comps/phNfcLib/src/phNfcLib.o
 .bss           0x00000000        0x0 build/default/production/NxpNfcRdLib/comps/phNfcLib/src/phNfcLib.o
 .reginfo       0x00000000       0x18 build/default/production/NxpNfcRdLib/comps/phNfcLib/src/phNfcLib.o
 .text          0x00000000        0x0 build/default/production/NxpNfcRdLib/comps/phNfcLib/src/phNfcLib_15693.o
 .data          0x00000000        0x0 build/default/production/NxpNfcRdLib/comps/phNfcLib/src/phNfcLib_15693.o
 .bss           0x00000000        0x0 build/default/production/NxpNfcRdLib/comps/phNfcLib/src/phNfcLib_15693.o
 .reginfo       0x00000000       0x18 build/default/production/NxpNfcRdLib/comps/phNfcLib/src/phNfcLib_15693.o
 .text          0x00000000        0x0 build/default/production/NxpNfcRdLib/comps/phNfcLib/src/phNfcLib_18000p3m3.o
 .data          0x00000000        0x0 build/default/production/NxpNfcRdLib/comps/phNfcLib/src/phNfcLib_18000p3m3.o
 .bss           0x00000000        0x0 build/default/production/NxpNfcRdLib/comps/phNfcLib/src/phNfcLib_18000p3m3.o
 .reginfo       0x00000000       0x18 build/default/production/NxpNfcRdLib/comps/phNfcLib/src/phNfcLib_18000p3m3.o
 .text          0x00000000        0x0 build/default/production/NxpNfcRdLib/comps/phNfcLib/src/phNfcLib_MFC.o
 .data          0x00000000        0x0 build/default/production/NxpNfcRdLib/comps/phNfcLib/src/phNfcLib_MFC.o
 .bss           0x00000000        0x0 build/default/production/NxpNfcRdLib/comps/phNfcLib/src/phNfcLib_MFC.o
 .reginfo       0x00000000       0x18 build/default/production/NxpNfcRdLib/comps/phNfcLib/src/phNfcLib_MFC.o
 .text          0x00000000        0x0 build/default/production/NxpNfcRdLib/comps/phNfcLib/src/phNfcLib_MFDF.o
 .data          0x00000000        0x0 build/default/production/NxpNfcRdLib/comps/phNfcLib/src/phNfcLib_MFDF.o
 .bss           0x00000000        0x0 build/default/production/NxpNfcRdLib/comps/phNfcLib/src/phNfcLib_MFDF.o
 .reginfo       0x00000000       0x18 build/default/production/NxpNfcRdLib/comps/phNfcLib/src/phNfcLib_MFDF.o
 .text          0x00000000        0x0 build/default/production/NxpNfcRdLib/comps/phNfcLib/src/phNfcLib_MFUL.o
 .data          0x00000000        0x0 build/default/production/NxpNfcRdLib/comps/phNfcLib/src/phNfcLib_MFUL.o
 .bss           0x00000000        0x0 build/default/production/NxpNfcRdLib/comps/phNfcLib/src/phNfcLib_MFUL.o
 .reginfo       0x00000000       0x18 build/default/production/NxpNfcRdLib/comps/phNfcLib/src/phNfcLib_MFUL.o
 .text          0x00000000        0x0 build/default/production/NxpNfcRdLib/comps/phNfcLib/src/phNfcLib_Utility.o
 .data          0x00000000        0x0 build/default/production/NxpNfcRdLib/comps/phNfcLib/src/phNfcLib_Utility.o
 .bss           0x00000000        0x0 build/default/production/NxpNfcRdLib/comps/phNfcLib/src/phNfcLib_Utility.o
 .reginfo       0x00000000       0x18 build/default/production/NxpNfcRdLib/comps/phNfcLib/src/phNfcLib_Utility.o
 .text          0x00000000        0x0 build/default/production/NxpNfcRdLib/comps/phnpSnep/src/Sw/phnpSnep_Sw.o
 .data          0x00000000        0x0 build/default/production/NxpNfcRdLib/comps/phnpSnep/src/Sw/phnpSnep_Sw.o
 .bss           0x00000000        0x0 build/default/production/NxpNfcRdLib/comps/phnpSnep/src/Sw/phnpSnep_Sw.o
 .reginfo       0x00000000       0x18 build/default/production/NxpNfcRdLib/comps/phnpSnep/src/Sw/phnpSnep_Sw.o
 .text          0x00000000        0x0 build/default/production/NxpNfcRdLib/comps/phnpSnep/src/phnpSnep.o
 .data          0x00000000        0x0 build/default/production/NxpNfcRdLib/comps/phnpSnep/src/phnpSnep.o
 .bss           0x00000000        0x0 build/default/production/NxpNfcRdLib/comps/phnpSnep/src/phnpSnep.o
 .reginfo       0x00000000       0x18 build/default/production/NxpNfcRdLib/comps/phnpSnep/src/phnpSnep.o
 .text          0x00000000        0x0 build/default/production/NxpNfcRdLib/comps/phOsal/src/Freertos/phOsal_Freertos.o
 .data          0x00000000        0x0 build/default/production/NxpNfcRdLib/comps/phOsal/src/Freertos/phOsal_Freertos.o
 .bss           0x00000000        0x0 build/default/production/NxpNfcRdLib/comps/phOsal/src/Freertos/phOsal_Freertos.o
 .reginfo       0x00000000       0x18 build/default/production/NxpNfcRdLib/comps/phOsal/src/Freertos/phOsal_Freertos.o
 .text          0x00000000        0x0 build/default/production/NxpNfcRdLib/comps/phOsal/src/Linux/phOsal_Linux.o
 .data          0x00000000        0x0 build/default/production/NxpNfcRdLib/comps/phOsal/src/Linux/phOsal_Linux.o
 .bss           0x00000000        0x0 build/default/production/NxpNfcRdLib/comps/phOsal/src/Linux/phOsal_Linux.o
 .reginfo       0x00000000       0x18 build/default/production/NxpNfcRdLib/comps/phOsal/src/Linux/phOsal_Linux.o
 .text          0x00000000        0x0 build/default/production/NxpNfcRdLib/comps/phOsal/src/NullOs/phOsal_NullOs.o
 .data          0x00000000        0x0 build/default/production/NxpNfcRdLib/comps/phOsal/src/NullOs/phOsal_NullOs.o
 .bss           0x00000000        0x0 build/default/production/NxpNfcRdLib/comps/phOsal/src/NullOs/phOsal_NullOs.o
 .reginfo       0x00000000       0x18 build/default/production/NxpNfcRdLib/comps/phOsal/src/NullOs/phOsal_NullOs.o
 .text.phOsal_EventGet
                0x00000000       0x58 build/default/production/NxpNfcRdLib/comps/phOsal/src/NullOs/phOsal_NullOs.o
 .text.phOsal_EventDelete
                0x00000000       0x90 build/default/production/NxpNfcRdLib/comps/phOsal/src/NullOs/phOsal_NullOs.o
 .text.phOsal_TimerCreate
                0x00000000       0xdc build/default/production/NxpNfcRdLib/comps/phOsal/src/NullOs/phOsal_NullOs.o
 .text.phOsal_TimerStart
                0x00000000       0x50 build/default/production/NxpNfcRdLib/comps/phOsal/src/NullOs/phOsal_NullOs.o
 .text.phOsal_TimerStop
                0x00000000       0x40 build/default/production/NxpNfcRdLib/comps/phOsal/src/NullOs/phOsal_NullOs.o
 .text.phOsal_TimerGetCurrent
                0x00000000       0x48 build/default/production/NxpNfcRdLib/comps/phOsal/src/NullOs/phOsal_NullOs.o
 .text.phOsal_TimerModify
                0x00000000       0x58 build/default/production/NxpNfcRdLib/comps/phOsal/src/NullOs/phOsal_NullOs.o
 .text.phOsal_TimerDelete
                0x00000000       0x40 build/default/production/NxpNfcRdLib/comps/phOsal/src/NullOs/phOsal_NullOs.o
 .text.phOsal_ThreadDelete
                0x00000000       0x34 build/default/production/NxpNfcRdLib/comps/phOsal/src/NullOs/phOsal_NullOs.o
 .text.phOsal_ThreadCreate
                0x00000000       0x40 build/default/production/NxpNfcRdLib/comps/phOsal/src/NullOs/phOsal_NullOs.o
 .text.phOsal_ThreadChangePrio
                0x00000000       0x38 build/default/production/NxpNfcRdLib/comps/phOsal/src/NullOs/phOsal_NullOs.o
 .text.phOsal_ThreadExit
                0x00000000       0x30 build/default/production/NxpNfcRdLib/comps/phOsal/src/NullOs/phOsal_NullOs.o
 .text.phOsal_ThreadDelay
                0x00000000       0x34 build/default/production/NxpNfcRdLib/comps/phOsal/src/NullOs/phOsal_NullOs.o
 .text.phOsal_SemCreate
                0x00000000       0x3c build/default/production/NxpNfcRdLib/comps/phOsal/src/NullOs/phOsal_NullOs.o
 .text.phOsal_SemPend
                0x00000000       0x3c build/default/production/NxpNfcRdLib/comps/phOsal/src/NullOs/phOsal_NullOs.o
 .text.phOsal_SemPost
                0x00000000       0x38 build/default/production/NxpNfcRdLib/comps/phOsal/src/NullOs/phOsal_NullOs.o
 .text.phOsal_SemDelete
                0x00000000       0x34 build/default/production/NxpNfcRdLib/comps/phOsal/src/NullOs/phOsal_NullOs.o
 .text.phOsal_MutexCreate
                0x00000000       0x38 build/default/production/NxpNfcRdLib/comps/phOsal/src/NullOs/phOsal_NullOs.o
 .text.phOsal_MutexLock
                0x00000000       0x3c build/default/production/NxpNfcRdLib/comps/phOsal/src/NullOs/phOsal_NullOs.o
 .text.phOsal_MutexUnLock
                0x00000000       0x34 build/default/production/NxpNfcRdLib/comps/phOsal/src/NullOs/phOsal_NullOs.o
 .text.phOsal_MutexDelete
                0x00000000       0x34 build/default/production/NxpNfcRdLib/comps/phOsal/src/NullOs/phOsal_NullOs.o
 .text.phOsal_StartScheduler
                0x00000000       0x24 build/default/production/NxpNfcRdLib/comps/phOsal/src/NullOs/phOsal_NullOs.o
 .text.phOsal_NullOs_ReturnUnsupportedCmd
                0x00000000       0x24 build/default/production/NxpNfcRdLib/comps/phOsal/src/NullOs/phOsal_NullOs.o
 .text          0x00000000        0x0 build/default/production/NxpNfcRdLib/comps/phpalEpcUid/src/Sw/phpalEpcUid_Sw.o
 .data          0x00000000        0x0 build/default/production/NxpNfcRdLib/comps/phpalEpcUid/src/Sw/phpalEpcUid_Sw.o
 .bss           0x00000000        0x0 build/default/production/NxpNfcRdLib/comps/phpalEpcUid/src/Sw/phpalEpcUid_Sw.o
 .reginfo       0x00000000       0x18 build/default/production/NxpNfcRdLib/comps/phpalEpcUid/src/Sw/phpalEpcUid_Sw.o
 .text          0x00000000        0x0 build/default/production/NxpNfcRdLib/comps/phpalEpcUid/src/phpalEpcUid.o
 .data          0x00000000        0x0 build/default/production/NxpNfcRdLib/comps/phpalEpcUid/src/phpalEpcUid.o
 .bss           0x00000000        0x0 build/default/production/NxpNfcRdLib/comps/phpalEpcUid/src/phpalEpcUid.o
 .reginfo       0x00000000       0x18 build/default/production/NxpNfcRdLib/comps/phpalEpcUid/src/phpalEpcUid.o
 .text          0x00000000        0x0 build/default/production/NxpNfcRdLib/comps/phpalFelica/src/Sw/phpalFelica_Sw.o
 .data          0x00000000        0x0 build/default/production/NxpNfcRdLib/comps/phpalFelica/src/Sw/phpalFelica_Sw.o
 .bss           0x00000000        0x0 build/default/production/NxpNfcRdLib/comps/phpalFelica/src/Sw/phpalFelica_Sw.o
 .reginfo       0x00000000       0x18 build/default/production/NxpNfcRdLib/comps/phpalFelica/src/Sw/phpalFelica_Sw.o
 .text          0x00000000        0x0 build/default/production/NxpNfcRdLib/comps/phpalFelica/src/phpalFelica.o
 .data          0x00000000        0x0 build/default/production/NxpNfcRdLib/comps/phpalFelica/src/phpalFelica.o
 .bss           0x00000000        0x0 build/default/production/NxpNfcRdLib/comps/phpalFelica/src/phpalFelica.o
 .reginfo       0x00000000       0x18 build/default/production/NxpNfcRdLib/comps/phpalFelica/src/phpalFelica.o
 .text          0x00000000        0x0 build/default/production/NxpNfcRdLib/comps/phpalI14443p3a/src/Sw/phpalI14443p3a_Sw.o
 .data          0x00000000        0x0 build/default/production/NxpNfcRdLib/comps/phpalI14443p3a/src/Sw/phpalI14443p3a_Sw.o
 .bss           0x00000000        0x0 build/default/production/NxpNfcRdLib/comps/phpalI14443p3a/src/Sw/phpalI14443p3a_Sw.o
 .reginfo       0x00000000       0x18 build/default/production/NxpNfcRdLib/comps/phpalI14443p3a/src/Sw/phpalI14443p3a_Sw.o
 .text.phpalI14443p3a_Sw_GetConfig
                0x00000000       0xe8 build/default/production/NxpNfcRdLib/comps/phpalI14443p3a/src/Sw/phpalI14443p3a_Sw.o
 .text.phpalI14443p3a_Sw_Exchange
                0x00000000       0x74 build/default/production/NxpNfcRdLib/comps/phpalI14443p3a/src/Sw/phpalI14443p3a_Sw.o
 .text          0x00000000        0x0 build/default/production/NxpNfcRdLib/comps/phpalI14443p3a/src/phpalI14443p3a.o
 .data          0x00000000        0x0 build/default/production/NxpNfcRdLib/comps/phpalI14443p3a/src/phpalI14443p3a.o
 .bss           0x00000000        0x0 build/default/production/NxpNfcRdLib/comps/phpalI14443p3a/src/phpalI14443p3a.o
 .reginfo       0x00000000       0x18 build/default/production/NxpNfcRdLib/comps/phpalI14443p3a/src/phpalI14443p3a.o
 .text          0x00000000        0x0 build/default/production/NxpNfcRdLib/comps/phpalI14443p3b/src/Sw/phpalI14443p3b_Sw.o
 .data          0x00000000        0x0 build/default/production/NxpNfcRdLib/comps/phpalI14443p3b/src/Sw/phpalI14443p3b_Sw.o
 .bss           0x00000000        0x0 build/default/production/NxpNfcRdLib/comps/phpalI14443p3b/src/Sw/phpalI14443p3b_Sw.o
 .reginfo       0x00000000       0x18 build/default/production/NxpNfcRdLib/comps/phpalI14443p3b/src/Sw/phpalI14443p3b_Sw.o
 .text          0x00000000        0x0 build/default/production/NxpNfcRdLib/comps/phpalI14443p3b/src/phpalI14443p3b.o
 .data          0x00000000        0x0 build/default/production/NxpNfcRdLib/comps/phpalI14443p3b/src/phpalI14443p3b.o
 .bss           0x00000000        0x0 build/default/production/NxpNfcRdLib/comps/phpalI14443p3b/src/phpalI14443p3b.o
 .reginfo       0x00000000       0x18 build/default/production/NxpNfcRdLib/comps/phpalI14443p3b/src/phpalI14443p3b.o
 .text          0x00000000        0x0 build/default/production/NxpNfcRdLib/comps/phpalI14443p4/src/Sw/phpalI14443p4_Sw.o
 .data          0x00000000        0x0 build/default/production/NxpNfcRdLib/comps/phpalI14443p4/src/Sw/phpalI14443p4_Sw.o
 .bss           0x00000000        0x0 build/default/production/NxpNfcRdLib/comps/phpalI14443p4/src/Sw/phpalI14443p4_Sw.o
 .reginfo       0x00000000       0x18 build/default/production/NxpNfcRdLib/comps/phpalI14443p4/src/Sw/phpalI14443p4_Sw.o
 .text.phpalI14443p4_Sw_PresCheck
                0x00000000      0x158 build/default/production/NxpNfcRdLib/comps/phpalI14443p4/src/Sw/phpalI14443p4_Sw.o
 .text.phpalI14443p4_Sw_GetConfig
                0x00000000      0x1c8 build/default/production/NxpNfcRdLib/comps/phpalI14443p4/src/Sw/phpalI14443p4_Sw.o
 .text          0x00000000        0x0 build/default/production/NxpNfcRdLib/comps/phpalI14443p4/src/phpalI14443p4.o
 .data          0x00000000        0x0 build/default/production/NxpNfcRdLib/comps/phpalI14443p4/src/phpalI14443p4.o
 .bss           0x00000000        0x0 build/default/production/NxpNfcRdLib/comps/phpalI14443p4/src/phpalI14443p4.o
 .reginfo       0x00000000       0x18 build/default/production/NxpNfcRdLib/comps/phpalI14443p4/src/phpalI14443p4.o
 .text          0x00000000        0x0 build/default/production/NxpNfcRdLib/comps/phpalI14443p4a/src/Sw/phpalI14443p4a_Sw.o
 .data          0x00000000        0x0 build/default/production/NxpNfcRdLib/comps/phpalI14443p4a/src/Sw/phpalI14443p4a_Sw.o
 .bss           0x00000000        0x0 build/default/production/NxpNfcRdLib/comps/phpalI14443p4a/src/Sw/phpalI14443p4a_Sw.o
 .reginfo       0x00000000       0x18 build/default/production/NxpNfcRdLib/comps/phpalI14443p4a/src/Sw/phpalI14443p4a_Sw.o
 .text          0x00000000        0x0 build/default/production/NxpNfcRdLib/comps/phpalI14443p4a/src/phpalI14443p4a.o
 .data          0x00000000        0x0 build/default/production/NxpNfcRdLib/comps/phpalI14443p4a/src/phpalI14443p4a.o
 .bss           0x00000000        0x0 build/default/production/NxpNfcRdLib/comps/phpalI14443p4a/src/phpalI14443p4a.o
 .reginfo       0x00000000       0x18 build/default/production/NxpNfcRdLib/comps/phpalI14443p4a/src/phpalI14443p4a.o
 .text          0x00000000        0x0 build/default/production/NxpNfcRdLib/comps/phpalI14443p4mC/src/Sw/phpalI14443p4mC_Sw.o
 .data          0x00000000        0x0 build/default/production/NxpNfcRdLib/comps/phpalI14443p4mC/src/Sw/phpalI14443p4mC_Sw.o
 .bss           0x00000000        0x0 build/default/production/NxpNfcRdLib/comps/phpalI14443p4mC/src/Sw/phpalI14443p4mC_Sw.o
 .reginfo       0x00000000       0x18 build/default/production/NxpNfcRdLib/comps/phpalI14443p4mC/src/Sw/phpalI14443p4mC_Sw.o
 .text          0x00000000        0x0 build/default/production/NxpNfcRdLib/comps/phpalI14443p4mC/src/Sw/phpalI14443p4mC_Sw_Int.o
 .data          0x00000000        0x0 build/default/production/NxpNfcRdLib/comps/phpalI14443p4mC/src/Sw/phpalI14443p4mC_Sw_Int.o
 .bss           0x00000000        0x0 build/default/production/NxpNfcRdLib/comps/phpalI14443p4mC/src/Sw/phpalI14443p4mC_Sw_Int.o
 .reginfo       0x00000000       0x18 build/default/production/NxpNfcRdLib/comps/phpalI14443p4mC/src/Sw/phpalI14443p4mC_Sw_Int.o
 .text          0x00000000        0x0 build/default/production/NxpNfcRdLib/comps/phpalI14443p4mC/src/phpalI14443p4mC.o
 .data          0x00000000        0x0 build/default/production/NxpNfcRdLib/comps/phpalI14443p4mC/src/phpalI14443p4mC.o
 .bss           0x00000000        0x0 build/default/production/NxpNfcRdLib/comps/phpalI14443p4mC/src/phpalI14443p4mC.o
 .reginfo       0x00000000       0x18 build/default/production/NxpNfcRdLib/comps/phpalI14443p4mC/src/phpalI14443p4mC.o
 .text          0x00000000        0x0 build/default/production/NxpNfcRdLib/comps/phpalI18000p3m3/src/Sw/phpalI18000p3m3_Sw.o
 .data          0x00000000        0x0 build/default/production/NxpNfcRdLib/comps/phpalI18000p3m3/src/Sw/phpalI18000p3m3_Sw.o
 .bss           0x00000000        0x0 build/default/production/NxpNfcRdLib/comps/phpalI18000p3m3/src/Sw/phpalI18000p3m3_Sw.o
 .reginfo       0x00000000       0x18 build/default/production/NxpNfcRdLib/comps/phpalI18000p3m3/src/Sw/phpalI18000p3m3_Sw.o
 .text          0x00000000        0x0 build/default/production/NxpNfcRdLib/comps/phpalI18000p3m3/src/phpalI18000p3m3.o
 .data          0x00000000        0x0 build/default/production/NxpNfcRdLib/comps/phpalI18000p3m3/src/phpalI18000p3m3.o
 .bss           0x00000000        0x0 build/default/production/NxpNfcRdLib/comps/phpalI18000p3m3/src/phpalI18000p3m3.o
 .reginfo       0x00000000       0x18 build/default/production/NxpNfcRdLib/comps/phpalI18000p3m3/src/phpalI18000p3m3.o
 .text          0x00000000        0x0 build/default/production/NxpNfcRdLib/comps/phpalI18092mPI/src/Sw/phpalI18092mPI_Sw.o
 .data          0x00000000        0x0 build/default/production/NxpNfcRdLib/comps/phpalI18092mPI/src/Sw/phpalI18092mPI_Sw.o
 .bss           0x00000000        0x0 build/default/production/NxpNfcRdLib/comps/phpalI18092mPI/src/Sw/phpalI18092mPI_Sw.o
 .reginfo       0x00000000       0x18 build/default/production/NxpNfcRdLib/comps/phpalI18092mPI/src/Sw/phpalI18092mPI_Sw.o
 .text          0x00000000        0x0 build/default/production/NxpNfcRdLib/comps/phpalI18092mPI/src/Sw/phpalI18092mPI_Sw_Int.o
 .data          0x00000000        0x0 build/default/production/NxpNfcRdLib/comps/phpalI18092mPI/src/Sw/phpalI18092mPI_Sw_Int.o
 .bss           0x00000000        0x0 build/default/production/NxpNfcRdLib/comps/phpalI18092mPI/src/Sw/phpalI18092mPI_Sw_Int.o
 .reginfo       0x00000000       0x18 build/default/production/NxpNfcRdLib/comps/phpalI18092mPI/src/Sw/phpalI18092mPI_Sw_Int.o
 .text          0x00000000        0x0 build/default/production/NxpNfcRdLib/comps/phpalI18092mPI/src/phpalI18092mPI.o
 .data          0x00000000        0x0 build/default/production/NxpNfcRdLib/comps/phpalI18092mPI/src/phpalI18092mPI.o
 .bss           0x00000000        0x0 build/default/production/NxpNfcRdLib/comps/phpalI18092mPI/src/phpalI18092mPI.o
 .reginfo       0x00000000       0x18 build/default/production/NxpNfcRdLib/comps/phpalI18092mPI/src/phpalI18092mPI.o
 .text          0x00000000        0x0 build/default/production/NxpNfcRdLib/comps/phpalI18092mT/src/Sw/phpalI18092mT_Sw.o
 .data          0x00000000        0x0 build/default/production/NxpNfcRdLib/comps/phpalI18092mT/src/Sw/phpalI18092mT_Sw.o
 .bss           0x00000000        0x0 build/default/production/NxpNfcRdLib/comps/phpalI18092mT/src/Sw/phpalI18092mT_Sw.o
 .reginfo       0x00000000       0x18 build/default/production/NxpNfcRdLib/comps/phpalI18092mT/src/Sw/phpalI18092mT_Sw.o
 .text          0x00000000        0x0 build/default/production/NxpNfcRdLib/comps/phpalI18092mT/src/Sw/phpalI18092mT_Sw_Int.o
 .data          0x00000000        0x0 build/default/production/NxpNfcRdLib/comps/phpalI18092mT/src/Sw/phpalI18092mT_Sw_Int.o
 .bss           0x00000000        0x0 build/default/production/NxpNfcRdLib/comps/phpalI18092mT/src/Sw/phpalI18092mT_Sw_Int.o
 .reginfo       0x00000000       0x18 build/default/production/NxpNfcRdLib/comps/phpalI18092mT/src/Sw/phpalI18092mT_Sw_Int.o
 .text          0x00000000        0x0 build/default/production/NxpNfcRdLib/comps/phpalI18092mT/src/phpalI18092mT.o
 .data          0x00000000        0x0 build/default/production/NxpNfcRdLib/comps/phpalI18092mT/src/phpalI18092mT.o
 .bss           0x00000000        0x0 build/default/production/NxpNfcRdLib/comps/phpalI18092mT/src/phpalI18092mT.o
 .reginfo       0x00000000       0x18 build/default/production/NxpNfcRdLib/comps/phpalI18092mT/src/phpalI18092mT.o
 .text          0x00000000        0x0 build/default/production/NxpNfcRdLib/comps/phpalMifare/src/Sw/phpalMifare_Sw.o
 .data          0x00000000        0x0 build/default/production/NxpNfcRdLib/comps/phpalMifare/src/Sw/phpalMifare_Sw.o
 .bss           0x00000000        0x0 build/default/production/NxpNfcRdLib/comps/phpalMifare/src/Sw/phpalMifare_Sw.o
 .reginfo       0x00000000       0x18 build/default/production/NxpNfcRdLib/comps/phpalMifare/src/Sw/phpalMifare_Sw.o
 .text.phpalMifare_Sw_ExchangePc
                0x00000000      0x524 build/default/production/NxpNfcRdLib/comps/phpalMifare/src/Sw/phpalMifare_Sw.o
 .text.phpalMifare_Sw_ExchangeRaw
                0x00000000      0x2d8 build/default/production/NxpNfcRdLib/comps/phpalMifare/src/Sw/phpalMifare_Sw.o
 .text.phpalMifare_Sw_MfcAuthenticateKeyNo
                0x00000000       0xe4 build/default/production/NxpNfcRdLib/comps/phpalMifare/src/Sw/phpalMifare_Sw.o
 .text.phpalMifare_Sw_SetMinFdtPc
                0x00000000       0x74 build/default/production/NxpNfcRdLib/comps/phpalMifare/src/Sw/phpalMifare_Sw.o
 .text          0x00000000        0x0 build/default/production/NxpNfcRdLib/comps/phpalMifare/src/phpalMifare.o
 .data          0x00000000        0x0 build/default/production/NxpNfcRdLib/comps/phpalMifare/src/phpalMifare.o
 .bss           0x00000000        0x0 build/default/production/NxpNfcRdLib/comps/phpalMifare/src/phpalMifare.o
 .reginfo       0x00000000       0x18 build/default/production/NxpNfcRdLib/comps/phpalMifare/src/phpalMifare.o
 .text          0x00000000        0x0 build/default/production/NxpNfcRdLib/comps/phpalSli15693/src/Sw/phpalSli15693_Sw.o
 .data          0x00000000        0x0 build/default/production/NxpNfcRdLib/comps/phpalSli15693/src/Sw/phpalSli15693_Sw.o
 .bss           0x00000000        0x0 build/default/production/NxpNfcRdLib/comps/phpalSli15693/src/Sw/phpalSli15693_Sw.o
 .reginfo       0x00000000       0x18 build/default/production/NxpNfcRdLib/comps/phpalSli15693/src/Sw/phpalSli15693_Sw.o
 .text          0x00000000        0x0 build/default/production/NxpNfcRdLib/comps/phpalSli15693/src/phpalSli15693.o
 .data          0x00000000        0x0 build/default/production/NxpNfcRdLib/comps/phpalSli15693/src/phpalSli15693.o
 .bss           0x00000000        0x0 build/default/production/NxpNfcRdLib/comps/phpalSli15693/src/phpalSli15693.o
 .reginfo       0x00000000       0x18 build/default/production/NxpNfcRdLib/comps/phpalSli15693/src/phpalSli15693.o
 .text          0x00000000        0x0 build/default/production/NxpNfcRdLib/comps/phPlatform/src/Port/K81/phPlatform_Port_K81.o
 .data          0x00000000        0x0 build/default/production/NxpNfcRdLib/comps/phPlatform/src/Port/K81/phPlatform_Port_K81.o
 .bss           0x00000000        0x0 build/default/production/NxpNfcRdLib/comps/phPlatform/src/Port/K81/phPlatform_Port_K81.o
 .reginfo       0x00000000       0x18 build/default/production/NxpNfcRdLib/comps/phPlatform/src/Port/K81/phPlatform_Port_K81.o
 .text          0x00000000        0x0 build/default/production/NxpNfcRdLib/comps/phPlatform/src/Port/K81/phPlatform_Port_KinetisTimer.o
 .data          0x00000000        0x0 build/default/production/NxpNfcRdLib/comps/phPlatform/src/Port/K81/phPlatform_Port_KinetisTimer.o
 .bss           0x00000000        0x0 build/default/production/NxpNfcRdLib/comps/phPlatform/src/Port/K81/phPlatform_Port_KinetisTimer.o
 .reginfo       0x00000000       0x18 build/default/production/NxpNfcRdLib/comps/phPlatform/src/Port/K81/phPlatform_Port_KinetisTimer.o
 .text          0x00000000        0x0 build/default/production/NxpNfcRdLib/comps/phPlatform/src/Port/K82/phPlatform_Port_K82.o
 .data          0x00000000        0x0 build/default/production/NxpNfcRdLib/comps/phPlatform/src/Port/K82/phPlatform_Port_K82.o
 .bss           0x00000000        0x0 build/default/production/NxpNfcRdLib/comps/phPlatform/src/Port/K82/phPlatform_Port_K82.o
 .reginfo       0x00000000       0x18 build/default/production/NxpNfcRdLib/comps/phPlatform/src/Port/K82/phPlatform_Port_K82.o
 .text          0x00000000        0x0 build/default/production/NxpNfcRdLib/comps/phPlatform/src/Port/K82/phPlatform_Port_K82Timer.o
 .data          0x00000000        0x0 build/default/production/NxpNfcRdLib/comps/phPlatform/src/Port/K82/phPlatform_Port_K82Timer.o
 .bss           0x00000000        0x0 build/default/production/NxpNfcRdLib/comps/phPlatform/src/Port/K82/phPlatform_Port_K82Timer.o
 .reginfo       0x00000000       0x18 build/default/production/NxpNfcRdLib/comps/phPlatform/src/Port/K82/phPlatform_Port_K82Timer.o
 .text          0x00000000        0x0 build/default/production/NxpNfcRdLib/comps/phPlatform/src/Port/LPC11u68/cr_startup_lpc11u6x.o
 .data          0x00000000        0x0 build/default/production/NxpNfcRdLib/comps/phPlatform/src/Port/LPC11u68/cr_startup_lpc11u6x.o
 .bss           0x00000000        0x0 build/default/production/NxpNfcRdLib/comps/phPlatform/src/Port/LPC11u68/cr_startup_lpc11u6x.o
 .reginfo       0x00000000       0x18 build/default/production/NxpNfcRdLib/comps/phPlatform/src/Port/LPC11u68/cr_startup_lpc11u6x.o
 .text          0x00000000        0x0 build/default/production/NxpNfcRdLib/comps/phPlatform/src/Port/LPC11u68/phPlatform_Port_LPC11u68.o
 .data          0x00000000        0x0 build/default/production/NxpNfcRdLib/comps/phPlatform/src/Port/LPC11u68/phPlatform_Port_LPC11u68.o
 .bss           0x00000000        0x0 build/default/production/NxpNfcRdLib/comps/phPlatform/src/Port/LPC11u68/phPlatform_Port_LPC11u68.o
 .reginfo       0x00000000       0x18 build/default/production/NxpNfcRdLib/comps/phPlatform/src/Port/LPC11u68/phPlatform_Port_LPC11u68.o
 .text          0x00000000        0x0 build/default/production/NxpNfcRdLib/comps/phPlatform/src/Port/LPC1769/cr_startup_lpc175x_6x.o
 .data          0x00000000        0x0 build/default/production/NxpNfcRdLib/comps/phPlatform/src/Port/LPC1769/cr_startup_lpc175x_6x.o
 .bss           0x00000000        0x0 build/default/production/NxpNfcRdLib/comps/phPlatform/src/Port/LPC1769/cr_startup_lpc175x_6x.o
 .reginfo       0x00000000       0x18 build/default/production/NxpNfcRdLib/comps/phPlatform/src/Port/LPC1769/cr_startup_lpc175x_6x.o
 .text          0x00000000        0x0 build/default/production/NxpNfcRdLib/comps/phPlatform/src/Port/LPC1769/keil_iar_sysinit.o
 .data          0x00000000        0x0 build/default/production/NxpNfcRdLib/comps/phPlatform/src/Port/LPC1769/keil_iar_sysinit.o
 .bss           0x00000000        0x0 build/default/production/NxpNfcRdLib/comps/phPlatform/src/Port/LPC1769/keil_iar_sysinit.o
 .reginfo       0x00000000       0x18 build/default/production/NxpNfcRdLib/comps/phPlatform/src/Port/LPC1769/keil_iar_sysinit.o
 .text          0x00000000        0x0 build/default/production/NxpNfcRdLib/comps/phPlatform/src/Port/LPC1769/phPlatform_Port_LPC1769.o
 .data          0x00000000        0x0 build/default/production/NxpNfcRdLib/comps/phPlatform/src/Port/LPC1769/phPlatform_Port_LPC1769.o
 .bss           0x00000000        0x0 build/default/production/NxpNfcRdLib/comps/phPlatform/src/Port/LPC1769/phPlatform_Port_LPC1769.o
 .reginfo       0x00000000       0x18 build/default/production/NxpNfcRdLib/comps/phPlatform/src/Port/LPC1769/phPlatform_Port_LPC1769.o
 .text          0x00000000        0x0 build/default/production/NxpNfcRdLib/comps/phPlatform/src/Port/LPCTimer/phPlatform_Port_LPCTimer.o
 .data          0x00000000        0x0 build/default/production/NxpNfcRdLib/comps/phPlatform/src/Port/LPCTimer/phPlatform_Port_LPCTimer.o
 .bss           0x00000000        0x0 build/default/production/NxpNfcRdLib/comps/phPlatform/src/Port/LPCTimer/phPlatform_Port_LPCTimer.o
 .reginfo       0x00000000       0x18 build/default/production/NxpNfcRdLib/comps/phPlatform/src/Port/LPCTimer/phPlatform_Port_LPCTimer.o
 .text          0x00000000        0x0 build/default/production/NxpNfcRdLib/comps/phPlatform/src/Port/PIC32MX/phPlatform_Port_PIC32MX.o
 .data          0x00000000        0x0 build/default/production/NxpNfcRdLib/comps/phPlatform/src/Port/PIC32MX/phPlatform_Port_PIC32MX.o
 .bss           0x00000000        0x0 build/default/production/NxpNfcRdLib/comps/phPlatform/src/Port/PIC32MX/phPlatform_Port_PIC32MX.o
 .reginfo       0x00000000       0x18 build/default/production/NxpNfcRdLib/comps/phPlatform/src/Port/PIC32MX/phPlatform_Port_PIC32MX.o
 .text.phPlatform_Controller_Init
                0x00000000       0x24 build/default/production/NxpNfcRdLib/comps/phPlatform/src/Port/PIC32MX/phPlatform_Port_PIC32MX.o
 .text          0x00000000        0x0 build/default/production/NxpNfcRdLib/comps/phPlatform/src/Port/PIC32MX/phPlatform_Port_PIC32MXTimer.o
 .data          0x00000000        0x0 build/default/production/NxpNfcRdLib/comps/phPlatform/src/Port/PIC32MX/phPlatform_Port_PIC32MXTimer.o
 .bss           0x00000000        0x0 build/default/production/NxpNfcRdLib/comps/phPlatform/src/Port/PIC32MX/phPlatform_Port_PIC32MXTimer.o
 .reginfo       0x00000000       0x18 build/default/production/NxpNfcRdLib/comps/phPlatform/src/Port/PIC32MX/phPlatform_Port_PIC32MXTimer.o
 .text.phPlatform_Port_Host_HwTimer_Create
                0x00000000       0x34 build/default/production/NxpNfcRdLib/comps/phPlatform/src/Port/PIC32MX/phPlatform_Port_PIC32MXTimer.o
 .text.phPlatform_Port_Host_HwTimer_Configure
                0x00000000       0x30 build/default/production/NxpNfcRdLib/comps/phPlatform/src/Port/PIC32MX/phPlatform_Port_PIC32MXTimer.o
 .text.phPlatform_Port_Host_HwTimer_Start
                0x00000000       0x50 build/default/production/NxpNfcRdLib/comps/phPlatform/src/Port/PIC32MX/phPlatform_Port_PIC32MXTimer.o
 .text.phPlatform_Port_Host_HwTimer_GetElapsedDelay
                0x00000000       0x50 build/default/production/NxpNfcRdLib/comps/phPlatform/src/Port/PIC32MX/phPlatform_Port_PIC32MXTimer.o
 .text.phPlatform_Port_Host_HwTimer_Stop
                0x00000000       0x38 build/default/production/NxpNfcRdLib/comps/phPlatform/src/Port/PIC32MX/phPlatform_Port_PIC32MXTimer.o
 .text.phPlatform_Port_Host_HwTimer_Reset
                0x00000000       0x50 build/default/production/NxpNfcRdLib/comps/phPlatform/src/Port/PIC32MX/phPlatform_Port_PIC32MXTimer.o
 .text.phPlatform_Port_Host_HwTimer_Delete
                0x00000000       0x28 build/default/production/NxpNfcRdLib/comps/phPlatform/src/Port/PIC32MX/phPlatform_Port_PIC32MXTimer.o
 .text.phPlatform_Port_Host_HwTimer_DeInit
                0x00000000       0x20 build/default/production/NxpNfcRdLib/comps/phPlatform/src/Port/PIC32MX/phPlatform_Port_PIC32MXTimer.o
 .text.phPlatform_ConfigTick
                0x00000000       0x20 build/default/production/NxpNfcRdLib/comps/phPlatform/src/Port/PIC32MX/phPlatform_Port_PIC32MXTimer.o
 .text.TIMER0_IRQHandler
                0x00000000       0x20 build/default/production/NxpNfcRdLib/comps/phPlatform/src/Port/PIC32MX/phPlatform_Port_PIC32MXTimer.o
 .text.TIMER1_IRQHandler
                0x00000000       0x20 build/default/production/NxpNfcRdLib/comps/phPlatform/src/Port/PIC32MX/phPlatform_Port_PIC32MXTimer.o
 .text.TIMER2_IRQHandler
                0x00000000       0x20 build/default/production/NxpNfcRdLib/comps/phPlatform/src/Port/PIC32MX/phPlatform_Port_PIC32MXTimer.o
 .text.TIMER3_IRQHandler
                0x00000000       0x20 build/default/production/NxpNfcRdLib/comps/phPlatform/src/Port/PIC32MX/phPlatform_Port_PIC32MXTimer.o
 .text          0x00000000        0x0 build/default/production/NxpNfcRdLib/comps/phPlatform/src/Port/PN7462AU/phPlatform_Port_PN7462AU.o
 .data          0x00000000        0x0 build/default/production/NxpNfcRdLib/comps/phPlatform/src/Port/PN7462AU/phPlatform_Port_PN7462AU.o
 .bss           0x00000000        0x0 build/default/production/NxpNfcRdLib/comps/phPlatform/src/Port/PN7462AU/phPlatform_Port_PN7462AU.o
 .reginfo       0x00000000       0x18 build/default/production/NxpNfcRdLib/comps/phPlatform/src/Port/PN7462AU/phPlatform_Port_PN7462AU.o
 .text          0x00000000        0x0 build/default/production/NxpNfcRdLib/comps/phPlatform/src/Port/RaspberryPi/phPlatform_Port_Pi.o
 .data          0x00000000        0x0 build/default/production/NxpNfcRdLib/comps/phPlatform/src/Port/RaspberryPi/phPlatform_Port_Pi.o
 .bss           0x00000000        0x0 build/default/production/NxpNfcRdLib/comps/phPlatform/src/Port/RaspberryPi/phPlatform_Port_Pi.o
 .reginfo       0x00000000       0x18 build/default/production/NxpNfcRdLib/comps/phPlatform/src/Port/RaspberryPi/phPlatform_Port_Pi.o
 .text          0x00000000        0x0 build/default/production/NxpNfcRdLib/comps/phPlatform/src/Port/RaspberryPi/phPlatform_Port_PiGpio.o
 .data          0x00000000        0x0 build/default/production/NxpNfcRdLib/comps/phPlatform/src/Port/RaspberryPi/phPlatform_Port_PiGpio.o
 .bss           0x00000000        0x0 build/default/production/NxpNfcRdLib/comps/phPlatform/src/Port/RaspberryPi/phPlatform_Port_PiGpio.o
 .reginfo       0x00000000       0x18 build/default/production/NxpNfcRdLib/comps/phPlatform/src/Port/RaspberryPi/phPlatform_Port_PiGpio.o
 .text          0x00000000        0x0 build/default/production/NxpNfcRdLib/comps/phPlatform/src/phPlatform.o
 .data          0x00000000        0x0 build/default/production/NxpNfcRdLib/comps/phPlatform/src/phPlatform.o
 .bss           0x00000000        0x0 build/default/production/NxpNfcRdLib/comps/phPlatform/src/phPlatform.o
 .reginfo       0x00000000       0x18 build/default/production/NxpNfcRdLib/comps/phPlatform/src/phPlatform.o
 .text.phPlatform_DeInit
                0x00000000       0x68 build/default/production/NxpNfcRdLib/comps/phPlatform/src/phPlatform.o
 .text.phPlatform_FE_Powerdown
                0x00000000       0x70 build/default/production/NxpNfcRdLib/comps/phPlatform/src/phPlatform.o
 .text.phPlatform_Timer_Create
                0x00000000      0x1c4 build/default/production/NxpNfcRdLib/comps/phPlatform/src/phPlatform.o
 .text.phPlatform_Timer_Configure
                0x00000000       0x64 build/default/production/NxpNfcRdLib/comps/phPlatform/src/phPlatform.o
 .text.phPlatform_Timer_Start
                0x00000000       0x70 build/default/production/NxpNfcRdLib/comps/phPlatform/src/phPlatform.o
 .text.phPlatform_Timer_GetElapsedDelay
                0x00000000       0x54 build/default/production/NxpNfcRdLib/comps/phPlatform/src/phPlatform.o
 .text.phPlatform_Timer_Stop
                0x00000000       0x60 build/default/production/NxpNfcRdLib/comps/phPlatform/src/phPlatform.o
 .text.phPlatform_Timer_Reset
                0x00000000       0x60 build/default/production/NxpNfcRdLib/comps/phPlatform/src/phPlatform.o
 .text.phPlatform_Timer_Delete
                0x00000000       0x64 build/default/production/NxpNfcRdLib/comps/phPlatform/src/phPlatform.o
 .text.phPlatform_Timer_DeInit
                0x00000000       0x94 build/default/production/NxpNfcRdLib/comps/phPlatform/src/phPlatform.o
 .text.phPlatform_Timer_IsrHandler
                0x00000000       0x80 build/default/production/NxpNfcRdLib/comps/phPlatform/src/phPlatform.o
 .text          0x00000000        0x0 build/default/production/NxpNfcRdLib/comps/phTools/src/phTools.o
 .data          0x00000000        0x0 build/default/production/NxpNfcRdLib/comps/phTools/src/phTools.o
 .bss           0x00000000        0x0 build/default/production/NxpNfcRdLib/comps/phTools/src/phTools.o
 .reginfo       0x00000000       0x18 build/default/production/NxpNfcRdLib/comps/phTools/src/phTools.o
 .text.phTools_EncodeParity
                0x00000000      0x40c build/default/production/NxpNfcRdLib/comps/phTools/src/phTools.o
 .text.phTools_CalculateCrc5
                0x00000000      0x330 build/default/production/NxpNfcRdLib/comps/phTools/src/phTools.o
 .text.phTools_CalculateCrc8
                0x00000000      0x2cc build/default/production/NxpNfcRdLib/comps/phTools/src/phTools.o
 .text.phTools_CalculateCrc32
                0x00000000      0x260 build/default/production/NxpNfcRdLib/comps/phTools/src/phTools.o
 .rodata        0x00000000       0x28 build/default/production/NxpNfcRdLib/comps/phTools/src/phTools.o
 .text.phTools_GetVersion
                0x00000000      0x110 build/default/production/NxpNfcRdLib/comps/phTools/src/phTools.o
 .text          0x00000000        0x0 build/default/production/NxpNfcRdLib/comps/phTools/src/phTools_Q.o
 .data          0x00000000        0x0 build/default/production/NxpNfcRdLib/comps/phTools/src/phTools_Q.o
 .bss           0x00000000        0x0 build/default/production/NxpNfcRdLib/comps/phTools/src/phTools_Q.o
 .reginfo       0x00000000       0x18 build/default/production/NxpNfcRdLib/comps/phTools/src/phTools_Q.o
 .bss.gphTools_Q_Mutex.gphTools_Q_Mutex
                0x00000000        0xc build/default/production/NxpNfcRdLib/comps/phTools/src/phTools_Q.o
 .bss.gphTools_Q_MsgMutex.gphTools_Q_MsgMutex
                0x00000000        0xc build/default/production/NxpNfcRdLib/comps/phTools/src/phTools_Q.o
 .bss.gphTools_Q_MsgSema.gphTools_Q_MsgSema
                0x00000000       0x14 build/default/production/NxpNfcRdLib/comps/phTools/src/phTools_Q.o
 .bss.gsphTools_Q_Pool.gsphTools_Q_Pool
                0x00000000      0x140 build/default/production/NxpNfcRdLib/comps/phTools/src/phTools_Q.o
 .rodata.bToolsxSemaName.bToolsxSemaName
                0x00000000        0xc build/default/production/NxpNfcRdLib/comps/phTools/src/phTools_Q.o
 .text.phTools_Q_Init
                0x00000000      0x1d4 build/default/production/NxpNfcRdLib/comps/phTools/src/phTools_Q.o
 .text.phTools_Q_Receive
                0x00000000       0x94 build/default/production/NxpNfcRdLib/comps/phTools/src/phTools_Q.o
 .text.phTools_Q_Get
                0x00000000       0x80 build/default/production/NxpNfcRdLib/comps/phTools/src/phTools_Q.o
 .text.phTools_Q_PopInt
                0x00000000      0x150 build/default/production/NxpNfcRdLib/comps/phTools/src/phTools_Q.o
 .text.phTools_Q_Release
                0x00000000      0x104 build/default/production/NxpNfcRdLib/comps/phTools/src/phTools_Q.o
 .text.phTools_Q_SendInt
                0x00000000      0x184 build/default/production/NxpNfcRdLib/comps/phTools/src/phTools_Q.o
 .text.phTools_Q_Send
                0x00000000       0x54 build/default/production/NxpNfcRdLib/comps/phTools/src/phTools_Q.o
 .text.phTools_Q_SendFront
                0x00000000       0x54 build/default/production/NxpNfcRdLib/comps/phTools/src/phTools_Q.o
 .text.phTools_Q_Push
                0x00000000       0xd0 build/default/production/NxpNfcRdLib/comps/phTools/src/phTools_Q.o
 .text.phTools_Q_DeInit
                0x00000000       0xa8 build/default/production/NxpNfcRdLib/comps/phTools/src/phTools_Q.o
 .text          0x00000000        0x0 build/default/production/main.o
 .data          0x00000000        0x0 build/default/production/main.o
 .bss           0x00000000        0x0 build/default/production/main.o
 .reginfo       0x00000000       0x18 build/default/production/main.o
 .rodata.clearCardInfo.clearCardInfo
                0x00000000       0x2c build/default/production/main.o
 .text.MFC_test
                0x00000000       0xfc build/default/production/main.o
 .text.MFDF_test
                0x00000000      0x234 build/default/production/main.o
 .text.setEEPROM_Values
                0x00000000      0x764 build/default/production/main.o
 .text          0x00000000        0x0 c:/program files (x86)/microchip/xc32/v2.05/bin/bin/../../lib/gcc/pic32mx/4.8.3/../../../../pic32mx/lib/./proc/32MX150F128D\default_isr_vectors.o
 .data          0x00000000        0x0 c:/program files (x86)/microchip/xc32/v2.05/bin/bin/../../lib/gcc/pic32mx/4.8.3/../../../../pic32mx/lib/./proc/32MX150F128D\default_isr_vectors.o
 .bss           0x00000000        0x0 c:/program files (x86)/microchip/xc32/v2.05/bin/bin/../../lib/gcc/pic32mx/4.8.3/../../../../pic32mx/lib/./proc/32MX150F128D\default_isr_vectors.o
 .reginfo       0x00000000       0x18 c:/program files (x86)/microchip/xc32/v2.05/bin/bin/../../lib/gcc/pic32mx/4.8.3/../../../../pic32mx/lib/./proc/32MX150F128D\default_isr_vectors.o
 .discard       0x00000000       0xb0 c:/program files (x86)/microchip/xc32/v2.05/bin/bin/../../lib/gcc/pic32mx/4.8.3/../../../../pic32mx/lib/./proc/32MX150F128D\default_isr_vectors.o
 .data          0x00000000        0x0 c:/program files (x86)/microchip/xc32/v2.05/bin/bin/../../lib/gcc/pic32mx/4.8.3/../../../../pic32mx/lib\pic32_software_reset.o
 .bss           0x00000000        0x0 c:/program files (x86)/microchip/xc32/v2.05/bin/bin/../../lib/gcc/pic32mx/4.8.3/../../../../pic32mx/lib\pic32_software_reset.o
 .reginfo       0x00000000       0x18 c:/program files (x86)/microchip/xc32/v2.05/bin/bin/../../lib/gcc/pic32mx/4.8.3/../../../../pic32mx/lib\pic32_software_reset.o
 .text          0x00000000        0x0 c:/program files (x86)/microchip/xc32/v2.05/bin/bin/../../lib/gcc/pic32mx/4.8.3/../../../../pic32mx/lib/./proc/32MX150F128D\processor.o
 .data          0x00000000        0x0 c:/program files (x86)/microchip/xc32/v2.05/bin/bin/../../lib/gcc/pic32mx/4.8.3/../../../../pic32mx/lib/./proc/32MX150F128D\processor.o
 .bss           0x00000000        0x0 c:/program files (x86)/microchip/xc32/v2.05/bin/bin/../../lib/gcc/pic32mx/4.8.3/../../../../pic32mx/lib/./proc/32MX150F128D\processor.o
 .reginfo       0x00000000       0x18 c:/program files (x86)/microchip/xc32/v2.05/bin/bin/../../lib/gcc/pic32mx/4.8.3/../../../../pic32mx/lib/./proc/32MX150F128D\processor.o
 .data          0x00000000        0x0 c:/program files (x86)/microchip/xc32/v2.05/bin/bin/../../lib/gcc/pic32mx/4.8.3\libgcc.a(floatunsisf.o)
 .bss           0x00000000        0x0 c:/program files (x86)/microchip/xc32/v2.05/bin/bin/../../lib/gcc/pic32mx/4.8.3\libgcc.a(floatunsisf.o)
 .reginfo       0x00000000       0x18 c:/program files (x86)/microchip/xc32/v2.05/bin/bin/../../lib/gcc/pic32mx/4.8.3\libgcc.a(floatunsisf.o)
 .data          0x00000000        0x0 c:/program files (x86)/microchip/xc32/v2.05/bin/bin/../../lib/gcc/pic32mx/4.8.3/../../../../pic32mx/lib\libpic32.a(memcmp.o)
 .bss           0x00000000        0x0 c:/program files (x86)/microchip/xc32/v2.05/bin/bin/../../lib/gcc/pic32mx/4.8.3/../../../../pic32mx/lib\libpic32.a(memcmp.o)
 .reginfo       0x00000000       0x18 c:/program files (x86)/microchip/xc32/v2.05/bin/bin/../../lib/gcc/pic32mx/4.8.3/../../../../pic32mx/lib\libpic32.a(memcmp.o)
 .data          0x00000000        0x0 c:/program files (x86)/microchip/xc32/v2.05/bin/bin/../../lib/gcc/pic32mx/4.8.3/../../../../pic32mx/lib\libpic32.a(memcpy.o)
 .bss           0x00000000        0x0 c:/program files (x86)/microchip/xc32/v2.05/bin/bin/../../lib/gcc/pic32mx/4.8.3/../../../../pic32mx/lib\libpic32.a(memcpy.o)
 .reginfo       0x00000000       0x18 c:/program files (x86)/microchip/xc32/v2.05/bin/bin/../../lib/gcc/pic32mx/4.8.3/../../../../pic32mx/lib\libpic32.a(memcpy.o)
 .data          0x00000000        0x0 c:/program files (x86)/microchip/xc32/v2.05/bin/bin/../../lib/gcc/pic32mx/4.8.3/../../../../pic32mx/lib\libpic32.a(memset.o)
 .bss           0x00000000        0x0 c:/program files (x86)/microchip/xc32/v2.05/bin/bin/../../lib/gcc/pic32mx/4.8.3/../../../../pic32mx/lib\libpic32.a(memset.o)
 .reginfo       0x00000000       0x18 c:/program files (x86)/microchip/xc32/v2.05/bin/bin/../../lib/gcc/pic32mx/4.8.3/../../../../pic32mx/lib\libpic32.a(memset.o)
 .data          0x00000000        0x0 c:/program files (x86)/microchip/xc32/v2.05/bin/bin/../../lib/gcc/pic32mx/4.8.3/../../../../pic32mx/lib\libpic32.a(strcpy.o)
 .bss           0x00000000        0x0 c:/program files (x86)/microchip/xc32/v2.05/bin/bin/../../lib/gcc/pic32mx/4.8.3/../../../../pic32mx/lib\libpic32.a(strcpy.o)
 .reginfo       0x00000000       0x18 c:/program files (x86)/microchip/xc32/v2.05/bin/bin/../../lib/gcc/pic32mx/4.8.3/../../../../pic32mx/lib\libpic32.a(strcpy.o)
 .text          0x00000000        0x0 c:/program files (x86)/microchip/xc32/v2.05/bin/bin/../../lib/gcc/pic32mx/4.8.3/../../../../pic32mx/lib\libpic32.a(default-bootstrap-exception-handler.o)
 .data          0x00000000        0x0 c:/program files (x86)/microchip/xc32/v2.05/bin/bin/../../lib/gcc/pic32mx/4.8.3/../../../../pic32mx/lib\libpic32.a(default-bootstrap-exception-handler.o)
 .bss           0x00000000        0x0 c:/program files (x86)/microchip/xc32/v2.05/bin/bin/../../lib/gcc/pic32mx/4.8.3/../../../../pic32mx/lib\libpic32.a(default-bootstrap-exception-handler.o)
 .reginfo       0x00000000       0x18 c:/program files (x86)/microchip/xc32/v2.05/bin/bin/../../lib/gcc/pic32mx/4.8.3/../../../../pic32mx/lib\libpic32.a(default-bootstrap-exception-handler.o)
 .text          0x00000000        0x0 c:/program files (x86)/microchip/xc32/v2.05/bin/bin/../../lib/gcc/pic32mx/4.8.3/../../../../pic32mx/lib\libpic32.a(default-on-reset.o)
 .data          0x00000000        0x0 c:/program files (x86)/microchip/xc32/v2.05/bin/bin/../../lib/gcc/pic32mx/4.8.3/../../../../pic32mx/lib\libpic32.a(default-on-reset.o)
 .bss           0x00000000        0x0 c:/program files (x86)/microchip/xc32/v2.05/bin/bin/../../lib/gcc/pic32mx/4.8.3/../../../../pic32mx/lib\libpic32.a(default-on-reset.o)
 .reginfo       0x00000000       0x18 c:/program files (x86)/microchip/xc32/v2.05/bin/bin/../../lib/gcc/pic32mx/4.8.3/../../../../pic32mx/lib\libpic32.a(default-on-reset.o)
 .text          0x00000000        0x0 c:/program files (x86)/microchip/xc32/v2.05/bin/bin/../../lib/gcc/pic32mx/4.8.3/../../../../pic32mx/lib\libpic32.a(default-on-bootstrap.o)
 .data          0x00000000        0x0 c:/program files (x86)/microchip/xc32/v2.05/bin/bin/../../lib/gcc/pic32mx/4.8.3/../../../../pic32mx/lib\libpic32.a(default-on-bootstrap.o)
 .bss           0x00000000        0x0 c:/program files (x86)/microchip/xc32/v2.05/bin/bin/../../lib/gcc/pic32mx/4.8.3/../../../../pic32mx/lib\libpic32.a(default-on-bootstrap.o)
 .reginfo       0x00000000       0x18 c:/program files (x86)/microchip/xc32/v2.05/bin/bin/../../lib/gcc/pic32mx/4.8.3/../../../../pic32mx/lib\libpic32.a(default-on-bootstrap.o)
 .data          0x00000000        0x0 c:/program files (x86)/microchip/xc32/v2.05/bin/bin/../../lib/gcc/pic32mx/4.8.3/../../../../pic32mx/lib\libpic32.a(default-nmi-handler.o)
 .bss           0x00000000        0x0 c:/program files (x86)/microchip/xc32/v2.05/bin/bin/../../lib/gcc/pic32mx/4.8.3/../../../../pic32mx/lib\libpic32.a(default-nmi-handler.o)
 .reginfo       0x00000000       0x18 c:/program files (x86)/microchip/xc32/v2.05/bin/bin/../../lib/gcc/pic32mx/4.8.3/../../../../pic32mx/lib\libpic32.a(default-nmi-handler.o)
 .text          0x00000000        0x0 c:/program files (x86)/microchip/xc32/v2.05/bin/bin/../../lib/gcc/pic32mx/4.8.3/../../../../pic32mx/lib\libpic32.a(general-exception.o)
 .data          0x00000000        0x0 c:/program files (x86)/microchip/xc32/v2.05/bin/bin/../../lib/gcc/pic32mx/4.8.3/../../../../pic32mx/lib\libpic32.a(general-exception.o)
 .bss           0x00000000        0x0 c:/program files (x86)/microchip/xc32/v2.05/bin/bin/../../lib/gcc/pic32mx/4.8.3/../../../../pic32mx/lib\libpic32.a(general-exception.o)
 .reginfo       0x00000000       0x18 c:/program files (x86)/microchip/xc32/v2.05/bin/bin/../../lib/gcc/pic32mx/4.8.3/../../../../pic32mx/lib\libpic32.a(general-exception.o)
 .text          0x00000000        0x0 c:/program files (x86)/microchip/xc32/v2.05/bin/bin/../../lib/gcc/pic32mx/4.8.3/../../../../pic32mx/lib\libpic32.a(vector0.o)
 .data          0x00000000        0x0 c:/program files (x86)/microchip/xc32/v2.05/bin/bin/../../lib/gcc/pic32mx/4.8.3/../../../../pic32mx/lib\libpic32.a(vector0.o)
 .bss           0x00000000        0x0 c:/program files (x86)/microchip/xc32/v2.05/bin/bin/../../lib/gcc/pic32mx/4.8.3/../../../../pic32mx/lib\libpic32.a(vector0.o)
 .reginfo       0x00000000       0x18 c:/program files (x86)/microchip/xc32/v2.05/bin/bin/../../lib/gcc/pic32mx/4.8.3/../../../../pic32mx/lib\libpic32.a(vector0.o)
 .text          0x00000000        0x0 c:/program files (x86)/microchip/xc32/v2.05/bin/bin/../../lib/gcc/pic32mx/4.8.3/../../../../pic32mx/lib\libpic32.a(vector1.o)
 .data          0x00000000        0x0 c:/program files (x86)/microchip/xc32/v2.05/bin/bin/../../lib/gcc/pic32mx/4.8.3/../../../../pic32mx/lib\libpic32.a(vector1.o)
 .bss           0x00000000        0x0 c:/program files (x86)/microchip/xc32/v2.05/bin/bin/../../lib/gcc/pic32mx/4.8.3/../../../../pic32mx/lib\libpic32.a(vector1.o)
 .reginfo       0x00000000       0x18 c:/program files (x86)/microchip/xc32/v2.05/bin/bin/../../lib/gcc/pic32mx/4.8.3/../../../../pic32mx/lib\libpic32.a(vector1.o)
 .text          0x00000000        0x0 c:/program files (x86)/microchip/xc32/v2.05/bin/bin/../../lib/gcc/pic32mx/4.8.3/../../../../pic32mx/lib\libpic32.a(vector2.o)
 .data          0x00000000        0x0 c:/program files (x86)/microchip/xc32/v2.05/bin/bin/../../lib/gcc/pic32mx/4.8.3/../../../../pic32mx/lib\libpic32.a(vector2.o)
 .bss           0x00000000        0x0 c:/program files (x86)/microchip/xc32/v2.05/bin/bin/../../lib/gcc/pic32mx/4.8.3/../../../../pic32mx/lib\libpic32.a(vector2.o)
 .reginfo       0x00000000       0x18 c:/program files (x86)/microchip/xc32/v2.05/bin/bin/../../lib/gcc/pic32mx/4.8.3/../../../../pic32mx/lib\libpic32.a(vector2.o)
 .text          0x00000000        0x0 c:/program files (x86)/microchip/xc32/v2.05/bin/bin/../../lib/gcc/pic32mx/4.8.3/../../../../pic32mx/lib\libpic32.a(vector3.o)
 .data          0x00000000        0x0 c:/program files (x86)/microchip/xc32/v2.05/bin/bin/../../lib/gcc/pic32mx/4.8.3/../../../../pic32mx/lib\libpic32.a(vector3.o)
 .bss           0x00000000        0x0 c:/program files (x86)/microchip/xc32/v2.05/bin/bin/../../lib/gcc/pic32mx/4.8.3/../../../../pic32mx/lib\libpic32.a(vector3.o)
 .reginfo       0x00000000       0x18 c:/program files (x86)/microchip/xc32/v2.05/bin/bin/../../lib/gcc/pic32mx/4.8.3/../../../../pic32mx/lib\libpic32.a(vector3.o)
 .text          0x00000000        0x0 c:/program files (x86)/microchip/xc32/v2.05/bin/bin/../../lib/gcc/pic32mx/4.8.3/../../../../pic32mx/lib\libpic32.a(vector5.o)
 .data          0x00000000        0x0 c:/program files (x86)/microchip/xc32/v2.05/bin/bin/../../lib/gcc/pic32mx/4.8.3/../../../../pic32mx/lib\libpic32.a(vector5.o)
 .bss           0x00000000        0x0 c:/program files (x86)/microchip/xc32/v2.05/bin/bin/../../lib/gcc/pic32mx/4.8.3/../../../../pic32mx/lib\libpic32.a(vector5.o)
 .reginfo       0x00000000       0x18 c:/program files (x86)/microchip/xc32/v2.05/bin/bin/../../lib/gcc/pic32mx/4.8.3/../../../../pic32mx/lib\libpic32.a(vector5.o)
 .text          0x00000000        0x0 c:/program files (x86)/microchip/xc32/v2.05/bin/bin/../../lib/gcc/pic32mx/4.8.3/../../../../pic32mx/lib\libpic32.a(vector6.o)
 .data          0x00000000        0x0 c:/program files (x86)/microchip/xc32/v2.05/bin/bin/../../lib/gcc/pic32mx/4.8.3/../../../../pic32mx/lib\libpic32.a(vector6.o)
 .bss           0x00000000        0x0 c:/program files (x86)/microchip/xc32/v2.05/bin/bin/../../lib/gcc/pic32mx/4.8.3/../../../../pic32mx/lib\libpic32.a(vector6.o)
 .reginfo       0x00000000       0x18 c:/program files (x86)/microchip/xc32/v2.05/bin/bin/../../lib/gcc/pic32mx/4.8.3/../../../../pic32mx/lib\libpic32.a(vector6.o)
 .text          0x00000000        0x0 c:/program files (x86)/microchip/xc32/v2.05/bin/bin/../../lib/gcc/pic32mx/4.8.3/../../../../pic32mx/lib\libpic32.a(vector7.o)
 .data          0x00000000        0x0 c:/program files (x86)/microchip/xc32/v2.05/bin/bin/../../lib/gcc/pic32mx/4.8.3/../../../../pic32mx/lib\libpic32.a(vector7.o)
 .bss           0x00000000        0x0 c:/program files (x86)/microchip/xc32/v2.05/bin/bin/../../lib/gcc/pic32mx/4.8.3/../../../../pic32mx/lib\libpic32.a(vector7.o)
 .reginfo       0x00000000       0x18 c:/program files (x86)/microchip/xc32/v2.05/bin/bin/../../lib/gcc/pic32mx/4.8.3/../../../../pic32mx/lib\libpic32.a(vector7.o)
 .text          0x00000000        0x0 c:/program files (x86)/microchip/xc32/v2.05/bin/bin/../../lib/gcc/pic32mx/4.8.3/../../../../pic32mx/lib\libpic32.a(vector9.o)
 .data          0x00000000        0x0 c:/program files (x86)/microchip/xc32/v2.05/bin/bin/../../lib/gcc/pic32mx/4.8.3/../../../../pic32mx/lib\libpic32.a(vector9.o)
 .bss           0x00000000        0x0 c:/program files (x86)/microchip/xc32/v2.05/bin/bin/../../lib/gcc/pic32mx/4.8.3/../../../../pic32mx/lib\libpic32.a(vector9.o)
 .reginfo       0x00000000       0x18 c:/program files (x86)/microchip/xc32/v2.05/bin/bin/../../lib/gcc/pic32mx/4.8.3/../../../../pic32mx/lib\libpic32.a(vector9.o)
 .text          0x00000000        0x0 c:/program files (x86)/microchip/xc32/v2.05/bin/bin/../../lib/gcc/pic32mx/4.8.3/../../../../pic32mx/lib\libpic32.a(vector10.o)
 .data          0x00000000        0x0 c:/program files (x86)/microchip/xc32/v2.05/bin/bin/../../lib/gcc/pic32mx/4.8.3/../../../../pic32mx/lib\libpic32.a(vector10.o)
 .bss           0x00000000        0x0 c:/program files (x86)/microchip/xc32/v2.05/bin/bin/../../lib/gcc/pic32mx/4.8.3/../../../../pic32mx/lib\libpic32.a(vector10.o)
 .reginfo       0x00000000       0x18 c:/program files (x86)/microchip/xc32/v2.05/bin/bin/../../lib/gcc/pic32mx/4.8.3/../../../../pic32mx/lib\libpic32.a(vector10.o)
 .text          0x00000000        0x0 c:/program files (x86)/microchip/xc32/v2.05/bin/bin/../../lib/gcc/pic32mx/4.8.3/../../../../pic32mx/lib\libpic32.a(vector11.o)
 .data          0x00000000        0x0 c:/program files (x86)/microchip/xc32/v2.05/bin/bin/../../lib/gcc/pic32mx/4.8.3/../../../../pic32mx/lib\libpic32.a(vector11.o)
 .bss           0x00000000        0x0 c:/program files (x86)/microchip/xc32/v2.05/bin/bin/../../lib/gcc/pic32mx/4.8.3/../../../../pic32mx/lib\libpic32.a(vector11.o)
 .reginfo       0x00000000       0x18 c:/program files (x86)/microchip/xc32/v2.05/bin/bin/../../lib/gcc/pic32mx/4.8.3/../../../../pic32mx/lib\libpic32.a(vector11.o)
 .text          0x00000000        0x0 c:/program files (x86)/microchip/xc32/v2.05/bin/bin/../../lib/gcc/pic32mx/4.8.3/../../../../pic32mx/lib\libpic32.a(vector12.o)
 .data          0x00000000        0x0 c:/program files (x86)/microchip/xc32/v2.05/bin/bin/../../lib/gcc/pic32mx/4.8.3/../../../../pic32mx/lib\libpic32.a(vector12.o)
 .bss           0x00000000        0x0 c:/program files (x86)/microchip/xc32/v2.05/bin/bin/../../lib/gcc/pic32mx/4.8.3/../../../../pic32mx/lib\libpic32.a(vector12.o)
 .reginfo       0x00000000       0x18 c:/program files (x86)/microchip/xc32/v2.05/bin/bin/../../lib/gcc/pic32mx/4.8.3/../../../../pic32mx/lib\libpic32.a(vector12.o)
 .text          0x00000000        0x0 c:/program files (x86)/microchip/xc32/v2.05/bin/bin/../../lib/gcc/pic32mx/4.8.3/../../../../pic32mx/lib\libpic32.a(vector13.o)
 .data          0x00000000        0x0 c:/program files (x86)/microchip/xc32/v2.05/bin/bin/../../lib/gcc/pic32mx/4.8.3/../../../../pic32mx/lib\libpic32.a(vector13.o)
 .bss           0x00000000        0x0 c:/program files (x86)/microchip/xc32/v2.05/bin/bin/../../lib/gcc/pic32mx/4.8.3/../../../../pic32mx/lib\libpic32.a(vector13.o)
 .reginfo       0x00000000       0x18 c:/program files (x86)/microchip/xc32/v2.05/bin/bin/../../lib/gcc/pic32mx/4.8.3/../../../../pic32mx/lib\libpic32.a(vector13.o)
 .text          0x00000000        0x0 c:/program files (x86)/microchip/xc32/v2.05/bin/bin/../../lib/gcc/pic32mx/4.8.3/../../../../pic32mx/lib\libpic32.a(vector14.o)
 .data          0x00000000        0x0 c:/program files (x86)/microchip/xc32/v2.05/bin/bin/../../lib/gcc/pic32mx/4.8.3/../../../../pic32mx/lib\libpic32.a(vector14.o)
 .bss           0x00000000        0x0 c:/program files (x86)/microchip/xc32/v2.05/bin/bin/../../lib/gcc/pic32mx/4.8.3/../../../../pic32mx/lib\libpic32.a(vector14.o)
 .reginfo       0x00000000       0x18 c:/program files (x86)/microchip/xc32/v2.05/bin/bin/../../lib/gcc/pic32mx/4.8.3/../../../../pic32mx/lib\libpic32.a(vector14.o)
 .text          0x00000000        0x0 c:/program files (x86)/microchip/xc32/v2.05/bin/bin/../../lib/gcc/pic32mx/4.8.3/../../../../pic32mx/lib\libpic32.a(vector15.o)
 .data          0x00000000        0x0 c:/program files (x86)/microchip/xc32/v2.05/bin/bin/../../lib/gcc/pic32mx/4.8.3/../../../../pic32mx/lib\libpic32.a(vector15.o)
 .bss           0x00000000        0x0 c:/program files (x86)/microchip/xc32/v2.05/bin/bin/../../lib/gcc/pic32mx/4.8.3/../../../../pic32mx/lib\libpic32.a(vector15.o)
 .reginfo       0x00000000       0x18 c:/program files (x86)/microchip/xc32/v2.05/bin/bin/../../lib/gcc/pic32mx/4.8.3/../../../../pic32mx/lib\libpic32.a(vector15.o)
 .text          0x00000000        0x0 c:/program files (x86)/microchip/xc32/v2.05/bin/bin/../../lib/gcc/pic32mx/4.8.3/../../../../pic32mx/lib\libpic32.a(vector16.o)
 .data          0x00000000        0x0 c:/program files (x86)/microchip/xc32/v2.05/bin/bin/../../lib/gcc/pic32mx/4.8.3/../../../../pic32mx/lib\libpic32.a(vector16.o)
 .bss           0x00000000        0x0 c:/program files (x86)/microchip/xc32/v2.05/bin/bin/../../lib/gcc/pic32mx/4.8.3/../../../../pic32mx/lib\libpic32.a(vector16.o)
 .reginfo       0x00000000       0x18 c:/program files (x86)/microchip/xc32/v2.05/bin/bin/../../lib/gcc/pic32mx/4.8.3/../../../../pic32mx/lib\libpic32.a(vector16.o)
 .text          0x00000000        0x0 c:/program files (x86)/microchip/xc32/v2.05/bin/bin/../../lib/gcc/pic32mx/4.8.3/../../../../pic32mx/lib\libpic32.a(vector17.o)
 .data          0x00000000        0x0 c:/program files (x86)/microchip/xc32/v2.05/bin/bin/../../lib/gcc/pic32mx/4.8.3/../../../../pic32mx/lib\libpic32.a(vector17.o)
 .bss           0x00000000        0x0 c:/program files (x86)/microchip/xc32/v2.05/bin/bin/../../lib/gcc/pic32mx/4.8.3/../../../../pic32mx/lib\libpic32.a(vector17.o)
 .reginfo       0x00000000       0x18 c:/program files (x86)/microchip/xc32/v2.05/bin/bin/../../lib/gcc/pic32mx/4.8.3/../../../../pic32mx/lib\libpic32.a(vector17.o)
 .text          0x00000000        0x0 c:/program files (x86)/microchip/xc32/v2.05/bin/bin/../../lib/gcc/pic32mx/4.8.3/../../../../pic32mx/lib\libpic32.a(vector18.o)
 .data          0x00000000        0x0 c:/program files (x86)/microchip/xc32/v2.05/bin/bin/../../lib/gcc/pic32mx/4.8.3/../../../../pic32mx/lib\libpic32.a(vector18.o)
 .bss           0x00000000        0x0 c:/program files (x86)/microchip/xc32/v2.05/bin/bin/../../lib/gcc/pic32mx/4.8.3/../../../../pic32mx/lib\libpic32.a(vector18.o)
 .reginfo       0x00000000       0x18 c:/program files (x86)/microchip/xc32/v2.05/bin/bin/../../lib/gcc/pic32mx/4.8.3/../../../../pic32mx/lib\libpic32.a(vector18.o)
 .text          0x00000000        0x0 c:/program files (x86)/microchip/xc32/v2.05/bin/bin/../../lib/gcc/pic32mx/4.8.3/../../../../pic32mx/lib\libpic32.a(vector19.o)
 .data          0x00000000        0x0 c:/program files (x86)/microchip/xc32/v2.05/bin/bin/../../lib/gcc/pic32mx/4.8.3/../../../../pic32mx/lib\libpic32.a(vector19.o)
 .bss           0x00000000        0x0 c:/program files (x86)/microchip/xc32/v2.05/bin/bin/../../lib/gcc/pic32mx/4.8.3/../../../../pic32mx/lib\libpic32.a(vector19.o)
 .reginfo       0x00000000       0x18 c:/program files (x86)/microchip/xc32/v2.05/bin/bin/../../lib/gcc/pic32mx/4.8.3/../../../../pic32mx/lib\libpic32.a(vector19.o)
 .text          0x00000000        0x0 c:/program files (x86)/microchip/xc32/v2.05/bin/bin/../../lib/gcc/pic32mx/4.8.3/../../../../pic32mx/lib\libpic32.a(vector20.o)
 .data          0x00000000        0x0 c:/program files (x86)/microchip/xc32/v2.05/bin/bin/../../lib/gcc/pic32mx/4.8.3/../../../../pic32mx/lib\libpic32.a(vector20.o)
 .bss           0x00000000        0x0 c:/program files (x86)/microchip/xc32/v2.05/bin/bin/../../lib/gcc/pic32mx/4.8.3/../../../../pic32mx/lib\libpic32.a(vector20.o)
 .reginfo       0x00000000       0x18 c:/program files (x86)/microchip/xc32/v2.05/bin/bin/../../lib/gcc/pic32mx/4.8.3/../../../../pic32mx/lib\libpic32.a(vector20.o)
 .text          0x00000000        0x0 c:/program files (x86)/microchip/xc32/v2.05/bin/bin/../../lib/gcc/pic32mx/4.8.3/../../../../pic32mx/lib\libpic32.a(vector21.o)
 .data          0x00000000        0x0 c:/program files (x86)/microchip/xc32/v2.05/bin/bin/../../lib/gcc/pic32mx/4.8.3/../../../../pic32mx/lib\libpic32.a(vector21.o)
 .bss           0x00000000        0x0 c:/program files (x86)/microchip/xc32/v2.05/bin/bin/../../lib/gcc/pic32mx/4.8.3/../../../../pic32mx/lib\libpic32.a(vector21.o)
 .reginfo       0x00000000       0x18 c:/program files (x86)/microchip/xc32/v2.05/bin/bin/../../lib/gcc/pic32mx/4.8.3/../../../../pic32mx/lib\libpic32.a(vector21.o)
 .text          0x00000000        0x0 c:/program files (x86)/microchip/xc32/v2.05/bin/bin/../../lib/gcc/pic32mx/4.8.3/../../../../pic32mx/lib\libpic32.a(vector22.o)
 .data          0x00000000        0x0 c:/program files (x86)/microchip/xc32/v2.05/bin/bin/../../lib/gcc/pic32mx/4.8.3/../../../../pic32mx/lib\libpic32.a(vector22.o)
 .bss           0x00000000        0x0 c:/program files (x86)/microchip/xc32/v2.05/bin/bin/../../lib/gcc/pic32mx/4.8.3/../../../../pic32mx/lib\libpic32.a(vector22.o)
 .reginfo       0x00000000       0x18 c:/program files (x86)/microchip/xc32/v2.05/bin/bin/../../lib/gcc/pic32mx/4.8.3/../../../../pic32mx/lib\libpic32.a(vector22.o)
 .text          0x00000000        0x0 c:/program files (x86)/microchip/xc32/v2.05/bin/bin/../../lib/gcc/pic32mx/4.8.3/../../../../pic32mx/lib\libpic32.a(vector24.o)
 .data          0x00000000        0x0 c:/program files (x86)/microchip/xc32/v2.05/bin/bin/../../lib/gcc/pic32mx/4.8.3/../../../../pic32mx/lib\libpic32.a(vector24.o)
 .bss           0x00000000        0x0 c:/program files (x86)/microchip/xc32/v2.05/bin/bin/../../lib/gcc/pic32mx/4.8.3/../../../../pic32mx/lib\libpic32.a(vector24.o)
 .reginfo       0x00000000       0x18 c:/program files (x86)/microchip/xc32/v2.05/bin/bin/../../lib/gcc/pic32mx/4.8.3/../../../../pic32mx/lib\libpic32.a(vector24.o)
 .text          0x00000000        0x0 c:/program files (x86)/microchip/xc32/v2.05/bin/bin/../../lib/gcc/pic32mx/4.8.3/../../../../pic32mx/lib\libpic32.a(vector25.o)
 .data          0x00000000        0x0 c:/program files (x86)/microchip/xc32/v2.05/bin/bin/../../lib/gcc/pic32mx/4.8.3/../../../../pic32mx/lib\libpic32.a(vector25.o)
 .bss           0x00000000        0x0 c:/program files (x86)/microchip/xc32/v2.05/bin/bin/../../lib/gcc/pic32mx/4.8.3/../../../../pic32mx/lib\libpic32.a(vector25.o)
 .reginfo       0x00000000       0x18 c:/program files (x86)/microchip/xc32/v2.05/bin/bin/../../lib/gcc/pic32mx/4.8.3/../../../../pic32mx/lib\libpic32.a(vector25.o)
 .text          0x00000000        0x0 c:/program files (x86)/microchip/xc32/v2.05/bin/bin/../../lib/gcc/pic32mx/4.8.3/../../../../pic32mx/lib\libpic32.a(vector26.o)
 .data          0x00000000        0x0 c:/program files (x86)/microchip/xc32/v2.05/bin/bin/../../lib/gcc/pic32mx/4.8.3/../../../../pic32mx/lib\libpic32.a(vector26.o)
 .bss           0x00000000        0x0 c:/program files (x86)/microchip/xc32/v2.05/bin/bin/../../lib/gcc/pic32mx/4.8.3/../../../../pic32mx/lib\libpic32.a(vector26.o)
 .reginfo       0x00000000       0x18 c:/program files (x86)/microchip/xc32/v2.05/bin/bin/../../lib/gcc/pic32mx/4.8.3/../../../../pic32mx/lib\libpic32.a(vector26.o)
 .text          0x00000000        0x0 c:/program files (x86)/microchip/xc32/v2.05/bin/bin/../../lib/gcc/pic32mx/4.8.3/../../../../pic32mx/lib\libpic32.a(vector27.o)
 .data          0x00000000        0x0 c:/program files (x86)/microchip/xc32/v2.05/bin/bin/../../lib/gcc/pic32mx/4.8.3/../../../../pic32mx/lib\libpic32.a(vector27.o)
 .bss           0x00000000        0x0 c:/program files (x86)/microchip/xc32/v2.05/bin/bin/../../lib/gcc/pic32mx/4.8.3/../../../../pic32mx/lib\libpic32.a(vector27.o)
 .reginfo       0x00000000       0x18 c:/program files (x86)/microchip/xc32/v2.05/bin/bin/../../lib/gcc/pic32mx/4.8.3/../../../../pic32mx/lib\libpic32.a(vector27.o)
 .text          0x00000000        0x0 c:/program files (x86)/microchip/xc32/v2.05/bin/bin/../../lib/gcc/pic32mx/4.8.3/../../../../pic32mx/lib\libpic32.a(vector28.o)
 .data          0x00000000        0x0 c:/program files (x86)/microchip/xc32/v2.05/bin/bin/../../lib/gcc/pic32mx/4.8.3/../../../../pic32mx/lib\libpic32.a(vector28.o)
 .bss           0x00000000        0x0 c:/program files (x86)/microchip/xc32/v2.05/bin/bin/../../lib/gcc/pic32mx/4.8.3/../../../../pic32mx/lib\libpic32.a(vector28.o)
 .reginfo       0x00000000       0x18 c:/program files (x86)/microchip/xc32/v2.05/bin/bin/../../lib/gcc/pic32mx/4.8.3/../../../../pic32mx/lib\libpic32.a(vector28.o)
 .text          0x00000000        0x0 c:/program files (x86)/microchip/xc32/v2.05/bin/bin/../../lib/gcc/pic32mx/4.8.3/../../../../pic32mx/lib\libpic32.a(vector29.o)
 .data          0x00000000        0x0 c:/program files (x86)/microchip/xc32/v2.05/bin/bin/../../lib/gcc/pic32mx/4.8.3/../../../../pic32mx/lib\libpic32.a(vector29.o)
 .bss           0x00000000        0x0 c:/program files (x86)/microchip/xc32/v2.05/bin/bin/../../lib/gcc/pic32mx/4.8.3/../../../../pic32mx/lib\libpic32.a(vector29.o)
 .reginfo       0x00000000       0x18 c:/program files (x86)/microchip/xc32/v2.05/bin/bin/../../lib/gcc/pic32mx/4.8.3/../../../../pic32mx/lib\libpic32.a(vector29.o)
 .text          0x00000000        0x0 c:/program files (x86)/microchip/xc32/v2.05/bin/bin/../../lib/gcc/pic32mx/4.8.3/../../../../pic32mx/lib\libpic32.a(vector30.o)
 .data          0x00000000        0x0 c:/program files (x86)/microchip/xc32/v2.05/bin/bin/../../lib/gcc/pic32mx/4.8.3/../../../../pic32mx/lib\libpic32.a(vector30.o)
 .bss           0x00000000        0x0 c:/program files (x86)/microchip/xc32/v2.05/bin/bin/../../lib/gcc/pic32mx/4.8.3/../../../../pic32mx/lib\libpic32.a(vector30.o)
 .reginfo       0x00000000       0x18 c:/program files (x86)/microchip/xc32/v2.05/bin/bin/../../lib/gcc/pic32mx/4.8.3/../../../../pic32mx/lib\libpic32.a(vector30.o)
 .text          0x00000000        0x0 c:/program files (x86)/microchip/xc32/v2.05/bin/bin/../../lib/gcc/pic32mx/4.8.3/../../../../pic32mx/lib\libpic32.a(vector31.o)
 .data          0x00000000        0x0 c:/program files (x86)/microchip/xc32/v2.05/bin/bin/../../lib/gcc/pic32mx/4.8.3/../../../../pic32mx/lib\libpic32.a(vector31.o)
 .bss           0x00000000        0x0 c:/program files (x86)/microchip/xc32/v2.05/bin/bin/../../lib/gcc/pic32mx/4.8.3/../../../../pic32mx/lib\libpic32.a(vector31.o)
 .reginfo       0x00000000       0x18 c:/program files (x86)/microchip/xc32/v2.05/bin/bin/../../lib/gcc/pic32mx/4.8.3/../../../../pic32mx/lib\libpic32.a(vector31.o)
 .text          0x00000000        0x0 c:/program files (x86)/microchip/xc32/v2.05/bin/bin/../../lib/gcc/pic32mx/4.8.3/../../../../pic32mx/lib\libpic32.a(vector33.o)
 .data          0x00000000        0x0 c:/program files (x86)/microchip/xc32/v2.05/bin/bin/../../lib/gcc/pic32mx/4.8.3/../../../../pic32mx/lib\libpic32.a(vector33.o)
 .bss           0x00000000        0x0 c:/program files (x86)/microchip/xc32/v2.05/bin/bin/../../lib/gcc/pic32mx/4.8.3/../../../../pic32mx/lib\libpic32.a(vector33.o)
 .reginfo       0x00000000       0x18 c:/program files (x86)/microchip/xc32/v2.05/bin/bin/../../lib/gcc/pic32mx/4.8.3/../../../../pic32mx/lib\libpic32.a(vector33.o)
 .text          0x00000000        0x0 c:/program files (x86)/microchip/xc32/v2.05/bin/bin/../../lib/gcc/pic32mx/4.8.3/../../../../pic32mx/lib\libpic32.a(vector35.o)
 .data          0x00000000        0x0 c:/program files (x86)/microchip/xc32/v2.05/bin/bin/../../lib/gcc/pic32mx/4.8.3/../../../../pic32mx/lib\libpic32.a(vector35.o)
 .bss           0x00000000        0x0 c:/program files (x86)/microchip/xc32/v2.05/bin/bin/../../lib/gcc/pic32mx/4.8.3/../../../../pic32mx/lib\libpic32.a(vector35.o)
 .reginfo       0x00000000       0x18 c:/program files (x86)/microchip/xc32/v2.05/bin/bin/../../lib/gcc/pic32mx/4.8.3/../../../../pic32mx/lib\libpic32.a(vector35.o)
 .text          0x00000000        0x0 c:/program files (x86)/microchip/xc32/v2.05/bin/bin/../../lib/gcc/pic32mx/4.8.3/../../../../pic32mx/lib\libpic32.a(vector36.o)
 .data          0x00000000        0x0 c:/program files (x86)/microchip/xc32/v2.05/bin/bin/../../lib/gcc/pic32mx/4.8.3/../../../../pic32mx/lib\libpic32.a(vector36.o)
 .bss           0x00000000        0x0 c:/program files (x86)/microchip/xc32/v2.05/bin/bin/../../lib/gcc/pic32mx/4.8.3/../../../../pic32mx/lib\libpic32.a(vector36.o)
 .reginfo       0x00000000       0x18 c:/program files (x86)/microchip/xc32/v2.05/bin/bin/../../lib/gcc/pic32mx/4.8.3/../../../../pic32mx/lib\libpic32.a(vector36.o)
 .text          0x00000000        0x0 c:/program files (x86)/microchip/xc32/v2.05/bin/bin/../../lib/gcc/pic32mx/4.8.3/../../../../pic32mx/lib\libpic32.a(vector37.o)
 .data          0x00000000        0x0 c:/program files (x86)/microchip/xc32/v2.05/bin/bin/../../lib/gcc/pic32mx/4.8.3/../../../../pic32mx/lib\libpic32.a(vector37.o)
 .bss           0x00000000        0x0 c:/program files (x86)/microchip/xc32/v2.05/bin/bin/../../lib/gcc/pic32mx/4.8.3/../../../../pic32mx/lib\libpic32.a(vector37.o)
 .reginfo       0x00000000       0x18 c:/program files (x86)/microchip/xc32/v2.05/bin/bin/../../lib/gcc/pic32mx/4.8.3/../../../../pic32mx/lib\libpic32.a(vector37.o)
 .text          0x00000000        0x0 c:/program files (x86)/microchip/xc32/v2.05/bin/bin/../../lib/gcc/pic32mx/4.8.3/../../../../pic32mx/lib\libpic32.a(vector38.o)
 .data          0x00000000        0x0 c:/program files (x86)/microchip/xc32/v2.05/bin/bin/../../lib/gcc/pic32mx/4.8.3/../../../../pic32mx/lib\libpic32.a(vector38.o)
 .bss           0x00000000        0x0 c:/program files (x86)/microchip/xc32/v2.05/bin/bin/../../lib/gcc/pic32mx/4.8.3/../../../../pic32mx/lib\libpic32.a(vector38.o)
 .reginfo       0x00000000       0x18 c:/program files (x86)/microchip/xc32/v2.05/bin/bin/../../lib/gcc/pic32mx/4.8.3/../../../../pic32mx/lib\libpic32.a(vector38.o)
 .text          0x00000000        0x0 c:/program files (x86)/microchip/xc32/v2.05/bin/bin/../../lib/gcc/pic32mx/4.8.3/../../../../pic32mx/lib\libpic32.a(vector39.o)
 .data          0x00000000        0x0 c:/program files (x86)/microchip/xc32/v2.05/bin/bin/../../lib/gcc/pic32mx/4.8.3/../../../../pic32mx/lib\libpic32.a(vector39.o)
 .bss           0x00000000        0x0 c:/program files (x86)/microchip/xc32/v2.05/bin/bin/../../lib/gcc/pic32mx/4.8.3/../../../../pic32mx/lib\libpic32.a(vector39.o)
 .reginfo       0x00000000       0x18 c:/program files (x86)/microchip/xc32/v2.05/bin/bin/../../lib/gcc/pic32mx/4.8.3/../../../../pic32mx/lib\libpic32.a(vector39.o)
 .text          0x00000000        0x0 c:/program files (x86)/microchip/xc32/v2.05/bin/bin/../../lib/gcc/pic32mx/4.8.3/../../../../pic32mx/lib\libpic32.a(vector40.o)
 .data          0x00000000        0x0 c:/program files (x86)/microchip/xc32/v2.05/bin/bin/../../lib/gcc/pic32mx/4.8.3/../../../../pic32mx/lib\libpic32.a(vector40.o)
 .bss           0x00000000        0x0 c:/program files (x86)/microchip/xc32/v2.05/bin/bin/../../lib/gcc/pic32mx/4.8.3/../../../../pic32mx/lib\libpic32.a(vector40.o)
 .reginfo       0x00000000       0x18 c:/program files (x86)/microchip/xc32/v2.05/bin/bin/../../lib/gcc/pic32mx/4.8.3/../../../../pic32mx/lib\libpic32.a(vector40.o)
 .text          0x00000000        0x0 c:/program files (x86)/microchip/xc32/v2.05/bin/bin/../../lib/gcc/pic32mx/4.8.3/../../../../pic32mx/lib\libpic32.a(vector41.o)
 .data          0x00000000        0x0 c:/program files (x86)/microchip/xc32/v2.05/bin/bin/../../lib/gcc/pic32mx/4.8.3/../../../../pic32mx/lib\libpic32.a(vector41.o)
 .bss           0x00000000        0x0 c:/program files (x86)/microchip/xc32/v2.05/bin/bin/../../lib/gcc/pic32mx/4.8.3/../../../../pic32mx/lib\libpic32.a(vector41.o)
 .reginfo       0x00000000       0x18 c:/program files (x86)/microchip/xc32/v2.05/bin/bin/../../lib/gcc/pic32mx/4.8.3/../../../../pic32mx/lib\libpic32.a(vector41.o)
 .text          0x00000000        0x0 c:/program files (x86)/microchip/xc32/v2.05/bin/bin/../../lib/gcc/pic32mx/4.8.3/../../../../pic32mx/lib\libpic32.a(vector42.o)
 .data          0x00000000        0x0 c:/program files (x86)/microchip/xc32/v2.05/bin/bin/../../lib/gcc/pic32mx/4.8.3/../../../../pic32mx/lib\libpic32.a(vector42.o)
 .bss           0x00000000        0x0 c:/program files (x86)/microchip/xc32/v2.05/bin/bin/../../lib/gcc/pic32mx/4.8.3/../../../../pic32mx/lib\libpic32.a(vector42.o)
 .reginfo       0x00000000       0x18 c:/program files (x86)/microchip/xc32/v2.05/bin/bin/../../lib/gcc/pic32mx/4.8.3/../../../../pic32mx/lib\libpic32.a(vector42.o)
 .text          0x00000000        0x0 c:/program files (x86)/microchip/xc32/v2.05/bin/bin/../../lib/gcc/pic32mx/4.8.3/../../../../pic32mx/lib\libpic32.a(vector43.o)
 .data          0x00000000        0x0 c:/program files (x86)/microchip/xc32/v2.05/bin/bin/../../lib/gcc/pic32mx/4.8.3/../../../../pic32mx/lib\libpic32.a(vector43.o)
 .bss           0x00000000        0x0 c:/program files (x86)/microchip/xc32/v2.05/bin/bin/../../lib/gcc/pic32mx/4.8.3/../../../../pic32mx/lib\libpic32.a(vector43.o)
 .reginfo       0x00000000       0x18 c:/program files (x86)/microchip/xc32/v2.05/bin/bin/../../lib/gcc/pic32mx/4.8.3/../../../../pic32mx/lib\libpic32.a(vector43.o)
 .text          0x00000000        0x0 c:/program files (x86)/microchip/xc32/v2.05/bin/bin/../../lib/gcc/pic32mx/4.8.3/../../../../pic32mx/lib\libpic32.a(defaultinterrupt.o)
 .data          0x00000000        0x0 c:/program files (x86)/microchip/xc32/v2.05/bin/bin/../../lib/gcc/pic32mx/4.8.3/../../../../pic32mx/lib\libpic32.a(defaultinterrupt.o)
 .bss           0x00000000        0x0 c:/program files (x86)/microchip/xc32/v2.05/bin/bin/../../lib/gcc/pic32mx/4.8.3/../../../../pic32mx/lib\libpic32.a(defaultinterrupt.o)
 .reginfo       0x00000000       0x18 c:/program files (x86)/microchip/xc32/v2.05/bin/bin/../../lib/gcc/pic32mx/4.8.3/../../../../pic32mx/lib\libpic32.a(defaultinterrupt.o)
 .text          0x00000000        0x0 c:/program files (x86)/microchip/xc32/v2.05/bin/bin/../../lib/gcc/pic32mx/4.8.3/../../../../pic32mx/lib\libm.a(fp32div.o)
 .data          0x00000000        0x0 c:/program files (x86)/microchip/xc32/v2.05/bin/bin/../../lib/gcc/pic32mx/4.8.3/../../../../pic32mx/lib\libm.a(fp32div.o)
 .bss           0x00000000        0x0 c:/program files (x86)/microchip/xc32/v2.05/bin/bin/../../lib/gcc/pic32mx/4.8.3/../../../../pic32mx/lib\libm.a(fp32div.o)
 .reginfo       0x00000000       0x18 c:/program files (x86)/microchip/xc32/v2.05/bin/bin/../../lib/gcc/pic32mx/4.8.3/../../../../pic32mx/lib\libm.a(fp32div.o)
 .text          0x00000000        0x0 c:/program files (x86)/microchip/xc32/v2.05/bin/bin/../../lib/gcc/pic32mx/4.8.3/../../../../pic32mx/lib\libm.a(fp32mul.o)
 .data          0x00000000        0x0 c:/program files (x86)/microchip/xc32/v2.05/bin/bin/../../lib/gcc/pic32mx/4.8.3/../../../../pic32mx/lib\libm.a(fp32mul.o)
 .bss           0x00000000        0x0 c:/program files (x86)/microchip/xc32/v2.05/bin/bin/../../lib/gcc/pic32mx/4.8.3/../../../../pic32mx/lib\libm.a(fp32mul.o)
 .reginfo       0x00000000       0x18 c:/program files (x86)/microchip/xc32/v2.05/bin/bin/../../lib/gcc/pic32mx/4.8.3/../../../../pic32mx/lib\libm.a(fp32mul.o)
 .text          0x00000000        0x0 c:/program files (x86)/microchip/xc32/v2.05/bin/bin/../../lib/gcc/pic32mx/4.8.3/../../../../pic32mx/lib\libm.a(fp32subadd.o)
 .data          0x00000000        0x0 c:/program files (x86)/microchip/xc32/v2.05/bin/bin/../../lib/gcc/pic32mx/4.8.3/../../../../pic32mx/lib\libm.a(fp32subadd.o)
 .bss           0x00000000        0x0 c:/program files (x86)/microchip/xc32/v2.05/bin/bin/../../lib/gcc/pic32mx/4.8.3/../../../../pic32mx/lib\libm.a(fp32subadd.o)
 .reginfo       0x00000000       0x18 c:/program files (x86)/microchip/xc32/v2.05/bin/bin/../../lib/gcc/pic32mx/4.8.3/../../../../pic32mx/lib\libm.a(fp32subadd.o)
 .text          0x00000000        0x0 c:/program files (x86)/microchip/xc32/v2.05/bin/bin/../../lib/gcc/pic32mx/4.8.3/../../../../pic32mx/lib\libm.a(fpcmp.o)
 .data          0x00000000        0x0 c:/program files (x86)/microchip/xc32/v2.05/bin/bin/../../lib/gcc/pic32mx/4.8.3/../../../../pic32mx/lib\libm.a(fpcmp.o)
 .bss           0x00000000        0x0 c:/program files (x86)/microchip/xc32/v2.05/bin/bin/../../lib/gcc/pic32mx/4.8.3/../../../../pic32mx/lib\libm.a(fpcmp.o)
 .reginfo       0x00000000       0x18 c:/program files (x86)/microchip/xc32/v2.05/bin/bin/../../lib/gcc/pic32mx/4.8.3/../../../../pic32mx/lib\libm.a(fpcmp.o)
 .text.fpcmp    0x00000000       0x9c c:/program files (x86)/microchip/xc32/v2.05/bin/bin/../../lib/gcc/pic32mx/4.8.3/../../../../pic32mx/lib\libm.a(fpcmp.o)
 .text          0x00000000        0x0 c:/program files (x86)/microchip/xc32/v2.05/bin/bin/../../lib/gcc/pic32mx/4.8.3/../../../../pic32mx/lib\libm.a(fptoul.o)
 .data          0x00000000        0x0 c:/program files (x86)/microchip/xc32/v2.05/bin/bin/../../lib/gcc/pic32mx/4.8.3/../../../../pic32mx/lib\libm.a(fptoul.o)
 .bss           0x00000000        0x0 c:/program files (x86)/microchip/xc32/v2.05/bin/bin/../../lib/gcc/pic32mx/4.8.3/../../../../pic32mx/lib\libm.a(fptoul.o)
 .reginfo       0x00000000       0x18 c:/program files (x86)/microchip/xc32/v2.05/bin/bin/../../lib/gcc/pic32mx/4.8.3/../../../../pic32mx/lib\libm.a(fptoul.o)
 .text          0x00000000        0x0 c:/program files (x86)/microchip/xc32/v2.05/bin/bin/../../lib/gcc/pic32mx/4.8.3/../../../../pic32mx/lib\libm.a(sitofp.o)
 .data          0x00000000        0x0 c:/program files (x86)/microchip/xc32/v2.05/bin/bin/../../lib/gcc/pic32mx/4.8.3/../../../../pic32mx/lib\libm.a(sitofp.o)
 .bss           0x00000000        0x0 c:/program files (x86)/microchip/xc32/v2.05/bin/bin/../../lib/gcc/pic32mx/4.8.3/../../../../pic32mx/lib\libm.a(sitofp.o)
 .reginfo       0x00000000       0x18 c:/program files (x86)/microchip/xc32/v2.05/bin/bin/../../lib/gcc/pic32mx/4.8.3/../../../../pic32mx/lib\libm.a(sitofp.o)

Memory Configuration

Name             Origin             Length             Attributes
kseg0_program_mem 0x9d000000         0x0001f000         xr
exception_mem    0x9d01f000         0x00001000
debug_exec_mem   0x9fc00490         0x00000760
kseg0_boot_mem   0x9fc00490         0x00000000
kseg1_boot_mem   0xbfc00000         0x00000490
config3          0xbfc00bf0         0x00000004
config2          0xbfc00bf4         0x00000004
config1          0xbfc00bf8         0x00000004
config0          0xbfc00bfc         0x00000004
kseg1_data_mem   0xa0000000         0x00008000         w !x
sfrs             0xbf800000         0x00100000
configsfrs       0xbfc00bf0         0x00000010
*default*        0x00000000         0xffffffff

Linker script and memory map

LOAD c:/program files (x86)/microchip/xc32/v2.05/bin/bin/../../lib/gcc/pic32mx/4.8.3/../../../../pic32mx/lib/./proc/32MX150F128D/crt0_mips32r2.o
LOAD c:/program files (x86)/microchip/xc32/v2.05/bin/bin/../../lib/gcc/pic32mx/4.8.3/../../../../pic32mx/lib\debug-exception-return.o
LOAD build/default/production/mcc_generated_files/tmr2.o
LOAD build/default/production/mcc_generated_files/uart1.o
LOAD build/default/production/mcc_generated_files/interrupt_manager.o
LOAD build/default/production/mcc_generated_files/tmr1.o
LOAD build/default/production/mcc_generated_files/mcc.o
LOAD build/default/production/mcc_generated_files/pin_manager.o
LOAD build/default/production/mcc_generated_files/spi1.o
LOAD build/default/production/mcc_generated_files/adc1.o
LOAD build/default/production/mcc_generated_files/spi2.o
LOAD build/default/production/nxp_reader_config_files/phApp_Init.o
LOAD build/default/production/NxpNfcRdLib/comps/phacDiscLoop/src/Sw/phacDiscLoop_Sw.o
LOAD build/default/production/NxpNfcRdLib/comps/phacDiscLoop/src/Sw/phacDiscLoop_Sw_Int.o
LOAD build/default/production/NxpNfcRdLib/comps/phacDiscLoop/src/Sw/phacDiscLoop_Sw_Int_A.o
LOAD build/default/production/NxpNfcRdLib/comps/phacDiscLoop/src/Sw/phacDiscLoop_Sw_Int_B.o
LOAD build/default/production/NxpNfcRdLib/comps/phacDiscLoop/src/Sw/phacDiscLoop_Sw_Int_F.o
LOAD build/default/production/NxpNfcRdLib/comps/phacDiscLoop/src/Sw/phacDiscLoop_Sw_Int_I18000p3m3.o
LOAD build/default/production/NxpNfcRdLib/comps/phacDiscLoop/src/Sw/phacDiscLoop_Sw_Int_V.o
LOAD build/default/production/NxpNfcRdLib/comps/phacDiscLoop/src/phacDiscLoop.o
LOAD build/default/production/NxpNfcRdLib/comps/phalFelica/src/Sw/phalFelica_Sw.o
LOAD build/default/production/NxpNfcRdLib/comps/phalFelica/src/phalFelica.o
LOAD build/default/production/NxpNfcRdLib/comps/phalI15693/src/Sw/phalI15693_Sw.o
LOAD build/default/production/NxpNfcRdLib/comps/phalI15693/src/phalI15693.o
LOAD build/default/production/NxpNfcRdLib/comps/phalI18000p3m3/src/Sw/phalI18000p3m3_Sw.o
LOAD build/default/production/NxpNfcRdLib/comps/phalI18000p3m3/src/Sw/phalI18000p3m3_Sw_Int.o
LOAD build/default/production/NxpNfcRdLib/comps/phalI18000p3m3/src/phalI18000p3m3.o
LOAD build/default/production/NxpNfcRdLib/comps/phalMfc/src/Sw/phalMfc_Sw.o
LOAD build/default/production/NxpNfcRdLib/comps/phalMfc/src/phalMfc.o
LOAD build/default/production/NxpNfcRdLib/comps/phalMfc/src/phalMfc_Int.o
LOAD build/default/production/NxpNfcRdLib/comps/phalMfdf/src/Sw/phalMfdf_Sw.o
LOAD build/default/production/NxpNfcRdLib/comps/phalMfdf/src/Sw/phalMfdf_Sw_Int.o
LOAD build/default/production/NxpNfcRdLib/comps/phalMfdf/src/phalMfdf.o
LOAD build/default/production/NxpNfcRdLib/comps/phalMfdf/src/phalMfdf_Int.o
LOAD build/default/production/NxpNfcRdLib/comps/phalMful/src/Sw/phalMful_Sw.o
LOAD build/default/production/NxpNfcRdLib/comps/phalMful/src/phalMful.o
LOAD build/default/production/NxpNfcRdLib/comps/phalMful/src/phalMful_Int.o
LOAD build/default/production/NxpNfcRdLib/comps/phalSli/src/Sw/phalSli_Sw.o
LOAD build/default/production/NxpNfcRdLib/comps/phalSli/src/phalSli.o
LOAD build/default/production/NxpNfcRdLib/comps/phalT1T/src/Sw/phalT1T_Sw.o
LOAD build/default/production/NxpNfcRdLib/comps/phalT1T/src/phalT1T.o
LOAD build/default/production/NxpNfcRdLib/comps/phalTop/src/Sw/phalTop_Sw.o
LOAD build/default/production/NxpNfcRdLib/comps/phalTop/src/Sw/phalTop_Sw_Int_T1T.o
LOAD build/default/production/NxpNfcRdLib/comps/phalTop/src/Sw/phalTop_Sw_Int_T2T.o
LOAD build/default/production/NxpNfcRdLib/comps/phalTop/src/Sw/phalTop_Sw_Int_T3T.o
LOAD build/default/production/NxpNfcRdLib/comps/phalTop/src/Sw/phalTop_Sw_Int_T4T.o
LOAD build/default/production/NxpNfcRdLib/comps/phalTop/src/Sw/phalTop_Sw_Int_T5T.o
LOAD build/default/production/NxpNfcRdLib/comps/phalTop/src/phalTop.o
LOAD build/default/production/NxpNfcRdLib/comps/phbalReg/src/KinetisI2C/phbalReg_KinetisI2C.o
LOAD build/default/production/NxpNfcRdLib/comps/phbalReg/src/KinetisSPI/phbalReg_KinetisSpi.o
LOAD build/default/production/NxpNfcRdLib/comps/phbalReg/src/LinuxKernelSpi/phbalReg_LinuxKernelSpi.o
LOAD build/default/production/NxpNfcRdLib/comps/phbalReg/src/LinuxUserI2C/phbalReg_LinuxUserI2C.o
LOAD build/default/production/NxpNfcRdLib/comps/phbalReg/src/LinuxUserSpi/phbalReg_LinuxUserSpi.o
LOAD build/default/production/NxpNfcRdLib/comps/phbalReg/src/LpcOpenI2C/phbalReg_LpcOpenI2c.o
LOAD build/default/production/NxpNfcRdLib/comps/phbalReg/src/LpcOpenSPI/phbalReg_LpcOpenSpi.o
LOAD build/default/production/NxpNfcRdLib/comps/phbalReg/src/Pic32mxSPI/phbalReg_Pic32mxSpi.o
LOAD build/default/production/NxpNfcRdLib/comps/phbalReg/src/phbalReg.o
LOAD build/default/production/NxpNfcRdLib/comps/phceT4T/src/Sw/phceT4T_Sw.o
LOAD build/default/production/NxpNfcRdLib/comps/phceT4T/src/Sw/phceT4T_Sw_Int.o
LOAD build/default/production/NxpNfcRdLib/comps/phceT4T/src/phceT4T.o
LOAD build/default/production/NxpNfcRdLib/comps/phCidManager/src/Sw/phCidManager_Sw.o
LOAD build/default/production/NxpNfcRdLib/comps/phCidManager/src/phCidManager.o
LOAD build/default/production/NxpNfcRdLib/comps/phCryptoRng/src/Sw/phCryptoRng_Sw.o
LOAD build/default/production/NxpNfcRdLib/comps/phCryptoRng/src/phCryptoRng.o
LOAD build/default/production/NxpNfcRdLib/comps/phCryptoSym/src/Sw/phCryptoSym_Sw.o
LOAD build/default/production/NxpNfcRdLib/comps/phCryptoSym/src/Sw/phCryptoSym_Sw_Aes.o
LOAD build/default/production/NxpNfcRdLib/comps/phCryptoSym/src/Sw/phCryptoSym_Sw_Des.o
LOAD build/default/production/NxpNfcRdLib/comps/phCryptoSym/src/Sw/phCryptoSym_Sw_Int.o
LOAD build/default/production/NxpNfcRdLib/comps/phCryptoSym/src/phCryptoSym.o
LOAD build/default/production/NxpNfcRdLib/comps/phhalHw/src/Pn5180/phhalHw_Pn5180.o
LOAD build/default/production/NxpNfcRdLib/comps/phhalHw/src/Pn5180/phhalHw_Pn5180_Instr.o
LOAD build/default/production/NxpNfcRdLib/comps/phhalHw/src/Pn5180/phhalHw_Pn5180_Int.o
LOAD build/default/production/NxpNfcRdLib/comps/phhalHw/src/Pn5180/phhalHw_Pn5180_Wait.o
LOAD build/default/production/NxpNfcRdLib/comps/phhalHw/src/PN7462AU/phhalHw_PN7462AU.o
LOAD build/default/production/NxpNfcRdLib/comps/phhalHw/src/PN7462AU/phhalHw_PN7462AU_Int.o
LOAD build/default/production/NxpNfcRdLib/comps/phhalHw/src/Rc523/phhalHw_Rc523.o
LOAD build/default/production/NxpNfcRdLib/comps/phhalHw/src/Rc523/phhalHw_Rc523_Cmd.o
LOAD build/default/production/NxpNfcRdLib/comps/phhalHw/src/Rc523/phhalHw_Rc523_Int.o
LOAD build/default/production/NxpNfcRdLib/comps/phhalHw/src/Rc523/phhalHw_Rc523_Wait.o
LOAD build/default/production/NxpNfcRdLib/comps/phhalHw/src/Rc663/phhalHw_Rc663.o
LOAD build/default/production/NxpNfcRdLib/comps/phhalHw/src/Rc663/phhalHw_Rc663_Cmd.o
LOAD build/default/production/NxpNfcRdLib/comps/phhalHw/src/Rc663/phhalHw_Rc663_Int.o
LOAD build/default/production/NxpNfcRdLib/comps/phhalHw/src/Rc663/phhalHw_Rc663_Wait.o
LOAD build/default/production/NxpNfcRdLib/comps/phhalHw/src/phhalHw.o
LOAD build/default/production/NxpNfcRdLib/comps/phKeyStore/src/Rc663/phKeyStore_Rc663.o
LOAD build/default/production/NxpNfcRdLib/comps/phKeyStore/src/Sw/phKeyStore_Sw.o
LOAD build/default/production/NxpNfcRdLib/comps/phKeyStore/src/phKeyStore.o
LOAD build/default/production/NxpNfcRdLib/comps/phlnLlcp/src/Sw/phlnLlcp_Sw.o
LOAD build/default/production/NxpNfcRdLib/comps/phlnLlcp/src/Sw/phlnLlcp_Sw_Int.o
LOAD build/default/production/NxpNfcRdLib/comps/phlnLlcp/src/Sw/phlnLlcp_Sw_Mac.o
LOAD build/default/production/NxpNfcRdLib/comps/phlnLlcp/src/Sw/phlnLlcp_Sw_Transport.o
LOAD build/default/production/NxpNfcRdLib/comps/phlnLlcp/src/Sw/phlnLlcp_Sw_Transport_Connection.o
LOAD build/default/production/NxpNfcRdLib/comps/phlnLlcp/src/Sw/phlnLlcp_Sw_Transport_Connectionless.o
LOAD build/default/production/NxpNfcRdLib/comps/phlnLlcp/src/Sw/phlnLlcp_Timers.o
LOAD build/default/production/NxpNfcRdLib/comps/phlnLlcp/src/phlnLlcp.o
LOAD build/default/production/NxpNfcRdLib/comps/phLog/src/phLog.o
LOAD build/default/production/NxpNfcRdLib/comps/phNfcLib/src/phNfcLib.o
LOAD build/default/production/NxpNfcRdLib/comps/phNfcLib/src/phNfcLib_15693.o
LOAD build/default/production/NxpNfcRdLib/comps/phNfcLib/src/phNfcLib_18000p3m3.o
LOAD build/default/production/NxpNfcRdLib/comps/phNfcLib/src/phNfcLib_MFC.o
LOAD build/default/production/NxpNfcRdLib/comps/phNfcLib/src/phNfcLib_MFDF.o
LOAD build/default/production/NxpNfcRdLib/comps/phNfcLib/src/phNfcLib_MFUL.o
LOAD build/default/production/NxpNfcRdLib/comps/phNfcLib/src/phNfcLib_Utility.o
LOAD build/default/production/NxpNfcRdLib/comps/phnpSnep/src/Sw/phnpSnep_Sw.o
LOAD build/default/production/NxpNfcRdLib/comps/phnpSnep/src/phnpSnep.o
LOAD build/default/production/NxpNfcRdLib/comps/phOsal/src/Freertos/phOsal_Freertos.o
LOAD build/default/production/NxpNfcRdLib/comps/phOsal/src/Linux/phOsal_Linux.o
LOAD build/default/production/NxpNfcRdLib/comps/phOsal/src/NullOs/phOsal_NullOs.o
LOAD build/default/production/NxpNfcRdLib/comps/phpalEpcUid/src/Sw/phpalEpcUid_Sw.o
LOAD build/default/production/NxpNfcRdLib/comps/phpalEpcUid/src/phpalEpcUid.o
LOAD build/default/production/NxpNfcRdLib/comps/phpalFelica/src/Sw/phpalFelica_Sw.o
LOAD build/default/production/NxpNfcRdLib/comps/phpalFelica/src/phpalFelica.o
LOAD build/default/production/NxpNfcRdLib/comps/phpalI14443p3a/src/Sw/phpalI14443p3a_Sw.o
LOAD build/default/production/NxpNfcRdLib/comps/phpalI14443p3a/src/phpalI14443p3a.o
LOAD build/default/production/NxpNfcRdLib/comps/phpalI14443p3b/src/Sw/phpalI14443p3b_Sw.o
LOAD build/default/production/NxpNfcRdLib/comps/phpalI14443p3b/src/phpalI14443p3b.o
LOAD build/default/production/NxpNfcRdLib/comps/phpalI14443p4/src/Sw/phpalI14443p4_Sw.o
LOAD build/default/production/NxpNfcRdLib/comps/phpalI14443p4/src/phpalI14443p4.o
LOAD build/default/production/NxpNfcRdLib/comps/phpalI14443p4a/src/Sw/phpalI14443p4a_Sw.o
LOAD build/default/production/NxpNfcRdLib/comps/phpalI14443p4a/src/phpalI14443p4a.o
LOAD build/default/production/NxpNfcRdLib/comps/phpalI14443p4mC/src/Sw/phpalI14443p4mC_Sw.o
LOAD build/default/production/NxpNfcRdLib/comps/phpalI14443p4mC/src/Sw/phpalI14443p4mC_Sw_Int.o
LOAD build/default/production/NxpNfcRdLib/comps/phpalI14443p4mC/src/phpalI14443p4mC.o
LOAD build/default/production/NxpNfcRdLib/comps/phpalI18000p3m3/src/Sw/phpalI18000p3m3_Sw.o
LOAD build/default/production/NxpNfcRdLib/comps/phpalI18000p3m3/src/phpalI18000p3m3.o
LOAD build/default/production/NxpNfcRdLib/comps/phpalI18092mPI/src/Sw/phpalI18092mPI_Sw.o
LOAD build/default/production/NxpNfcRdLib/comps/phpalI18092mPI/src/Sw/phpalI18092mPI_Sw_Int.o
LOAD build/default/production/NxpNfcRdLib/comps/phpalI18092mPI/src/phpalI18092mPI.o
LOAD build/default/production/NxpNfcRdLib/comps/phpalI18092mT/src/Sw/phpalI18092mT_Sw.o
LOAD build/default/production/NxpNfcRdLib/comps/phpalI18092mT/src/Sw/phpalI18092mT_Sw_Int.o
LOAD build/default/production/NxpNfcRdLib/comps/phpalI18092mT/src/phpalI18092mT.o
LOAD build/default/production/NxpNfcRdLib/comps/phpalMifare/src/Sw/phpalMifare_Sw.o
LOAD build/default/production/NxpNfcRdLib/comps/phpalMifare/src/phpalMifare.o
LOAD build/default/production/NxpNfcRdLib/comps/phpalSli15693/src/Sw/phpalSli15693_Sw.o
LOAD build/default/production/NxpNfcRdLib/comps/phpalSli15693/src/phpalSli15693.o
LOAD build/default/production/NxpNfcRdLib/comps/phPlatform/src/Port/K81/phPlatform_Port_K81.o
LOAD build/default/production/NxpNfcRdLib/comps/phPlatform/src/Port/K81/phPlatform_Port_KinetisTimer.o
LOAD build/default/production/NxpNfcRdLib/comps/phPlatform/src/Port/K82/phPlatform_Port_K82.o
LOAD build/default/production/NxpNfcRdLib/comps/phPlatform/src/Port/K82/phPlatform_Port_K82Timer.o
LOAD build/default/production/NxpNfcRdLib/comps/phPlatform/src/Port/LPC11u68/cr_startup_lpc11u6x.o
LOAD build/default/production/NxpNfcRdLib/comps/phPlatform/src/Port/LPC11u68/phPlatform_Port_LPC11u68.o
LOAD build/default/production/NxpNfcRdLib/comps/phPlatform/src/Port/LPC1769/cr_startup_lpc175x_6x.o
LOAD build/default/production/NxpNfcRdLib/comps/phPlatform/src/Port/LPC1769/keil_iar_sysinit.o
LOAD build/default/production/NxpNfcRdLib/comps/phPlatform/src/Port/LPC1769/phPlatform_Port_LPC1769.o
LOAD build/default/production/NxpNfcRdLib/comps/phPlatform/src/Port/LPCTimer/phPlatform_Port_LPCTimer.o
LOAD build/default/production/NxpNfcRdLib/comps/phPlatform/src/Port/PIC32MX/phPlatform_Port_PIC32MX.o
LOAD build/default/production/NxpNfcRdLib/comps/phPlatform/src/Port/PIC32MX/phPlatform_Port_PIC32MXTimer.o
LOAD build/default/production/NxpNfcRdLib/comps/phPlatform/src/Port/PN7462AU/phPlatform_Port_PN7462AU.o
LOAD build/default/production/NxpNfcRdLib/comps/phPlatform/src/Port/RaspberryPi/phPlatform_Port_Pi.o
LOAD build/default/production/NxpNfcRdLib/comps/phPlatform/src/Port/RaspberryPi/phPlatform_Port_PiGpio.o
LOAD build/default/production/NxpNfcRdLib/comps/phPlatform/src/phPlatform.o
LOAD build/default/production/NxpNfcRdLib/comps/phTools/src/phTools.o
LOAD build/default/production/NxpNfcRdLib/comps/phTools/src/phTools_Q.o
LOAD build/default/production/main.o
                0x00000001                __MPLAB_BUILD = 0x1
LOAD c:/program files (x86)/microchip/xc32/v2.05/bin/bin/../../lib/gcc/pic32mx/4.8.3/../../../../pic32mx/lib/./proc/32MX150F128D\default_isr_vectors.o
LOAD c:/program files (x86)/microchip/xc32/v2.05/bin/bin/../../lib/gcc/pic32mx/4.8.3/../../../../pic32mx/lib\pic32_software_reset.o
                0x00000400                PROVIDE (_min_stack_size, 0x400)
LOAD c:/program files (x86)/microchip/xc32/v2.05/bin/bin/../../lib/gcc/pic32mx/4.8.3/../../../../pic32mx/lib/./proc/32MX150F128D\processor.o
START GROUP
LOAD libmchp_peripheral.a
END GROUP
START GROUP
LOAD libmchp_peripheral_32MX150F128D.a
END GROUP
                0x00000001                PROVIDE (_vector_spacing, 0x1)
                0x9d01f000                PROVIDE (_ebase_address, 0x9d01f000)
                0xbfc00000                _RESET_ADDR = 0xbfc00000
                0xbfc00380                _BEV_EXCPT_ADDR = 0xbfc00380
                0xbfc00480                _DBG_EXCPT_ADDR = 0xbfc00480
                0x9fc00490                _DBG_CODE_ADDR = 0x9fc00490
                0x00000760                _DBG_CODE_SIZE = 0x760
                0x9d01f180                _GEN_EXCPT_ADDR = (_ebase_address + 0x180)

.config_BFC00BF0
                0xbfc00bf0        0x4
 *(.config_BFC00BF0)
 .config_BFC00BF0
                0xbfc00bf0        0x4 build/default/production/mcc_generated_files/mcc.o

.config_BFC00BF4
                0xbfc00bf4        0x4
 *(.config_BFC00BF4)
 .config_BFC00BF4
                0xbfc00bf4        0x4 build/default/production/mcc_generated_files/mcc.o

.config_BFC00BF8
                0xbfc00bf8        0x4
 *(.config_BFC00BF8)
 .config_BFC00BF8
                0xbfc00bf8        0x4 build/default/production/mcc_generated_files/mcc.o

.config_BFC00BFC
                0xbfc00bfc        0x4
 *(.config_BFC00BFC)
 .config_BFC00BFC
                0xbfc00bfc        0x4 build/default/production/mcc_generated_files/mcc.o
                0xbfc02000                PROVIDE (_DBG_CODE_ADDR, 0xbfc02000)
                0x00000ff0                PROVIDE (_DBG_CODE_SIZE, 0xff0)

.reset          0xbfc00000      0x1e4
 *(.reset)
 .reset         0xbfc00000        0x8 c:/program files (x86)/microchip/xc32/v2.05/bin/bin/../../lib/gcc/pic32mx/4.8.3/../../../../pic32mx/lib/./proc/32MX150F128D/crt0_mips32r2.o
                0xbfc00000                _reset
 *(.reset.startup)
 .reset.startup
                0xbfc00008      0x1dc c:/program files (x86)/microchip/xc32/v2.05/bin/bin/../../lib/gcc/pic32mx/4.8.3/../../../../pic32mx/lib/./proc/32MX150F128D/crt0_mips32r2.o
                0xbfc00008                _startup

.bev_excpt      0xbfc00380       0x10
 *(.bev_handler)
 .bev_handler   0xbfc00380       0x10 c:/program files (x86)/microchip/xc32/v2.05/bin/bin/../../lib/gcc/pic32mx/4.8.3/../../../../pic32mx/lib/./proc/32MX150F128D/crt0_mips32r2.o

.dbg_excpt      0xbfc00480        0x0
                0xbfc00480                . = (. + DEFINED (_DEBUGGER)?0x8:0x0)

.dbg_code       0x9fc00490        0x0
                0x9fc00490                . = (. + DEFINED (_DEBUGGER)?_DBG_CODE_SIZE:0x0)

.app_excpt      0x9d01f180       0x10
 *(.gen_handler)
 .gen_handler   0x9d01f180       0x10 c:/program files (x86)/microchip/xc32/v2.05/bin/bin/../../lib/gcc/pic32mx/4.8.3/../../../../pic32mx/lib/./proc/32MX150F128D/crt0_mips32r2.o

.vector_0       0x9d01f200        0x8
 *(.vector_0)
 .vector_0      0x9d01f200        0x8 c:/program files (x86)/microchip/xc32/v2.05/bin/bin/../../lib/gcc/pic32mx/4.8.3/../../../../pic32mx/lib\libpic32.a(vector0.o)
                0x9d01f200                __vector_dispatch_0
                0x00000001                ASSERT (((_vector_spacing == 0x0) || (SIZEOF (.vector_0) <= (_vector_spacing << 0x5))), function at exception vector 0 too large)

.vector_1       0x9d01f220        0x8
 *(.vector_1)
 .vector_1      0x9d01f220        0x8 c:/program files (x86)/microchip/xc32/v2.05/bin/bin/../../lib/gcc/pic32mx/4.8.3/../../../../pic32mx/lib\libpic32.a(vector1.o)
                0x9d01f220                __vector_dispatch_1
                0x00000001                ASSERT (((_vector_spacing == 0x0) || (SIZEOF (.vector_1) <= (_vector_spacing << 0x5))), function at exception vector 1 too large)

.vector_2       0x9d01f240        0x8
 *(.vector_2)
 .vector_2      0x9d01f240        0x8 c:/program files (x86)/microchip/xc32/v2.05/bin/bin/../../lib/gcc/pic32mx/4.8.3/../../../../pic32mx/lib\libpic32.a(vector2.o)
                0x9d01f240                __vector_dispatch_2
                0x00000001                ASSERT (((_vector_spacing == 0x0) || (SIZEOF (.vector_2) <= (_vector_spacing << 0x5))), function at exception vector 2 too large)

.vector_3       0x9d01f260        0x8
 *(.vector_3)
 .vector_3      0x9d01f260        0x8 c:/program files (x86)/microchip/xc32/v2.05/bin/bin/../../lib/gcc/pic32mx/4.8.3/../../../../pic32mx/lib\libpic32.a(vector3.o)
                0x9d01f260                __vector_dispatch_3
                0x00000001                ASSERT (((_vector_spacing == 0x0) || (SIZEOF (.vector_3) <= (_vector_spacing << 0x5))), function at exception vector 3 too large)

.vector_4       0x9d01f280        0x8
 *(.vector_4)
 .vector_4      0x9d01f280        0x8 build/default/production/mcc_generated_files/tmr1.o
                0x9d01f280                __vector_dispatch_4
                0x00000001                ASSERT (((_vector_spacing == 0x0) || (SIZEOF (.vector_4) <= (_vector_spacing << 0x5))), function at exception vector 4 too large)

.vector_5       0x9d01f2a0        0x8
 *(.vector_5)
 .vector_5      0x9d01f2a0        0x8 c:/program files (x86)/microchip/xc32/v2.05/bin/bin/../../lib/gcc/pic32mx/4.8.3/../../../../pic32mx/lib\libpic32.a(vector5.o)
                0x9d01f2a0                __vector_dispatch_5
                0x00000001                ASSERT (((_vector_spacing == 0x0) || (SIZEOF (.vector_5) <= (_vector_spacing << 0x5))), function at exception vector 5 too large)

.vector_6       0x9d01f2c0        0x8
 *(.vector_6)
 .vector_6      0x9d01f2c0        0x8 c:/program files (x86)/microchip/xc32/v2.05/bin/bin/../../lib/gcc/pic32mx/4.8.3/../../../../pic32mx/lib\libpic32.a(vector6.o)
                0x9d01f2c0                __vector_dispatch_6
                0x00000001                ASSERT (((_vector_spacing == 0x0) || (SIZEOF (.vector_6) <= (_vector_spacing << 0x5))), function at exception vector 6 too large)

.vector_7       0x9d01f2e0        0x8
 *(.vector_7)
 .vector_7      0x9d01f2e0        0x8 c:/program files (x86)/microchip/xc32/v2.05/bin/bin/../../lib/gcc/pic32mx/4.8.3/../../../../pic32mx/lib\libpic32.a(vector7.o)
                0x9d01f2e0                __vector_dispatch_7
                0x00000001                ASSERT (((_vector_spacing == 0x0) || (SIZEOF (.vector_7) <= (_vector_spacing << 0x5))), function at exception vector 7 too large)

.vector_8       0x9d01f300        0x8
 *(.vector_8)
 .vector_8      0x9d01f300        0x8 build/default/production/mcc_generated_files/tmr2.o
                0x9d01f300                __vector_dispatch_8
                0x00000001                ASSERT (((_vector_spacing == 0x0) || (SIZEOF (.vector_8) <= (_vector_spacing << 0x5))), function at exception vector 8 too large)

.vector_9       0x9d01f320        0x8
 *(.vector_9)
 .vector_9      0x9d01f320        0x8 c:/program files (x86)/microchip/xc32/v2.05/bin/bin/../../lib/gcc/pic32mx/4.8.3/../../../../pic32mx/lib\libpic32.a(vector9.o)
                0x9d01f320                __vector_dispatch_9
                0x00000001                ASSERT (((_vector_spacing == 0x0) || (SIZEOF (.vector_9) <= (_vector_spacing << 0x5))), function at exception vector 9 too large)

.vector_10      0x9d01f340        0x8
 *(.vector_10)
 .vector_10     0x9d01f340        0x8 c:/program files (x86)/microchip/xc32/v2.05/bin/bin/../../lib/gcc/pic32mx/4.8.3/../../../../pic32mx/lib\libpic32.a(vector10.o)
                0x9d01f340                __vector_dispatch_10
                0x00000001                ASSERT (((_vector_spacing == 0x0) || (SIZEOF (.vector_10) <= (_vector_spacing << 0x5))), function at exception vector 10 too large)

.vector_11      0x9d01f360        0x8
 *(.vector_11)
 .vector_11     0x9d01f360        0x8 c:/program files (x86)/microchip/xc32/v2.05/bin/bin/../../lib/gcc/pic32mx/4.8.3/../../../../pic32mx/lib\libpic32.a(vector11.o)
                0x9d01f360                __vector_dispatch_11
                0x00000001                ASSERT (((_vector_spacing == 0x0) || (SIZEOF (.vector_11) <= (_vector_spacing << 0x5))), function at exception vector 11 too large)

.vector_12      0x9d01f380        0x8
 *(.vector_12)
 .vector_12     0x9d01f380        0x8 c:/program files (x86)/microchip/xc32/v2.05/bin/bin/../../lib/gcc/pic32mx/4.8.3/../../../../pic32mx/lib\libpic32.a(vector12.o)
                0x9d01f380                __vector_dispatch_12
                0x00000001                ASSERT (((_vector_spacing == 0x0) || (SIZEOF (.vector_12) <= (_vector_spacing << 0x5))), function at exception vector 12 too large)

.vector_13      0x9d01f3a0        0x8
 *(.vector_13)
 .vector_13     0x9d01f3a0        0x8 c:/program files (x86)/microchip/xc32/v2.05/bin/bin/../../lib/gcc/pic32mx/4.8.3/../../../../pic32mx/lib\libpic32.a(vector13.o)
                0x9d01f3a0                __vector_dispatch_13
                0x00000001                ASSERT (((_vector_spacing == 0x0) || (SIZEOF (.vector_13) <= (_vector_spacing << 0x5))), function at exception vector 13 too large)

.vector_14      0x9d01f3c0        0x8
 *(.vector_14)
 .vector_14     0x9d01f3c0        0x8 c:/program files (x86)/microchip/xc32/v2.05/bin/bin/../../lib/gcc/pic32mx/4.8.3/../../../../pic32mx/lib\libpic32.a(vector14.o)
                0x9d01f3c0                __vector_dispatch_14
                0x00000001                ASSERT (((_vector_spacing == 0x0) || (SIZEOF (.vector_14) <= (_vector_spacing << 0x5))), function at exception vector 14 too large)

.vector_15      0x9d01f3e0        0x8
 *(.vector_15)
 .vector_15     0x9d01f3e0        0x8 c:/program files (x86)/microchip/xc32/v2.05/bin/bin/../../lib/gcc/pic32mx/4.8.3/../../../../pic32mx/lib\libpic32.a(vector15.o)
                0x9d01f3e0                __vector_dispatch_15
                0x00000001                ASSERT (((_vector_spacing == 0x0) || (SIZEOF (.vector_15) <= (_vector_spacing << 0x5))), function at exception vector 15 too large)

.vector_16      0x9d01f400        0x8
 *(.vector_16)
 .vector_16     0x9d01f400        0x8 c:/program files (x86)/microchip/xc32/v2.05/bin/bin/../../lib/gcc/pic32mx/4.8.3/../../../../pic32mx/lib\libpic32.a(vector16.o)
                0x9d01f400                __vector_dispatch_16
                0x00000001                ASSERT (((_vector_spacing == 0x0) || (SIZEOF (.vector_16) <= (_vector_spacing << 0x5))), function at exception vector 16 too large)

.vector_17      0x9d01f420        0x8
 *(.vector_17)
 .vector_17     0x9d01f420        0x8 c:/program files (x86)/microchip/xc32/v2.05/bin/bin/../../lib/gcc/pic32mx/4.8.3/../../../../pic32mx/lib\libpic32.a(vector17.o)
                0x9d01f420                __vector_dispatch_17
                0x00000001                ASSERT (((_vector_spacing == 0x0) || (SIZEOF (.vector_17) <= (_vector_spacing << 0x5))), function at exception vector 17 too large)

.vector_18      0x9d01f440        0x8
 *(.vector_18)
 .vector_18     0x9d01f440        0x8 c:/program files (x86)/microchip/xc32/v2.05/bin/bin/../../lib/gcc/pic32mx/4.8.3/../../../../pic32mx/lib\libpic32.a(vector18.o)
                0x9d01f440                __vector_dispatch_18
                0x00000001                ASSERT (((_vector_spacing == 0x0) || (SIZEOF (.vector_18) <= (_vector_spacing << 0x5))), function at exception vector 18 too large)

.vector_19      0x9d01f460        0x8
 *(.vector_19)
 .vector_19     0x9d01f460        0x8 c:/program files (x86)/microchip/xc32/v2.05/bin/bin/../../lib/gcc/pic32mx/4.8.3/../../../../pic32mx/lib\libpic32.a(vector19.o)
                0x9d01f460                __vector_dispatch_19
                0x00000001                ASSERT (((_vector_spacing == 0x0) || (SIZEOF (.vector_19) <= (_vector_spacing << 0x5))), function at exception vector 19 too large)

.vector_20      0x9d01f480        0x8
 *(.vector_20)
 .vector_20     0x9d01f480        0x8 c:/program files (x86)/microchip/xc32/v2.05/bin/bin/../../lib/gcc/pic32mx/4.8.3/../../../../pic32mx/lib\libpic32.a(vector20.o)
                0x9d01f480                __vector_dispatch_20
                0x00000001                ASSERT (((_vector_spacing == 0x0) || (SIZEOF (.vector_20) <= (_vector_spacing << 0x5))), function at exception vector 20 too large)

.vector_21      0x9d01f4a0        0x8
 *(.vector_21)
 .vector_21     0x9d01f4a0        0x8 c:/program files (x86)/microchip/xc32/v2.05/bin/bin/../../lib/gcc/pic32mx/4.8.3/../../../../pic32mx/lib\libpic32.a(vector21.o)
                0x9d01f4a0                __vector_dispatch_21
                0x00000001                ASSERT (((_vector_spacing == 0x0) || (SIZEOF (.vector_21) <= (_vector_spacing << 0x5))), function at exception vector 21 too large)

.vector_22      0x9d01f4c0        0x8
 *(.vector_22)
 .vector_22     0x9d01f4c0        0x8 c:/program files (x86)/microchip/xc32/v2.05/bin/bin/../../lib/gcc/pic32mx/4.8.3/../../../../pic32mx/lib\libpic32.a(vector22.o)
                0x9d01f4c0                __vector_dispatch_22
                0x00000001                ASSERT (((_vector_spacing == 0x0) || (SIZEOF (.vector_22) <= (_vector_spacing << 0x5))), function at exception vector 22 too large)

.vector_23      0x9d01f4e0        0x8
 *(.vector_23)
 .vector_23     0x9d01f4e0        0x8 build/default/production/mcc_generated_files/adc1.o
                0x9d01f4e0                __vector_dispatch_23
                0x00000001                ASSERT (((_vector_spacing == 0x0) || (SIZEOF (.vector_23) <= (_vector_spacing << 0x5))), function at exception vector 23 too large)

.vector_24      0x9d01f500        0x8
 *(.vector_24)
 .vector_24     0x9d01f500        0x8 c:/program files (x86)/microchip/xc32/v2.05/bin/bin/../../lib/gcc/pic32mx/4.8.3/../../../../pic32mx/lib\libpic32.a(vector24.o)
                0x9d01f500                __vector_dispatch_24
                0x00000001                ASSERT (((_vector_spacing == 0x0) || (SIZEOF (.vector_24) <= (_vector_spacing << 0x5))), function at exception vector 24 too large)

.vector_25      0x9d01f520        0x8
 *(.vector_25)
 .vector_25     0x9d01f520        0x8 c:/program files (x86)/microchip/xc32/v2.05/bin/bin/../../lib/gcc/pic32mx/4.8.3/../../../../pic32mx/lib\libpic32.a(vector25.o)
                0x9d01f520                __vector_dispatch_25
                0x00000001                ASSERT (((_vector_spacing == 0x0) || (SIZEOF (.vector_25) <= (_vector_spacing << 0x5))), function at exception vector 25 too large)

.vector_26      0x9d01f540        0x8
 *(.vector_26)
 .vector_26     0x9d01f540        0x8 c:/program files (x86)/microchip/xc32/v2.05/bin/bin/../../lib/gcc/pic32mx/4.8.3/../../../../pic32mx/lib\libpic32.a(vector26.o)
                0x9d01f540                __vector_dispatch_26
                0x00000001                ASSERT (((_vector_spacing == 0x0) || (SIZEOF (.vector_26) <= (_vector_spacing << 0x5))), function at exception vector 26 too large)

.vector_27      0x9d01f560        0x8
 *(.vector_27)
 .vector_27     0x9d01f560        0x8 c:/program files (x86)/microchip/xc32/v2.05/bin/bin/../../lib/gcc/pic32mx/4.8.3/../../../../pic32mx/lib\libpic32.a(vector27.o)
                0x9d01f560                __vector_dispatch_27
                0x00000001                ASSERT (((_vector_spacing == 0x0) || (SIZEOF (.vector_27) <= (_vector_spacing << 0x5))), function at exception vector 27 too large)

.vector_28      0x9d01f580        0x8
 *(.vector_28)
 .vector_28     0x9d01f580        0x8 c:/program files (x86)/microchip/xc32/v2.05/bin/bin/../../lib/gcc/pic32mx/4.8.3/../../../../pic32mx/lib\libpic32.a(vector28.o)
                0x9d01f580                __vector_dispatch_28
                0x00000001                ASSERT (((_vector_spacing == 0x0) || (SIZEOF (.vector_28) <= (_vector_spacing << 0x5))), function at exception vector 28 too large)

.vector_29      0x9d01f5a0        0x8
 *(.vector_29)
 .vector_29     0x9d01f5a0        0x8 c:/program files (x86)/microchip/xc32/v2.05/bin/bin/../../lib/gcc/pic32mx/4.8.3/../../../../pic32mx/lib\libpic32.a(vector29.o)
                0x9d01f5a0                __vector_dispatch_29
                0x00000001                ASSERT (((_vector_spacing == 0x0) || (SIZEOF (.vector_29) <= (_vector_spacing << 0x5))), function at exception vector 29 too large)

.vector_30      0x9d01f5c0        0x8
 *(.vector_30)
 .vector_30     0x9d01f5c0        0x8 c:/program files (x86)/microchip/xc32/v2.05/bin/bin/../../lib/gcc/pic32mx/4.8.3/../../../../pic32mx/lib\libpic32.a(vector30.o)
                0x9d01f5c0                __vector_dispatch_30
                0x00000001                ASSERT (((_vector_spacing == 0x0) || (SIZEOF (.vector_30) <= (_vector_spacing << 0x5))), function at exception vector 30 too large)

.vector_31      0x9d01f5e0        0x8
 *(.vector_31)
 .vector_31     0x9d01f5e0        0x8 c:/program files (x86)/microchip/xc32/v2.05/bin/bin/../../lib/gcc/pic32mx/4.8.3/../../../../pic32mx/lib\libpic32.a(vector31.o)
                0x9d01f5e0                __vector_dispatch_31
                0x00000001                ASSERT (((_vector_spacing == 0x0) || (SIZEOF (.vector_31) <= (_vector_spacing << 0x5))), function at exception vector 31 too large)

.vector_32      0x9d01f600        0x8
 *(.vector_32)
 .vector_32     0x9d01f600        0x8 build/default/production/mcc_generated_files/uart1.o
                0x9d01f600                __vector_dispatch_32
                0x00000001                ASSERT (((_vector_spacing == 0x0) || (SIZEOF (.vector_32) <= (_vector_spacing << 0x5))), function at exception vector 32 too large)

.vector_33      0x9d01f620        0x8
 *(.vector_33)
 .vector_33     0x9d01f620        0x8 c:/program files (x86)/microchip/xc32/v2.05/bin/bin/../../lib/gcc/pic32mx/4.8.3/../../../../pic32mx/lib\libpic32.a(vector33.o)
                0x9d01f620                __vector_dispatch_33
                0x00000001                ASSERT (((_vector_spacing == 0x0) || (SIZEOF (.vector_33) <= (_vector_spacing << 0x5))), function at exception vector 33 too large)

.vector_34      0x9d01f640        0x8
 *(.vector_34)
 .vector_34     0x9d01f640        0x8 build/default/production/mcc_generated_files/pin_manager.o
                0x9d01f640                __vector_dispatch_34
                0x00000001                ASSERT (((_vector_spacing == 0x0) || (SIZEOF (.vector_34) <= (_vector_spacing << 0x5))), function at exception vector 34 too large)

.vector_35      0x9d01f660        0x8
 *(.vector_35)
 .vector_35     0x9d01f660        0x8 c:/program files (x86)/microchip/xc32/v2.05/bin/bin/../../lib/gcc/pic32mx/4.8.3/../../../../pic32mx/lib\libpic32.a(vector35.o)
                0x9d01f660                __vector_dispatch_35
                0x00000001                ASSERT (((_vector_spacing == 0x0) || (SIZEOF (.vector_35) <= (_vector_spacing << 0x5))), function at exception vector 35 too large)

.vector_36      0x9d01f680        0x8
 *(.vector_36)
 .vector_36     0x9d01f680        0x8 c:/program files (x86)/microchip/xc32/v2.05/bin/bin/../../lib/gcc/pic32mx/4.8.3/../../../../pic32mx/lib\libpic32.a(vector36.o)
                0x9d01f680                __vector_dispatch_36
                0x00000001                ASSERT (((_vector_spacing == 0x0) || (SIZEOF (.vector_36) <= (_vector_spacing << 0x5))), function at exception vector 36 too large)

.vector_37      0x9d01f6a0        0x8
 *(.vector_37)
 .vector_37     0x9d01f6a0        0x8 c:/program files (x86)/microchip/xc32/v2.05/bin/bin/../../lib/gcc/pic32mx/4.8.3/../../../../pic32mx/lib\libpic32.a(vector37.o)
                0x9d01f6a0                __vector_dispatch_37
                0x00000001                ASSERT (((_vector_spacing == 0x0) || (SIZEOF (.vector_37) <= (_vector_spacing << 0x5))), function at exception vector 37 too large)

.vector_38      0x9d01f6c0        0x8
 *(.vector_38)
 .vector_38     0x9d01f6c0        0x8 c:/program files (x86)/microchip/xc32/v2.05/bin/bin/../../lib/gcc/pic32mx/4.8.3/../../../../pic32mx/lib\libpic32.a(vector38.o)
                0x9d01f6c0                __vector_dispatch_38
                0x00000001                ASSERT (((_vector_spacing == 0x0) || (SIZEOF (.vector_38) <= (_vector_spacing << 0x5))), function at exception vector 38 too large)

.vector_39      0x9d01f6e0        0x8
 *(.vector_39)
 .vector_39     0x9d01f6e0        0x8 c:/program files (x86)/microchip/xc32/v2.05/bin/bin/../../lib/gcc/pic32mx/4.8.3/../../../../pic32mx/lib\libpic32.a(vector39.o)
                0x9d01f6e0                __vector_dispatch_39
                0x00000001                ASSERT (((_vector_spacing == 0x0) || (SIZEOF (.vector_39) <= (_vector_spacing << 0x5))), function at exception vector 39 too large)

.vector_40      0x9d01f700        0x8
 *(.vector_40)
 .vector_40     0x9d01f700        0x8 c:/program files (x86)/microchip/xc32/v2.05/bin/bin/../../lib/gcc/pic32mx/4.8.3/../../../../pic32mx/lib\libpic32.a(vector40.o)
                0x9d01f700                __vector_dispatch_40
                0x00000001                ASSERT (((_vector_spacing == 0x0) || (SIZEOF (.vector_40) <= (_vector_spacing << 0x5))), function at exception vector 40 too large)

.vector_41      0x9d01f720        0x8
 *(.vector_41)
 .vector_41     0x9d01f720        0x8 c:/program files (x86)/microchip/xc32/v2.05/bin/bin/../../lib/gcc/pic32mx/4.8.3/../../../../pic32mx/lib\libpic32.a(vector41.o)
                0x9d01f720                __vector_dispatch_41
                0x00000001                ASSERT (((_vector_spacing == 0x0) || (SIZEOF (.vector_41) <= (_vector_spacing << 0x5))), function at exception vector 41 too large)

.vector_42      0x9d01f740        0x8
 *(.vector_42)
 .vector_42     0x9d01f740        0x8 c:/program files (x86)/microchip/xc32/v2.05/bin/bin/../../lib/gcc/pic32mx/4.8.3/../../../../pic32mx/lib\libpic32.a(vector42.o)
                0x9d01f740                __vector_dispatch_42
                0x00000001                ASSERT (((_vector_spacing == 0x0) || (SIZEOF (.vector_42) <= (_vector_spacing << 0x5))), function at exception vector 42 too large)

.vector_43      0x9d01f760        0x8
 *(.vector_43)
 .vector_43     0x9d01f760        0x8 c:/program files (x86)/microchip/xc32/v2.05/bin/bin/../../lib/gcc/pic32mx/4.8.3/../../../../pic32mx/lib\libpic32.a(vector43.o)
                0x9d01f760                __vector_dispatch_43
                0x00000001                ASSERT (((_vector_spacing == 0x0) || (SIZEOF (.vector_43) <= (_vector_spacing << 0x5))), function at exception vector 43 too large)

.vector_44      0x9d01f780        0x0
 *(.vector_44)
                0x00000001                ASSERT (((_vector_spacing == 0x0) || (SIZEOF (.vector_44) <= (_vector_spacing << 0x5))), function at exception vector 44 too large)

.vector_45      0x9d01f7a0        0x0
 *(.vector_45)
                0x00000001                ASSERT (((_vector_spacing == 0x0) || (SIZEOF (.vector_45) <= (_vector_spacing << 0x5))), function at exception vector 45 too large)

.vector_46      0x9d01f7c0        0x0
 *(.vector_46)
                0x00000001                ASSERT (((_vector_spacing == 0x0) || (SIZEOF (.vector_46) <= (_vector_spacing << 0x5))), function at exception vector 46 too large)

.vector_47      0x9d01f7e0        0x0
 *(.vector_47)
                0x00000001                ASSERT (((_vector_spacing == 0x0) || (SIZEOF (.vector_47) <= (_vector_spacing << 0x5))), function at exception vector 47 too large)

.vector_48      0x9d01f800        0x0
 *(.vector_48)
                0x00000001                ASSERT (((_vector_spacing == 0x0) || (SIZEOF (.vector_48) <= (_vector_spacing << 0x5))), function at exception vector 48 too large)

.vector_49      0x9d01f820        0x0
 *(.vector_49)
                0x00000001                ASSERT (((_vector_spacing == 0x0) || (SIZEOF (.vector_49) <= (_vector_spacing << 0x5))), function at exception vector 49 too large)

.vector_50      0x9d01f840        0x0
 *(.vector_50)
                0x00000001                ASSERT (((_vector_spacing == 0x0) || (SIZEOF (.vector_50) <= (_vector_spacing << 0x5))), function at exception vector 50 too large)

.vector_51      0x9d01f860        0x0
 *(.vector_51)
                0x00000001                ASSERT (((_vector_spacing == 0x0) || (SIZEOF (.vector_51) <= (_vector_spacing << 0x5))), function at exception vector 51 too large)

.vector_52      0x9d01f880        0x0
 *(.vector_52)
                0x00000001                ASSERT (((_vector_spacing == 0x0) || (SIZEOF (.vector_52) <= (_vector_spacing << 0x5))), function at exception vector 52 too large)

.vector_53      0x9d01f8a0        0x0
 *(.vector_53)
                0x00000001                ASSERT (((_vector_spacing == 0x0) || (SIZEOF (.vector_53) <= (_vector_spacing << 0x5))), function at exception vector 53 too large)

.vector_54      0x9d01f8c0        0x0
 *(.vector_54)
                0x00000001                ASSERT (((_vector_spacing == 0x0) || (SIZEOF (.vector_54) <= (_vector_spacing << 0x5))), function at exception vector 54 too large)

.vector_55      0x9d01f8e0        0x0
 *(.vector_55)
                0x00000001                ASSERT (((_vector_spacing == 0x0) || (SIZEOF (.vector_55) <= (_vector_spacing << 0x5))), function at exception vector 55 too large)

.vector_56      0x9d01f900        0x0
 *(.vector_56)
                0x00000001                ASSERT (((_vector_spacing == 0x0) || (SIZEOF (.vector_56) <= (_vector_spacing << 0x5))), function at exception vector 56 too large)

.vector_57      0x9d01f920        0x0
 *(.vector_57)
                0x00000001                ASSERT (((_vector_spacing == 0x0) || (SIZEOF (.vector_57) <= (_vector_spacing << 0x5))), function at exception vector 57 too large)

.vector_58      0x9d01f940        0x0
 *(.vector_58)
                0x00000001                ASSERT (((_vector_spacing == 0x0) || (SIZEOF (.vector_58) <= (_vector_spacing << 0x5))), function at exception vector 58 too large)

.vector_59      0x9d01f960        0x0
 *(.vector_59)
                0x00000001                ASSERT (((_vector_spacing == 0x0) || (SIZEOF (.vector_59) <= (_vector_spacing << 0x5))), function at exception vector 59 too large)

.vector_60      0x9d01f980        0x0
 *(.vector_60)
                0x00000001                ASSERT (((_vector_spacing == 0x0) || (SIZEOF (.vector_60) <= (_vector_spacing << 0x5))), function at exception vector 60 too large)

.vector_61      0x9d01f9a0        0x0
 *(.vector_61)
                0x00000001                ASSERT (((_vector_spacing == 0x0) || (SIZEOF (.vector_61) <= (_vector_spacing << 0x5))), function at exception vector 61 too large)

.vector_62      0x9d01f9c0        0x0
 *(.vector_62)
                0x00000001                ASSERT (((_vector_spacing == 0x0) || (SIZEOF (.vector_62) <= (_vector_spacing << 0x5))), function at exception vector 62 too large)

.vector_63      0x9d01f9e0        0x0
 *(.vector_63)
                0x00000001                ASSERT (((_vector_spacing == 0x0) || (SIZEOF (.vector_63) <= (_vector_spacing << 0x5))), function at exception vector 63 too large)

.startup
 *(.startup)

.text           0x9d000000        0x0
 *(.stub .gnu.linkonce.t.*)
 *(.text.*personality*)
 *(.mips16.fn.*)
 *(.mips16.call.*)
 *(.gnu.warning)
                0x9d000000                . = ALIGN (0x4)

.init           0x9d000000        0x0
 *crti.o(.init)
 *crtbegin.o(.init)
 *(EXCLUDE_FILE(*crtn.o *crtend?.o *crtend.o) .init)
 *crtend.o(.init)
 *crtn.o(.init)
                0x9d000000                . = ALIGN (0x4)

.fini           0x9d000000        0x0
 *(.fini)
                0x9d000000                . = ALIGN (0x4)

.preinit_array  0x9d000000        0x0
                0x9d000000                PROVIDE (__preinit_array_start, .)
 *(.preinit_array)
                0x9d000000                PROVIDE (__preinit_array_end, .)
                0x9d000000                . = ALIGN (0x4)

.init_array     0x9d000000        0x0
                0x9d000000                PROVIDE (__init_array_start, .)
 *(SORT(.init_array.*))
 *(.init_array)
                0x9d000000                PROVIDE (__init_array_end, .)
                0x9d000000                . = ALIGN (0x4)

.fini_array     0x9d000000        0x0
                0x9d000000                PROVIDE (__fini_array_start, .)
 *(SORT(.fini_array.*))
 *(.fini_array)
                0x9d000000                PROVIDE (__fini_array_end, .)
                0x9d000000                . = ALIGN (0x4)

.ctors          0x9d000000        0x0
 *crtbegin.o(.ctors)
 *crtbegin?.o(.ctors)
 *(EXCLUDE_FILE(*crtend?.o *crtend.o) .ctors)
 *(SORT(.ctors.*))
 *(.ctors)
                0x9d000000                . = ALIGN (0x4)

.dtors          0x9d000000        0x0
 *crtbegin.o(.dtors)
 *crtbegin?.o(.dtors)
 *(EXCLUDE_FILE(*crtend?.o *crtend.o) .dtors)
 *(SORT(.dtors.*))
 *(.dtors)
                0x9d000000                . = ALIGN (0x4)

.rodata         0x9d000000        0x0
 *(.gnu.linkonce.r.*)
 *(.rodata1)
                0x9d000000                . = ALIGN (0x4)

.sdata2         0x9fc00490        0x0
 *(.sdata2 .sdata2.* .gnu.linkonce.s2.*)
                0x9fc00490                . = ALIGN (0x4)

.sbss2          0x9fc00490        0x0
 *(.sbss2 .sbss2.* .gnu.linkonce.sb2.*)
                0x9fc00490                . = ALIGN (0x4)

.eh_frame_hdr
 *(.eh_frame_hdr)
                0x9fc00490                . = ALIGN (0x4)

.eh_frame
 *(.eh_frame)
                0x9fc00490                . = ALIGN (0x4)

.gcc_except_table
 *(.gcc_except_table .gcc_except_table.*)
                0x9fc00490                . = ALIGN (0x4)

.dbg_data       0xa0000000        0x0
                0xa0000000                . = (. + DEFINED (_DEBUGGER)?0x200:0x0)

.jcr            0xa0000000        0x0
 *(.jcr)
                0xa0000000                . = ALIGN (0x4)

.eh_frame
 *(.eh_frame)
                0xa0000000                . = ALIGN (0x4)

.gcc_except_table
 *(.gcc_except_table .gcc_except_table.*)
                0xa0000000                . = ALIGN (0x4)

.persist        0xa0000000        0x0
                0xa0000000                _persist_begin = .
 *(.persist .persist.*)
 *(.pbss .pbss.*)
                0xa0000000                . = ALIGN (0x4)
                0xa0000000                _persist_end = .

.data           0xa0000000        0x0
 *(.gnu.linkonce.d.*)
 *(.data1)
                0xa0000000                . = ALIGN (0x4)
                0xa0000000                . = .
                0xa0007ff0                _gp = (ALIGN (0x10) + 0x7ff0)

.got            0xa0000000        0x0
 *(.got.plt)
 *(.got)
                0xa0000000                . = ALIGN (0x4)

.sdata          0xa0000000       0x24
                0xa0000000                _sdata_begin = .
 *(.sdata .sdata.* .gnu.linkonce.s.*)
 .sdata.Key.Key
                0xa0000000        0x8 build/default/production/main.o
                0xa0000000                Key
 .sdata.Original_Key.Original_Key
                0xa0000008        0x8 build/default/production/main.o
                0xa0000008                Original_Key
 .sdata.pMfcTypeName.pMfcTypeName
                0xa0000010        0x4 build/default/production/main.o
                0xa0000010                pMfcTypeName
 .sdata.pMfdfTypeName.pMfdfTypeName
                0xa0000014        0x4 build/default/production/main.o
                0xa0000014                pMfdfTypeName
 .sdata.rats.8630.rats
                0xa0000018        0x4 build/default/production/main.o
 .sdata.pps.8631.pps
                0xa000001c        0x4 build/default/production/main.o
 .sdata.AID.8632.AID
                0xa0000020        0x4 build/default/production/main.o
                0xa0000024                . = ALIGN (0x4)
                0xa0000024                _sdata_end = .

.lit8
 *(.lit8)

.lit4
 *(.lit4)
                0xa0000024                . = ALIGN (0x4)
                0xa0000024                _data_end = .
                0xa0000024                _bss_begin = .

.sbss           0xa0000024       0x70
                0xa0000024                _sbss_begin = .
 *(.dynsbss)
 *(.sbss .sbss.* .gnu.linkonce.sb.*)
 .sbss.tmr2_obj.tmr2_obj
                0xa0000024        0x4 build/default/production/mcc_generated_files/tmr2.o
 .sbss.uart1_txByteQ.uart1_txByteQ
                0xa0000028        0x8 build/default/production/mcc_generated_files/uart1.o
 .sbss.uart1_rxByteQ.uart1_rxByteQ
                0xa0000030        0x8 build/default/production/mcc_generated_files/uart1.o
 .sbss.tmr1_obj.tmr1_obj
                0xa0000038        0x8 build/default/production/mcc_generated_files/tmr1.o
 .sbss.CountCallBack.7096.CountCallBack
                0xa0000040        0x4 build/default/production/mcc_generated_files/tmr1.o
 .sbss.gbWaitTimedOut.gbWaitTimedOut
                0xa0000044        0x1 build/default/production/NxpNfcRdLib/comps/phOsal/src/NullOs/phOsal_NullOs.o
 *fill*         0xa0000045        0x3 
 .sbss.gdwEventBitMap.gdwEventBitMap
                0xa0000048        0x4 build/default/production/NxpNfcRdLib/comps/phOsal/src/NullOs/phOsal_NullOs.o
 .sbss.gCurrentEventHandle.gCurrentEventHandle
                0xa000004c        0x4 build/default/production/NxpNfcRdLib/comps/phOsal/src/NullOs/phOsal_NullOs.o
 .sbss.pTickCallBack.pTickCallBack
                0xa0000050        0x4 build/default/production/NxpNfcRdLib/comps/phPlatform/src/Port/PIC32MX/phPlatform_Port_PIC32MXTimer.o
 *fill*         0xa0000054        0x4 
 .sbss.qwLoadValue.qwLoadValue
                0xa0000058        0x8 build/default/production/NxpNfcRdLib/comps/phPlatform/src/Port/PIC32MX/phPlatform_Port_PIC32MXTimer.o
 .sbss.dwSysTickTimerFreq.dwSysTickTimerFreq
                0xa0000060        0x4 build/default/production/NxpNfcRdLib/comps/phPlatform/src/Port/PIC32MX/phPlatform_Port_PIC32MXTimer.o
 .sbss.dwTimerBusyFlags.dwTimerBusyFlags
                0xa0000064        0x4 build/default/production/NxpNfcRdLib/comps/phPlatform/src/Port/PIC32MX/phPlatform_Port_PIC32MXTimer.o
 .sbss.gpphTools_Q_PoolHead.gpphTools_Q_PoolHead
                0xa0000068        0x4 build/default/production/NxpNfcRdLib/comps/phTools/src/phTools_Q.o
 .sbss.gpphTools_Q_Msgs.gpphTools_Q_Msgs
                0xa000006c        0x4 build/default/production/NxpNfcRdLib/comps/phTools/src/phTools_Q.o
 .sbss.bQCount.bQCount
                0xa0000070        0x1 build/default/production/NxpNfcRdLib/comps/phTools/src/phTools_Q.o
 .sbss.bNoOfMsgs.1852.bNoOfMsgs
                0xa0000071        0x1 build/default/production/NxpNfcRdLib/comps/phTools/src/phTools_Q.o
 *(.scommon)
 *fill*         0xa0000072        0x2 
 .scommon       0xa0000074        0x4 build/default/production/nxp_reader_config_files/phApp_Init.o
                0xa0000074                pHal
 .scommon       0xa0000078        0x4 build/default/production/NxpNfcRdLib/comps/phPlatform/src/phPlatform.o
                0xa0000078                gpphPlatform_DataParams
 .scommon       0xa000007c       0x16 build/default/production/main.o
                0xa000007c                sKUCEntries
                0xa0000084                bSak
                0xa0000088                sKeyEntries
                0xa0000090                wAtqa
                0xa0000092                _sbss_end = .
                0xa0000094                . = ALIGN (0x4)
 *fill*         0xa0000092        0x2 

.bss            0xa0000094      0x4f0
 *(.dynbss)
 *(COMMON)
 COMMON         0xa0000094      0x368 build/default/production/nxp_reader_config_files/phApp_Init.o
                0xa0000094                sDiscLoop
                0xa0000108                spalI14443p4
                0xa000011c                aResponseHolder
                0xa000015c                spalI14443p4a
                0xa0000170                sPlatform
                0xa0000364                salMFDF
                0xa00003cc                spalI14443p3a
                0xa00003e4                salMFC
                0xa00003f0                spalMifare
 COMMON         0xa00003fc      0x188 build/default/production/main.o
                0xa00003fc                sKeyVersionPairs
                0xa0000484                bHalBufferRx
                0xa0000504                bHalBufferTx
                0xa0000584                . = ALIGN ((. != 0x0)?0x4:0x1)
                0xa0000584                . = ALIGN (0x4)
                0xa0000584                _end = .
                0xa0000584                _bss_end = .
                0x00008000                _bmxdudba_address = 0x8000
                0x00008000                _bmxdupba_address = 0x8000

/DISCARD/
 *(.pdr)
 *(.rel.dyn)
 *(.note.GNU-stack)
 *(.note.GNU-stack)
 *(.gnu_debuglink)
 *(.gnu.lto_*)
 *(.discard)

.gptab.sdata
 *(.gptab.data)
 *(.gptab.sdata)

.gptab.sbss
 *(.gptab.bss)
 *(.gptab.sbss)

.mdebug.abi32   0xa0000584        0x0
 *(.mdebug.abi32)
 .mdebug.abi32  0xa0000584        0x0 build/default/production/mcc_generated_files/tmr2.o
 .mdebug.abi32  0xa0000584        0x0 build/default/production/mcc_generated_files/uart1.o
 .mdebug.abi32  0xa0000584        0x0 build/default/production/mcc_generated_files/interrupt_manager.o
 .mdebug.abi32  0xa0000584        0x0 build/default/production/mcc_generated_files/tmr1.o
 .mdebug.abi32  0xa0000584        0x0 build/default/production/mcc_generated_files/mcc.o
 .mdebug.abi32  0xa0000584        0x0 build/default/production/mcc_generated_files/pin_manager.o
 .mdebug.abi32  0xa0000584        0x0 build/default/production/mcc_generated_files/spi1.o
 .mdebug.abi32  0xa0000584        0x0 build/default/production/mcc_generated_files/adc1.o
 .mdebug.abi32  0xa0000584        0x0 build/default/production/mcc_generated_files/spi2.o
 .mdebug.abi32  0xa0000584        0x0 build/default/production/nxp_reader_config_files/phApp_Init.o
 .mdebug.abi32  0xa0000584        0x0 build/default/production/NxpNfcRdLib/comps/phacDiscLoop/src/Sw/phacDiscLoop_Sw.o
 .mdebug.abi32  0xa0000584        0x0 build/default/production/NxpNfcRdLib/comps/phacDiscLoop/src/Sw/phacDiscLoop_Sw_Int.o
 .mdebug.abi32  0xa0000584        0x0 build/default/production/NxpNfcRdLib/comps/phacDiscLoop/src/Sw/phacDiscLoop_Sw_Int_A.o
 .mdebug.abi32  0xa0000584        0x0 build/default/production/NxpNfcRdLib/comps/phacDiscLoop/src/Sw/phacDiscLoop_Sw_Int_B.o
 .mdebug.abi32  0xa0000584        0x0 build/default/production/NxpNfcRdLib/comps/phacDiscLoop/src/Sw/phacDiscLoop_Sw_Int_F.o
 .mdebug.abi32  0xa0000584        0x0 build/default/production/NxpNfcRdLib/comps/phacDiscLoop/src/Sw/phacDiscLoop_Sw_Int_I18000p3m3.o
 .mdebug.abi32  0xa0000584        0x0 build/default/production/NxpNfcRdLib/comps/phacDiscLoop/src/Sw/phacDiscLoop_Sw_Int_V.o
 .mdebug.abi32  0xa0000584        0x0 build/default/production/NxpNfcRdLib/comps/phacDiscLoop/src/phacDiscLoop.o
 .mdebug.abi32  0xa0000584        0x0 build/default/production/NxpNfcRdLib/comps/phalFelica/src/Sw/phalFelica_Sw.o
 .mdebug.abi32  0xa0000584        0x0 build/default/production/NxpNfcRdLib/comps/phalFelica/src/phalFelica.o
 .mdebug.abi32  0xa0000584        0x0 build/default/production/NxpNfcRdLib/comps/phalI15693/src/Sw/phalI15693_Sw.o
 .mdebug.abi32  0xa0000584        0x0 build/default/production/NxpNfcRdLib/comps/phalI15693/src/phalI15693.o
 .mdebug.abi32  0xa0000584        0x0 build/default/production/NxpNfcRdLib/comps/phalI18000p3m3/src/Sw/phalI18000p3m3_Sw.o
 .mdebug.abi32  0xa0000584        0x0 build/default/production/NxpNfcRdLib/comps/phalI18000p3m3/src/Sw/phalI18000p3m3_Sw_Int.o
 .mdebug.abi32  0xa0000584        0x0 build/default/production/NxpNfcRdLib/comps/phalI18000p3m3/src/phalI18000p3m3.o
 .mdebug.abi32  0xa0000584        0x0 build/default/production/NxpNfcRdLib/comps/phalMfc/src/Sw/phalMfc_Sw.o
 .mdebug.abi32  0xa0000584        0x0 build/default/production/NxpNfcRdLib/comps/phalMfc/src/phalMfc.o
 .mdebug.abi32  0xa0000584        0x0 build/default/production/NxpNfcRdLib/comps/phalMfc/src/phalMfc_Int.o
 .mdebug.abi32  0xa0000584        0x0 build/default/production/NxpNfcRdLib/comps/phalMfdf/src/Sw/phalMfdf_Sw.o
 .mdebug.abi32  0xa0000584        0x0 build/default/production/NxpNfcRdLib/comps/phalMfdf/src/Sw/phalMfdf_Sw_Int.o
 .mdebug.abi32  0xa0000584        0x0 build/default/production/NxpNfcRdLib/comps/phalMfdf/src/phalMfdf.o
 .mdebug.abi32  0xa0000584        0x0 build/default/production/NxpNfcRdLib/comps/phalMfdf/src/phalMfdf_Int.o
 .mdebug.abi32  0xa0000584        0x0 build/default/production/NxpNfcRdLib/comps/phalMful/src/Sw/phalMful_Sw.o
 .mdebug.abi32  0xa0000584        0x0 build/default/production/NxpNfcRdLib/comps/phalMful/src/phalMful.o
 .mdebug.abi32  0xa0000584        0x0 build/default/production/NxpNfcRdLib/comps/phalMful/src/phalMful_Int.o
 .mdebug.abi32  0xa0000584        0x0 build/default/production/NxpNfcRdLib/comps/phalSli/src/Sw/phalSli_Sw.o
 .mdebug.abi32  0xa0000584        0x0 build/default/production/NxpNfcRdLib/comps/phalSli/src/phalSli.o
 .mdebug.abi32  0xa0000584        0x0 build/default/production/NxpNfcRdLib/comps/phalT1T/src/Sw/phalT1T_Sw.o
 .mdebug.abi32  0xa0000584        0x0 build/default/production/NxpNfcRdLib/comps/phalT1T/src/phalT1T.o
 .mdebug.abi32  0xa0000584        0x0 build/default/production/NxpNfcRdLib/comps/phalTop/src/Sw/phalTop_Sw.o
 .mdebug.abi32  0xa0000584        0x0 build/default/production/NxpNfcRdLib/comps/phalTop/src/Sw/phalTop_Sw_Int_T1T.o
 .mdebug.abi32  0xa0000584        0x0 build/default/production/NxpNfcRdLib/comps/phalTop/src/Sw/phalTop_Sw_Int_T2T.o
 .mdebug.abi32  0xa0000584        0x0 build/default/production/NxpNfcRdLib/comps/phalTop/src/Sw/phalTop_Sw_Int_T3T.o
 .mdebug.abi32  0xa0000584        0x0 build/default/production/NxpNfcRdLib/comps/phalTop/src/Sw/phalTop_Sw_Int_T4T.o
 .mdebug.abi32  0xa0000584        0x0 build/default/production/NxpNfcRdLib/comps/phalTop/src/Sw/phalTop_Sw_Int_T5T.o
 .mdebug.abi32  0xa0000584        0x0 build/default/production/NxpNfcRdLib/comps/phalTop/src/phalTop.o
 .mdebug.abi32  0xa0000584        0x0 build/default/production/NxpNfcRdLib/comps/phbalReg/src/KinetisI2C/phbalReg_KinetisI2C.o
 .mdebug.abi32  0xa0000584        0x0 build/default/production/NxpNfcRdLib/comps/phbalReg/src/KinetisSPI/phbalReg_KinetisSpi.o
 .mdebug.abi32  0xa0000584        0x0 build/default/production/NxpNfcRdLib/comps/phbalReg/src/LinuxKernelSpi/phbalReg_LinuxKernelSpi.o
 .mdebug.abi32  0xa0000584        0x0 build/default/production/NxpNfcRdLib/comps/phbalReg/src/LinuxUserI2C/phbalReg_LinuxUserI2C.o
 .mdebug.abi32  0xa0000584        0x0 build/default/production/NxpNfcRdLib/comps/phbalReg/src/LinuxUserSpi/phbalReg_LinuxUserSpi.o
 .mdebug.abi32  0xa0000584        0x0 build/default/production/NxpNfcRdLib/comps/phbalReg/src/LpcOpenI2C/phbalReg_LpcOpenI2c.o
 .mdebug.abi32  0xa0000584        0x0 build/default/production/NxpNfcRdLib/comps/phbalReg/src/LpcOpenSPI/phbalReg_LpcOpenSpi.o
 .mdebug.abi32  0xa0000584        0x0 build/default/production/NxpNfcRdLib/comps/phbalReg/src/Pic32mxSPI/phbalReg_Pic32mxSpi.o
 .mdebug.abi32  0xa0000584        0x0 build/default/production/NxpNfcRdLib/comps/phbalReg/src/phbalReg.o
 .mdebug.abi32  0xa0000584        0x0 build/default/production/NxpNfcRdLib/comps/phceT4T/src/Sw/phceT4T_Sw.o
 .mdebug.abi32  0xa0000584        0x0 build/default/production/NxpNfcRdLib/comps/phceT4T/src/Sw/phceT4T_Sw_Int.o
 .mdebug.abi32  0xa0000584        0x0 build/default/production/NxpNfcRdLib/comps/phceT4T/src/phceT4T.o
 .mdebug.abi32  0xa0000584        0x0 build/default/production/NxpNfcRdLib/comps/phCidManager/src/Sw/phCidManager_Sw.o
 .mdebug.abi32  0xa0000584        0x0 build/default/production/NxpNfcRdLib/comps/phCidManager/src/phCidManager.o
 .mdebug.abi32  0xa0000584        0x0 build/default/production/NxpNfcRdLib/comps/phCryptoRng/src/Sw/phCryptoRng_Sw.o
 .mdebug.abi32  0xa0000584        0x0 build/default/production/NxpNfcRdLib/comps/phCryptoRng/src/phCryptoRng.o
 .mdebug.abi32  0xa0000584        0x0 build/default/production/NxpNfcRdLib/comps/phCryptoSym/src/Sw/phCryptoSym_Sw.o
 .mdebug.abi32  0xa0000584        0x0 build/default/production/NxpNfcRdLib/comps/phCryptoSym/src/Sw/phCryptoSym_Sw_Aes.o
 .mdebug.abi32  0xa0000584        0x0 build/default/production/NxpNfcRdLib/comps/phCryptoSym/src/Sw/phCryptoSym_Sw_Des.o
 .mdebug.abi32  0xa0000584        0x0 build/default/production/NxpNfcRdLib/comps/phCryptoSym/src/Sw/phCryptoSym_Sw_Int.o
 .mdebug.abi32  0xa0000584        0x0 build/default/production/NxpNfcRdLib/comps/phCryptoSym/src/phCryptoSym.o
 .mdebug.abi32  0xa0000584        0x0 build/default/production/NxpNfcRdLib/comps/phhalHw/src/Pn5180/phhalHw_Pn5180.o
 .mdebug.abi32  0xa0000584        0x0 build/default/production/NxpNfcRdLib/comps/phhalHw/src/Pn5180/phhalHw_Pn5180_Instr.o
 .mdebug.abi32  0xa0000584        0x0 build/default/production/NxpNfcRdLib/comps/phhalHw/src/Pn5180/phhalHw_Pn5180_Int.o
 .mdebug.abi32  0xa0000584        0x0 build/default/production/NxpNfcRdLib/comps/phhalHw/src/Pn5180/phhalHw_Pn5180_Wait.o
 .mdebug.abi32  0xa0000584        0x0 build/default/production/NxpNfcRdLib/comps/phhalHw/src/PN7462AU/phhalHw_PN7462AU.o
 .mdebug.abi32  0xa0000584        0x0 build/default/production/NxpNfcRdLib/comps/phhalHw/src/PN7462AU/phhalHw_PN7462AU_Int.o
 .mdebug.abi32  0xa0000584        0x0 build/default/production/NxpNfcRdLib/comps/phhalHw/src/Rc523/phhalHw_Rc523.o
 .mdebug.abi32  0xa0000584        0x0 build/default/production/NxpNfcRdLib/comps/phhalHw/src/Rc523/phhalHw_Rc523_Cmd.o
 .mdebug.abi32  0xa0000584        0x0 build/default/production/NxpNfcRdLib/comps/phhalHw/src/Rc523/phhalHw_Rc523_Int.o
 .mdebug.abi32  0xa0000584        0x0 build/default/production/NxpNfcRdLib/comps/phhalHw/src/Rc523/phhalHw_Rc523_Wait.o
 .mdebug.abi32  0xa0000584        0x0 build/default/production/NxpNfcRdLib/comps/phhalHw/src/Rc663/phhalHw_Rc663.o
 .mdebug.abi32  0xa0000584        0x0 build/default/production/NxpNfcRdLib/comps/phhalHw/src/Rc663/phhalHw_Rc663_Cmd.o
 .mdebug.abi32  0xa0000584        0x0 build/default/production/NxpNfcRdLib/comps/phhalHw/src/Rc663/phhalHw_Rc663_Int.o
 .mdebug.abi32  0xa0000584        0x0 build/default/production/NxpNfcRdLib/comps/phhalHw/src/Rc663/phhalHw_Rc663_Wait.o
 .mdebug.abi32  0xa0000584        0x0 build/default/production/NxpNfcRdLib/comps/phhalHw/src/phhalHw.o
 .mdebug.abi32  0xa0000584        0x0 build/default/production/NxpNfcRdLib/comps/phKeyStore/src/Rc663/phKeyStore_Rc663.o
 .mdebug.abi32  0xa0000584        0x0 build/default/production/NxpNfcRdLib/comps/phKeyStore/src/Sw/phKeyStore_Sw.o
 .mdebug.abi32  0xa0000584        0x0 build/default/production/NxpNfcRdLib/comps/phKeyStore/src/phKeyStore.o
 .mdebug.abi32  0xa0000584        0x0 build/default/production/NxpNfcRdLib/comps/phlnLlcp/src/Sw/phlnLlcp_Sw.o
 .mdebug.abi32  0xa0000584        0x0 build/default/production/NxpNfcRdLib/comps/phlnLlcp/src/Sw/phlnLlcp_Sw_Int.o
 .mdebug.abi32  0xa0000584        0x0 build/default/production/NxpNfcRdLib/comps/phlnLlcp/src/Sw/phlnLlcp_Sw_Mac.o
 .mdebug.abi32  0xa0000584        0x0 build/default/production/NxpNfcRdLib/comps/phlnLlcp/src/Sw/phlnLlcp_Sw_Transport.o
 .mdebug.abi32  0xa0000584        0x0 build/default/production/NxpNfcRdLib/comps/phlnLlcp/src/Sw/phlnLlcp_Sw_Transport_Connection.o
 .mdebug.abi32  0xa0000584        0x0 build/default/production/NxpNfcRdLib/comps/phlnLlcp/src/Sw/phlnLlcp_Sw_Transport_Connectionless.o
 .mdebug.abi32  0xa0000584        0x0 build/default/production/NxpNfcRdLib/comps/phlnLlcp/src/Sw/phlnLlcp_Timers.o
 .mdebug.abi32  0xa0000584        0x0 build/default/production/NxpNfcRdLib/comps/phlnLlcp/src/phlnLlcp.o
 .mdebug.abi32  0xa0000584        0x0 build/default/production/NxpNfcRdLib/comps/phLog/src/phLog.o
 .mdebug.abi32  0xa0000584        0x0 build/default/production/NxpNfcRdLib/comps/phNfcLib/src/phNfcLib.o
 .mdebug.abi32  0xa0000584        0x0 build/default/production/NxpNfcRdLib/comps/phNfcLib/src/phNfcLib_15693.o
 .mdebug.abi32  0xa0000584        0x0 build/default/production/NxpNfcRdLib/comps/phNfcLib/src/phNfcLib_18000p3m3.o
 .mdebug.abi32  0xa0000584        0x0 build/default/production/NxpNfcRdLib/comps/phNfcLib/src/phNfcLib_MFC.o
 .mdebug.abi32  0xa0000584        0x0 build/default/production/NxpNfcRdLib/comps/phNfcLib/src/phNfcLib_MFDF.o
 .mdebug.abi32  0xa0000584        0x0 build/default/production/NxpNfcRdLib/comps/phNfcLib/src/phNfcLib_MFUL.o
 .mdebug.abi32  0xa0000584        0x0 build/default/production/NxpNfcRdLib/comps/phNfcLib/src/phNfcLib_Utility.o
 .mdebug.abi32  0xa0000584        0x0 build/default/production/NxpNfcRdLib/comps/phnpSnep/src/Sw/phnpSnep_Sw.o
 .mdebug.abi32  0xa0000584        0x0 build/default/production/NxpNfcRdLib/comps/phnpSnep/src/phnpSnep.o
 .mdebug.abi32  0xa0000584        0x0 build/default/production/NxpNfcRdLib/comps/phOsal/src/Freertos/phOsal_Freertos.o
 .mdebug.abi32  0xa0000584        0x0 build/default/production/NxpNfcRdLib/comps/phOsal/src/Linux/phOsal_Linux.o
 .mdebug.abi32  0xa0000584        0x0 build/default/production/NxpNfcRdLib/comps/phOsal/src/NullOs/phOsal_NullOs.o
 .mdebug.abi32  0xa0000584        0x0 build/default/production/NxpNfcRdLib/comps/phpalEpcUid/src/Sw/phpalEpcUid_Sw.o
 .mdebug.abi32  0xa0000584        0x0 build/default/production/NxpNfcRdLib/comps/phpalEpcUid/src/phpalEpcUid.o
 .mdebug.abi32  0xa0000584        0x0 build/default/production/NxpNfcRdLib/comps/phpalFelica/src/Sw/phpalFelica_Sw.o
 .mdebug.abi32  0xa0000584        0x0 build/default/production/NxpNfcRdLib/comps/phpalFelica/src/phpalFelica.o
 .mdebug.abi32  0xa0000584        0x0 build/default/production/NxpNfcRdLib/comps/phpalI14443p3a/src/Sw/phpalI14443p3a_Sw.o
 .mdebug.abi32  0xa0000584        0x0 build/default/production/NxpNfcRdLib/comps/phpalI14443p3a/src/phpalI14443p3a.o
 .mdebug.abi32  0xa0000584        0x0 build/default/production/NxpNfcRdLib/comps/phpalI14443p3b/src/Sw/phpalI14443p3b_Sw.o
 .mdebug.abi32  0xa0000584        0x0 build/default/production/NxpNfcRdLib/comps/phpalI14443p3b/src/phpalI14443p3b.o
 .mdebug.abi32  0xa0000584        0x0 build/default/production/NxpNfcRdLib/comps/phpalI14443p4/src/Sw/phpalI14443p4_Sw.o
 .mdebug.abi32  0xa0000584        0x0 build/default/production/NxpNfcRdLib/comps/phpalI14443p4/src/phpalI14443p4.o
 .mdebug.abi32  0xa0000584        0x0 build/default/production/NxpNfcRdLib/comps/phpalI14443p4a/src/Sw/phpalI14443p4a_Sw.o
 .mdebug.abi32  0xa0000584        0x0 build/default/production/NxpNfcRdLib/comps/phpalI14443p4a/src/phpalI14443p4a.o
 .mdebug.abi32  0xa0000584        0x0 build/default/production/NxpNfcRdLib/comps/phpalI14443p4mC/src/Sw/phpalI14443p4mC_Sw.o
 .mdebug.abi32  0xa0000584        0x0 build/default/production/NxpNfcRdLib/comps/phpalI14443p4mC/src/Sw/phpalI14443p4mC_Sw_Int.o
 .mdebug.abi32  0xa0000584        0x0 build/default/production/NxpNfcRdLib/comps/phpalI14443p4mC/src/phpalI14443p4mC.o
 .mdebug.abi32  0xa0000584        0x0 build/default/production/NxpNfcRdLib/comps/phpalI18000p3m3/src/Sw/phpalI18000p3m3_Sw.o
 .mdebug.abi32  0xa0000584        0x0 build/default/production/NxpNfcRdLib/comps/phpalI18000p3m3/src/phpalI18000p3m3.o
 .mdebug.abi32  0xa0000584        0x0 build/default/production/NxpNfcRdLib/comps/phpalI18092mPI/src/Sw/phpalI18092mPI_Sw.o
 .mdebug.abi32  0xa0000584        0x0 build/default/production/NxpNfcRdLib/comps/phpalI18092mPI/src/Sw/phpalI18092mPI_Sw_Int.o
 .mdebug.abi32  0xa0000584        0x0 build/default/production/NxpNfcRdLib/comps/phpalI18092mPI/src/phpalI18092mPI.o
 .mdebug.abi32  0xa0000584        0x0 build/default/production/NxpNfcRdLib/comps/phpalI18092mT/src/Sw/phpalI18092mT_Sw.o
 .mdebug.abi32  0xa0000584        0x0 build/default/production/NxpNfcRdLib/comps/phpalI18092mT/src/Sw/phpalI18092mT_Sw_Int.o
 .mdebug.abi32  0xa0000584        0x0 build/default/production/NxpNfcRdLib/comps/phpalI18092mT/src/phpalI18092mT.o
 .mdebug.abi32  0xa0000584        0x0 build/default/production/NxpNfcRdLib/comps/phpalMifare/src/Sw/phpalMifare_Sw.o
 .mdebug.abi32  0xa0000584        0x0 build/default/production/NxpNfcRdLib/comps/phpalMifare/src/phpalMifare.o
 .mdebug.abi32  0xa0000584        0x0 build/default/production/NxpNfcRdLib/comps/phpalSli15693/src/Sw/phpalSli15693_Sw.o
 .mdebug.abi32  0xa0000584        0x0 build/default/production/NxpNfcRdLib/comps/phpalSli15693/src/phpalSli15693.o
 .mdebug.abi32  0xa0000584        0x0 build/default/production/NxpNfcRdLib/comps/phPlatform/src/Port/K81/phPlatform_Port_K81.o
 .mdebug.abi32  0xa0000584        0x0 build/default/production/NxpNfcRdLib/comps/phPlatform/src/Port/K81/phPlatform_Port_KinetisTimer.o
 .mdebug.abi32  0xa0000584        0x0 build/default/production/NxpNfcRdLib/comps/phPlatform/src/Port/K82/phPlatform_Port_K82.o
 .mdebug.abi32  0xa0000584        0x0 build/default/production/NxpNfcRdLib/comps/phPlatform/src/Port/K82/phPlatform_Port_K82Timer.o
 .mdebug.abi32  0xa0000584        0x0 build/default/production/NxpNfcRdLib/comps/phPlatform/src/Port/LPC11u68/cr_startup_lpc11u6x.o
 .mdebug.abi32  0xa0000584        0x0 build/default/production/NxpNfcRdLib/comps/phPlatform/src/Port/LPC11u68/phPlatform_Port_LPC11u68.o
 .mdebug.abi32  0xa0000584        0x0 build/default/production/NxpNfcRdLib/comps/phPlatform/src/Port/LPC1769/cr_startup_lpc175x_6x.o
 .mdebug.abi32  0xa0000584        0x0 build/default/production/NxpNfcRdLib/comps/phPlatform/src/Port/LPC1769/keil_iar_sysinit.o
 .mdebug.abi32  0xa0000584        0x0 build/default/production/NxpNfcRdLib/comps/phPlatform/src/Port/LPC1769/phPlatform_Port_LPC1769.o
 .mdebug.abi32  0xa0000584        0x0 build/default/production/NxpNfcRdLib/comps/phPlatform/src/Port/LPCTimer/phPlatform_Port_LPCTimer.o
 .mdebug.abi32  0xa0000584        0x0 build/default/production/NxpNfcRdLib/comps/phPlatform/src/Port/PIC32MX/phPlatform_Port_PIC32MX.o
 .mdebug.abi32  0xa0000584        0x0 build/default/production/NxpNfcRdLib/comps/phPlatform/src/Port/PIC32MX/phPlatform_Port_PIC32MXTimer.o
 .mdebug.abi32  0xa0000584        0x0 build/default/production/NxpNfcRdLib/comps/phPlatform/src/Port/PN7462AU/phPlatform_Port_PN7462AU.o
 .mdebug.abi32  0xa0000584        0x0 build/default/production/NxpNfcRdLib/comps/phPlatform/src/Port/RaspberryPi/phPlatform_Port_Pi.o
 .mdebug.abi32  0xa0000584        0x0 build/default/production/NxpNfcRdLib/comps/phPlatform/src/Port/RaspberryPi/phPlatform_Port_PiGpio.o
 .mdebug.abi32  0xa0000584        0x0 build/default/production/NxpNfcRdLib/comps/phPlatform/src/phPlatform.o
 .mdebug.abi32  0xa0000584        0x0 build/default/production/NxpNfcRdLib/comps/phTools/src/phTools.o
 .mdebug.abi32  0xa0000584        0x0 build/default/production/NxpNfcRdLib/comps/phTools/src/phTools_Q.o
 .mdebug.abi32  0xa0000584        0x0 build/default/production/main.o
 .mdebug.abi32  0xa0000584        0x0 c:/program files (x86)/microchip/xc32/v2.05/bin/bin/../../lib/gcc/pic32mx/4.8.3\libgcc.a(floatunsisf.o)
 .mdebug.abi32  0xa0000584        0x0 c:/program files (x86)/microchip/xc32/v2.05/bin/bin/../../lib/gcc/pic32mx/4.8.3/../../../../pic32mx/lib\libpic32.a(default-bootstrap-exception-handler.o)
 .mdebug.abi32  0xa0000584        0x0 c:/program files (x86)/microchip/xc32/v2.05/bin/bin/../../lib/gcc/pic32mx/4.8.3/../../../../pic32mx/lib\libpic32.a(default-on-reset.o)
 .mdebug.abi32  0xa0000584        0x0 c:/program files (x86)/microchip/xc32/v2.05/bin/bin/../../lib/gcc/pic32mx/4.8.3/../../../../pic32mx/lib\libpic32.a(default-on-bootstrap.o)
 .mdebug.abi32  0xa0000584        0x0 c:/program files (x86)/microchip/xc32/v2.05/bin/bin/../../lib/gcc/pic32mx/4.8.3/../../../../pic32mx/lib\libpic32.a(defaultinterrupt.o)

.mdebug.abiN32
 *(.mdebug.abiN32)

.mdebug.abi64
 *(.mdebug.abi64)

.mdebug.abiO64
 *(.mdebug.abiO64)

.mdebug.eabi32
 *(.mdebug.eabi32)

.mdebug.eabi64
 *(.mdebug.eabi64)

.gcc_compiled_long32
 *(.gcc_compiled_long32)

.gcc_compiled_long64
 *(.gcc_compiled_long64)

.stab
 *(.stab)

.stabstr
 *(.stabstr)

.stab.excl
 *(.stab.excl)

.stab.exclstr
 *(.stab.exclstr)

.stab.index
 *(.stab.index)

.stab.indexstr
 *(.stab.indexstr)

.comment        0x00000000       0x85
 *(.comment)
 .comment       0x00000000       0x3c build/default/production/mcc_generated_files/tmr2.o
                                 0x3d (size before relaxing)
 .comment       0x00000000       0x3d build/default/production/mcc_generated_files/uart1.o
 .comment       0x00000000       0x3d build/default/production/mcc_generated_files/interrupt_manager.o
 .comment       0x00000000       0x3d build/default/production/mcc_generated_files/tmr1.o
 .comment       0x00000000       0x3d build/default/production/mcc_generated_files/mcc.o
 .comment       0x00000000       0x3d build/default/production/mcc_generated_files/pin_manager.o
 .comment       0x00000000       0x3d build/default/production/mcc_generated_files/spi1.o
 .comment       0x00000000       0x3d build/default/production/mcc_generated_files/adc1.o
 .comment       0x00000000       0x3d build/default/production/mcc_generated_files/spi2.o
 .comment       0x00000000       0x3d build/default/production/nxp_reader_config_files/phApp_Init.o
 .comment       0x00000000       0x3d build/default/production/NxpNfcRdLib/comps/phacDiscLoop/src/Sw/phacDiscLoop_Sw.o
 .comment       0x00000000       0x3d build/default/production/NxpNfcRdLib/comps/phacDiscLoop/src/Sw/phacDiscLoop_Sw_Int.o
 .comment       0x00000000       0x3d build/default/production/NxpNfcRdLib/comps/phacDiscLoop/src/Sw/phacDiscLoop_Sw_Int_A.o
 .comment       0x00000000       0x3d build/default/production/NxpNfcRdLib/comps/phacDiscLoop/src/Sw/phacDiscLoop_Sw_Int_B.o
 .comment       0x00000000       0x3d build/default/production/NxpNfcRdLib/comps/phacDiscLoop/src/Sw/phacDiscLoop_Sw_Int_F.o
 .comment       0x00000000       0x3d build/default/production/NxpNfcRdLib/comps/phacDiscLoop/src/Sw/phacDiscLoop_Sw_Int_I18000p3m3.o
 .comment       0x00000000       0x3d build/default/production/NxpNfcRdLib/comps/phacDiscLoop/src/Sw/phacDiscLoop_Sw_Int_V.o
 .comment       0x00000000       0x3d build/default/production/NxpNfcRdLib/comps/phacDiscLoop/src/phacDiscLoop.o
 .comment       0x00000000       0x3d build/default/production/NxpNfcRdLib/comps/phalFelica/src/Sw/phalFelica_Sw.o
 .comment       0x00000000       0x3d build/default/production/NxpNfcRdLib/comps/phalFelica/src/phalFelica.o
 .comment       0x00000000       0x3d build/default/production/NxpNfcRdLib/comps/phalI15693/src/Sw/phalI15693_Sw.o
 .comment       0x00000000       0x3d build/default/production/NxpNfcRdLib/comps/phalI15693/src/phalI15693.o
 .comment       0x00000000       0x3d build/default/production/NxpNfcRdLib/comps/phalI18000p3m3/src/Sw/phalI18000p3m3_Sw.o
 .comment       0x00000000       0x3d build/default/production/NxpNfcRdLib/comps/phalI18000p3m3/src/Sw/phalI18000p3m3_Sw_Int.o
 .comment       0x00000000       0x3d build/default/production/NxpNfcRdLib/comps/phalI18000p3m3/src/phalI18000p3m3.o
 .comment       0x00000000       0x3d build/default/production/NxpNfcRdLib/comps/phalMfc/src/Sw/phalMfc_Sw.o
 .comment       0x00000000       0x3d build/default/production/NxpNfcRdLib/comps/phalMfc/src/phalMfc.o
 .comment       0x00000000       0x3d build/default/production/NxpNfcRdLib/comps/phalMfc/src/phalMfc_Int.o
 .comment       0x00000000       0x3d build/default/production/NxpNfcRdLib/comps/phalMfdf/src/Sw/phalMfdf_Sw.o
 .comment       0x00000000       0x3d build/default/production/NxpNfcRdLib/comps/phalMfdf/src/Sw/phalMfdf_Sw_Int.o
 .comment       0x00000000       0x3d build/default/production/NxpNfcRdLib/comps/phalMfdf/src/phalMfdf.o
 .comment       0x00000000       0x3d build/default/production/NxpNfcRdLib/comps/phalMfdf/src/phalMfdf_Int.o
 .comment       0x00000000       0x3d build/default/production/NxpNfcRdLib/comps/phalMful/src/Sw/phalMful_Sw.o
 .comment       0x00000000       0x3d build/default/production/NxpNfcRdLib/comps/phalMful/src/phalMful.o
 .comment       0x00000000       0x3d build/default/production/NxpNfcRdLib/comps/phalMful/src/phalMful_Int.o
 .comment       0x00000000       0x3d build/default/production/NxpNfcRdLib/comps/phalSli/src/Sw/phalSli_Sw.o
 .comment       0x00000000       0x3d build/default/production/NxpNfcRdLib/comps/phalSli/src/phalSli.o
 .comment       0x00000000       0x3d build/default/production/NxpNfcRdLib/comps/phalT1T/src/Sw/phalT1T_Sw.o
 .comment       0x00000000       0x3d build/default/production/NxpNfcRdLib/comps/phalT1T/src/phalT1T.o
 .comment       0x00000000       0x3d build/default/production/NxpNfcRdLib/comps/phalTop/src/Sw/phalTop_Sw.o
 .comment       0x00000000       0x3d build/default/production/NxpNfcRdLib/comps/phalTop/src/Sw/phalTop_Sw_Int_T1T.o
 .comment       0x00000000       0x3d build/default/production/NxpNfcRdLib/comps/phalTop/src/Sw/phalTop_Sw_Int_T2T.o
 .comment       0x00000000       0x3d build/default/production/NxpNfcRdLib/comps/phalTop/src/Sw/phalTop_Sw_Int_T3T.o
 .comment       0x00000000       0x3d build/default/production/NxpNfcRdLib/comps/phalTop/src/Sw/phalTop_Sw_Int_T4T.o
 .comment       0x00000000       0x3d build/default/production/NxpNfcRdLib/comps/phalTop/src/Sw/phalTop_Sw_Int_T5T.o
 .comment       0x00000000       0x3d build/default/production/NxpNfcRdLib/comps/phalTop/src/phalTop.o
 .comment       0x00000000       0x3d build/default/production/NxpNfcRdLib/comps/phbalReg/src/KinetisI2C/phbalReg_KinetisI2C.o
 .comment       0x00000000       0x3d build/default/production/NxpNfcRdLib/comps/phbalReg/src/KinetisSPI/phbalReg_KinetisSpi.o
 .comment       0x00000000       0x3d build/default/production/NxpNfcRdLib/comps/phbalReg/src/LinuxKernelSpi/phbalReg_LinuxKernelSpi.o
 .comment       0x00000000       0x3d build/default/production/NxpNfcRdLib/comps/phbalReg/src/LinuxUserI2C/phbalReg_LinuxUserI2C.o
 .comment       0x00000000       0x3d build/default/production/NxpNfcRdLib/comps/phbalReg/src/LinuxUserSpi/phbalReg_LinuxUserSpi.o
 .comment       0x00000000       0x3d build/default/production/NxpNfcRdLib/comps/phbalReg/src/LpcOpenI2C/phbalReg_LpcOpenI2c.o
 .comment       0x00000000       0x3d build/default/production/NxpNfcRdLib/comps/phbalReg/src/LpcOpenSPI/phbalReg_LpcOpenSpi.o
 .comment       0x00000000       0x3d build/default/production/NxpNfcRdLib/comps/phbalReg/src/Pic32mxSPI/phbalReg_Pic32mxSpi.o
 .comment       0x00000000       0x3d build/default/production/NxpNfcRdLib/comps/phbalReg/src/phbalReg.o
 .comment       0x00000000       0x3d build/default/production/NxpNfcRdLib/comps/phceT4T/src/Sw/phceT4T_Sw.o
 .comment       0x00000000       0x3d build/default/production/NxpNfcRdLib/comps/phceT4T/src/Sw/phceT4T_Sw_Int.o
 .comment       0x00000000       0x3d build/default/production/NxpNfcRdLib/comps/phceT4T/src/phceT4T.o
 .comment       0x00000000       0x3d build/default/production/NxpNfcRdLib/comps/phCidManager/src/Sw/phCidManager_Sw.o
 .comment       0x00000000       0x3d build/default/production/NxpNfcRdLib/comps/phCidManager/src/phCidManager.o
 .comment       0x00000000       0x3d build/default/production/NxpNfcRdLib/comps/phCryptoRng/src/Sw/phCryptoRng_Sw.o
 .comment       0x00000000       0x3d build/default/production/NxpNfcRdLib/comps/phCryptoRng/src/phCryptoRng.o
 .comment       0x00000000       0x3d build/default/production/NxpNfcRdLib/comps/phCryptoSym/src/Sw/phCryptoSym_Sw.o
 .comment       0x00000000       0x3d build/default/production/NxpNfcRdLib/comps/phCryptoSym/src/Sw/phCryptoSym_Sw_Aes.o
 .comment       0x00000000       0x3d build/default/production/NxpNfcRdLib/comps/phCryptoSym/src/Sw/phCryptoSym_Sw_Des.o
 .comment       0x00000000       0x3d build/default/production/NxpNfcRdLib/comps/phCryptoSym/src/Sw/phCryptoSym_Sw_Int.o
 .comment       0x00000000       0x3d build/default/production/NxpNfcRdLib/comps/phCryptoSym/src/phCryptoSym.o
 .comment       0x00000000       0x3d build/default/production/NxpNfcRdLib/comps/phhalHw/src/Pn5180/phhalHw_Pn5180.o
 .comment       0x00000000       0x3d build/default/production/NxpNfcRdLib/comps/phhalHw/src/Pn5180/phhalHw_Pn5180_Instr.o
 .comment       0x00000000       0x3d build/default/production/NxpNfcRdLib/comps/phhalHw/src/Pn5180/phhalHw_Pn5180_Int.o
 .comment       0x00000000       0x3d build/default/production/NxpNfcRdLib/comps/phhalHw/src/Pn5180/phhalHw_Pn5180_Wait.o
 .comment       0x00000000       0x3d build/default/production/NxpNfcRdLib/comps/phhalHw/src/PN7462AU/phhalHw_PN7462AU.o
 .comment       0x00000000       0x3d build/default/production/NxpNfcRdLib/comps/phhalHw/src/PN7462AU/phhalHw_PN7462AU_Int.o
 .comment       0x00000000       0x3d build/default/production/NxpNfcRdLib/comps/phhalHw/src/Rc523/phhalHw_Rc523.o
 .comment       0x00000000       0x3d build/default/production/NxpNfcRdLib/comps/phhalHw/src/Rc523/phhalHw_Rc523_Cmd.o
 .comment       0x00000000       0x3d build/default/production/NxpNfcRdLib/comps/phhalHw/src/Rc523/phhalHw_Rc523_Int.o
 .comment       0x00000000       0x3d build/default/production/NxpNfcRdLib/comps/phhalHw/src/Rc523/phhalHw_Rc523_Wait.o
 .comment       0x00000000       0x3d build/default/production/NxpNfcRdLib/comps/phhalHw/src/Rc663/phhalHw_Rc663.o
 .comment       0x00000000       0x3d build/default/production/NxpNfcRdLib/comps/phhalHw/src/Rc663/phhalHw_Rc663_Cmd.o
 .comment       0x00000000       0x3d build/default/production/NxpNfcRdLib/comps/phhalHw/src/Rc663/phhalHw_Rc663_Int.o
 .comment       0x00000000       0x3d build/default/production/NxpNfcRdLib/comps/phhalHw/src/Rc663/phhalHw_Rc663_Wait.o
 .comment       0x00000000       0x3d build/default/production/NxpNfcRdLib/comps/phhalHw/src/phhalHw.o
 .comment       0x00000000       0x3d build/default/production/NxpNfcRdLib/comps/phKeyStore/src/Rc663/phKeyStore_Rc663.o
 .comment       0x00000000       0x3d build/default/production/NxpNfcRdLib/comps/phKeyStore/src/Sw/phKeyStore_Sw.o
 .comment       0x00000000       0x3d build/default/production/NxpNfcRdLib/comps/phKeyStore/src/phKeyStore.o
 .comment       0x00000000       0x3d build/default/production/NxpNfcRdLib/comps/phlnLlcp/src/Sw/phlnLlcp_Sw.o
 .comment       0x00000000       0x3d build/default/production/NxpNfcRdLib/comps/phlnLlcp/src/Sw/phlnLlcp_Sw_Int.o
 .comment       0x00000000       0x3d build/default/production/NxpNfcRdLib/comps/phlnLlcp/src/Sw/phlnLlcp_Sw_Mac.o
 .comment       0x00000000       0x3d build/default/production/NxpNfcRdLib/comps/phlnLlcp/src/Sw/phlnLlcp_Sw_Transport.o
 .comment       0x00000000       0x3d build/default/production/NxpNfcRdLib/comps/phlnLlcp/src/Sw/phlnLlcp_Sw_Transport_Connection.o
 .comment       0x00000000       0x3d build/default/production/NxpNfcRdLib/comps/phlnLlcp/src/Sw/phlnLlcp_Sw_Transport_Connectionless.o
 .comment       0x00000000       0x3d build/default/production/NxpNfcRdLib/comps/phlnLlcp/src/Sw/phlnLlcp_Timers.o
 .comment       0x00000000       0x3d build/default/production/NxpNfcRdLib/comps/phlnLlcp/src/phlnLlcp.o
 .comment       0x00000000       0x3d build/default/production/NxpNfcRdLib/comps/phLog/src/phLog.o
 .comment       0x00000000       0x3d build/default/production/NxpNfcRdLib/comps/phNfcLib/src/phNfcLib.o
 .comment       0x00000000       0x3d build/default/production/NxpNfcRdLib/comps/phNfcLib/src/phNfcLib_15693.o
 .comment       0x00000000       0x3d build/default/production/NxpNfcRdLib/comps/phNfcLib/src/phNfcLib_18000p3m3.o
 .comment       0x00000000       0x3d build/default/production/NxpNfcRdLib/comps/phNfcLib/src/phNfcLib_MFC.o
 .comment       0x00000000       0x3d build/default/production/NxpNfcRdLib/comps/phNfcLib/src/phNfcLib_MFDF.o
 .comment       0x00000000       0x3d build/default/production/NxpNfcRdLib/comps/phNfcLib/src/phNfcLib_MFUL.o
 .comment       0x00000000       0x3d build/default/production/NxpNfcRdLib/comps/phNfcLib/src/phNfcLib_Utility.o
 .comment       0x00000000       0x3d build/default/production/NxpNfcRdLib/comps/phnpSnep/src/Sw/phnpSnep_Sw.o
 .comment       0x00000000       0x3d build/default/production/NxpNfcRdLib/comps/phnpSnep/src/phnpSnep.o
 .comment       0x00000000       0x3d build/default/production/NxpNfcRdLib/comps/phOsal/src/Freertos/phOsal_Freertos.o
 .comment       0x00000000       0x3d build/default/production/NxpNfcRdLib/comps/phOsal/src/Linux/phOsal_Linux.o
 .comment       0x00000000       0x3d build/default/production/NxpNfcRdLib/comps/phOsal/src/NullOs/phOsal_NullOs.o
 .comment       0x00000000       0x3d build/default/production/NxpNfcRdLib/comps/phpalEpcUid/src/Sw/phpalEpcUid_Sw.o
 .comment       0x00000000       0x3d build/default/production/NxpNfcRdLib/comps/phpalEpcUid/src/phpalEpcUid.o
 .comment       0x00000000       0x3d build/default/production/NxpNfcRdLib/comps/phpalFelica/src/Sw/phpalFelica_Sw.o
 .comment       0x00000000       0x3d build/default/production/NxpNfcRdLib/comps/phpalFelica/src/phpalFelica.o
 .comment       0x00000000       0x3d build/default/production/NxpNfcRdLib/comps/phpalI14443p3a/src/Sw/phpalI14443p3a_Sw.o
 .comment       0x00000000       0x3d build/default/production/NxpNfcRdLib/comps/phpalI14443p3a/src/phpalI14443p3a.o
 .comment       0x00000000       0x3d build/default/production/NxpNfcRdLib/comps/phpalI14443p3b/src/Sw/phpalI14443p3b_Sw.o
 .comment       0x00000000       0x3d build/default/production/NxpNfcRdLib/comps/phpalI14443p3b/src/phpalI14443p3b.o
 .comment       0x00000000       0x3d build/default/production/NxpNfcRdLib/comps/phpalI14443p4/src/Sw/phpalI14443p4_Sw.o
 .comment       0x00000000       0x3d build/default/production/NxpNfcRdLib/comps/phpalI14443p4/src/phpalI14443p4.o
 .comment       0x00000000       0x3d build/default/production/NxpNfcRdLib/comps/phpalI14443p4a/src/Sw/phpalI14443p4a_Sw.o
 .comment       0x00000000       0x3d build/default/production/NxpNfcRdLib/comps/phpalI14443p4a/src/phpalI14443p4a.o
 .comment       0x00000000       0x3d build/default/production/NxpNfcRdLib/comps/phpalI14443p4mC/src/Sw/phpalI14443p4mC_Sw.o
 .comment       0x00000000       0x3d build/default/production/NxpNfcRdLib/comps/phpalI14443p4mC/src/Sw/phpalI14443p4mC_Sw_Int.o
 .comment       0x00000000       0x3d build/default/production/NxpNfcRdLib/comps/phpalI14443p4mC/src/phpalI14443p4mC.o
 .comment       0x00000000       0x3d build/default/production/NxpNfcRdLib/comps/phpalI18000p3m3/src/Sw/phpalI18000p3m3_Sw.o
 .comment       0x00000000       0x3d build/default/production/NxpNfcRdLib/comps/phpalI18000p3m3/src/phpalI18000p3m3.o
 .comment       0x00000000       0x3d build/default/production/NxpNfcRdLib/comps/phpalI18092mPI/src/Sw/phpalI18092mPI_Sw.o
 .comment       0x00000000       0x3d build/default/production/NxpNfcRdLib/comps/phpalI18092mPI/src/Sw/phpalI18092mPI_Sw_Int.o
 .comment       0x00000000       0x3d build/default/production/NxpNfcRdLib/comps/phpalI18092mPI/src/phpalI18092mPI.o
 .comment       0x00000000       0x3d build/default/production/NxpNfcRdLib/comps/phpalI18092mT/src/Sw/phpalI18092mT_Sw.o
 .comment       0x00000000       0x3d build/default/production/NxpNfcRdLib/comps/phpalI18092mT/src/Sw/phpalI18092mT_Sw_Int.o
 .comment       0x00000000       0x3d build/default/production/NxpNfcRdLib/comps/phpalI18092mT/src/phpalI18092mT.o
 .comment       0x00000000       0x3d build/default/production/NxpNfcRdLib/comps/phpalMifare/src/Sw/phpalMifare_Sw.o
 .comment       0x00000000       0x3d build/default/production/NxpNfcRdLib/comps/phpalMifare/src/phpalMifare.o
 .comment       0x00000000       0x3d build/default/production/NxpNfcRdLib/comps/phpalSli15693/src/Sw/phpalSli15693_Sw.o
 .comment       0x00000000       0x3d build/default/production/NxpNfcRdLib/comps/phpalSli15693/src/phpalSli15693.o
 .comment       0x00000000       0x3d build/default/production/NxpNfcRdLib/comps/phPlatform/src/Port/K81/phPlatform_Port_K81.o
 .comment       0x00000000       0x3d build/default/production/NxpNfcRdLib/comps/phPlatform/src/Port/K81/phPlatform_Port_KinetisTimer.o
 .comment       0x00000000       0x3d build/default/production/NxpNfcRdLib/comps/phPlatform/src/Port/K82/phPlatform_Port_K82.o
 .comment       0x00000000       0x3d build/default/production/NxpNfcRdLib/comps/phPlatform/src/Port/K82/phPlatform_Port_K82Timer.o
 .comment       0x00000000       0x3d build/default/production/NxpNfcRdLib/comps/phPlatform/src/Port/LPC11u68/cr_startup_lpc11u6x.o
 .comment       0x00000000       0x3d build/default/production/NxpNfcRdLib/comps/phPlatform/src/Port/LPC11u68/phPlatform_Port_LPC11u68.o
 .comment       0x00000000       0x3d build/default/production/NxpNfcRdLib/comps/phPlatform/src/Port/LPC1769/cr_startup_lpc175x_6x.o
 .comment       0x00000000       0x3d build/default/production/NxpNfcRdLib/comps/phPlatform/src/Port/LPC1769/keil_iar_sysinit.o
 .comment       0x00000000       0x3d build/default/production/NxpNfcRdLib/comps/phPlatform/src/Port/LPC1769/phPlatform_Port_LPC1769.o
 .comment       0x00000000       0x3d build/default/production/NxpNfcRdLib/comps/phPlatform/src/Port/LPCTimer/phPlatform_Port_LPCTimer.o
 .comment       0x00000000       0x3d build/default/production/NxpNfcRdLib/comps/phPlatform/src/Port/PIC32MX/phPlatform_Port_PIC32MX.o
 .comment       0x00000000       0x3d build/default/production/NxpNfcRdLib/comps/phPlatform/src/Port/PIC32MX/phPlatform_Port_PIC32MXTimer.o
 .comment       0x00000000       0x3d build/default/production/NxpNfcRdLib/comps/phPlatform/src/Port/PN7462AU/phPlatform_Port_PN7462AU.o
 .comment       0x00000000       0x3d build/default/production/NxpNfcRdLib/comps/phPlatform/src/Port/RaspberryPi/phPlatform_Port_Pi.o
 .comment       0x00000000       0x3d build/default/production/NxpNfcRdLib/comps/phPlatform/src/Port/RaspberryPi/phPlatform_Port_PiGpio.o
 .comment       0x00000000       0x3d build/default/production/NxpNfcRdLib/comps/phPlatform/src/phPlatform.o
 .comment       0x00000000       0x3d build/default/production/NxpNfcRdLib/comps/phTools/src/phTools.o
 .comment       0x00000000       0x3d build/default/production/NxpNfcRdLib/comps/phTools/src/phTools_Q.o
 .comment       0x00000000       0x3d build/default/production/main.o
 .comment       0x00000000       0x3d c:/program files (x86)/microchip/xc32/v2.05/bin/bin/../../lib/gcc/pic32mx/4.8.3\libgcc.a(floatunsisf.o)
 .comment       0x0000003c       0x18 c:/program files (x86)/microchip/xc32/v2.05/bin/bin/../../lib/gcc/pic32mx/4.8.3/../../../../pic32mx/lib\libpic32.a(memcmp.o)
                                 0x19 (size before relaxing)
 .comment       0x00000054       0x18 c:/program files (x86)/microchip/xc32/v2.05/bin/bin/../../lib/gcc/pic32mx/4.8.3/../../../../pic32mx/lib\libpic32.a(memset.o)
                                 0x19 (size before relaxing)
 .comment       0x0000006c       0x19 c:/program files (x86)/microchip/xc32/v2.05/bin/bin/../../lib/gcc/pic32mx/4.8.3/../../../../pic32mx/lib\libpic32.a(strcpy.o)
                                 0x1a (size before relaxing)
 .comment       0x00000000       0x3d c:/program files (x86)/microchip/xc32/v2.05/bin/bin/../../lib/gcc/pic32mx/4.8.3/../../../../pic32mx/lib\libpic32.a(default-bootstrap-exception-handler.o)
 .comment       0x00000000       0x3d c:/program files (x86)/microchip/xc32/v2.05/bin/bin/../../lib/gcc/pic32mx/4.8.3/../../../../pic32mx/lib\libpic32.a(default-on-reset.o)
 .comment       0x00000000       0x3d c:/program files (x86)/microchip/xc32/v2.05/bin/bin/../../lib/gcc/pic32mx/4.8.3/../../../../pic32mx/lib\libpic32.a(default-on-bootstrap.o)
 .comment       0x00000000       0x3d c:/program files (x86)/microchip/xc32/v2.05/bin/bin/../../lib/gcc/pic32mx/4.8.3/../../../../pic32mx/lib\libpic32.a(defaultinterrupt.o)

.debug
 *(.debug)

.line
 *(.line)

.debug_srcinfo
 *(.debug_srcinfo)

.debug_sfnames
 *(.debug_sfnames)

.debug_aranges  0x00000000     0x1ac0
 *(.debug_aranges)
 .debug_aranges
                0x00000000       0x78 build/default/production/mcc_generated_files/tmr2.o
 .debug_aranges
                0x00000078       0x80 build/default/production/mcc_generated_files/uart1.o
 .debug_aranges
                0x000000f8       0x20 build/default/production/mcc_generated_files/interrupt_manager.o
 .debug_aranges
                0x00000118       0x78 build/default/production/mcc_generated_files/tmr1.o
 .debug_aranges
                0x00000190       0x40 build/default/production/mcc_generated_files/mcc.o
 .debug_aranges
                0x000001d0       0x28 build/default/production/mcc_generated_files/pin_manager.o
 .debug_aranges
                0x000001f8       0x48 build/default/production/mcc_generated_files/spi1.o
 .debug_aranges
                0x00000240       0x58 build/default/production/mcc_generated_files/adc1.o
 .debug_aranges
                0x00000298       0x48 build/default/production/mcc_generated_files/spi2.o
 .debug_aranges
                0x000002e0       0x50 build/default/production/nxp_reader_config_files/phApp_Init.o
 .debug_aranges
                0x00000330       0x40 build/default/production/NxpNfcRdLib/comps/phacDiscLoop/src/Sw/phacDiscLoop_Sw.o
 .debug_aranges
                0x00000370       0x78 build/default/production/NxpNfcRdLib/comps/phacDiscLoop/src/Sw/phacDiscLoop_Sw_Int.o
 .debug_aranges
                0x000003e8       0x30 build/default/production/NxpNfcRdLib/comps/phacDiscLoop/src/Sw/phacDiscLoop_Sw_Int_A.o
 .debug_aranges
                0x00000418       0x30 build/default/production/NxpNfcRdLib/comps/phacDiscLoop/src/Sw/phacDiscLoop_Sw_Int_B.o
 .debug_aranges
                0x00000448       0x30 build/default/production/NxpNfcRdLib/comps/phacDiscLoop/src/Sw/phacDiscLoop_Sw_Int_F.o
 .debug_aranges
                0x00000478       0x30 build/default/production/NxpNfcRdLib/comps/phacDiscLoop/src/Sw/phacDiscLoop_Sw_Int_I18000p3m3.o
 .debug_aranges
                0x000004a8       0x30 build/default/production/NxpNfcRdLib/comps/phacDiscLoop/src/Sw/phacDiscLoop_Sw_Int_V.o
 .debug_aranges
                0x000004d8       0x18 build/default/production/NxpNfcRdLib/comps/phacDiscLoop/src/phacDiscLoop.o
 .debug_aranges
                0x000004f0       0x18 build/default/production/NxpNfcRdLib/comps/phalFelica/src/Sw/phalFelica_Sw.o
 .debug_aranges
                0x00000508       0x18 build/default/production/NxpNfcRdLib/comps/phalFelica/src/phalFelica.o
 .debug_aranges
                0x00000520       0x18 build/default/production/NxpNfcRdLib/comps/phalI15693/src/Sw/phalI15693_Sw.o
 .debug_aranges
                0x00000538       0x18 build/default/production/NxpNfcRdLib/comps/phalI15693/src/phalI15693.o
 .debug_aranges
                0x00000550       0x18 build/default/production/NxpNfcRdLib/comps/phalI18000p3m3/src/Sw/phalI18000p3m3_Sw.o
 .debug_aranges
                0x00000568       0x18 build/default/production/NxpNfcRdLib/comps/phalI18000p3m3/src/Sw/phalI18000p3m3_Sw_Int.o
 .debug_aranges
                0x00000580       0x18 build/default/production/NxpNfcRdLib/comps/phalI18000p3m3/src/phalI18000p3m3.o
 .debug_aranges
                0x00000598       0x90 build/default/production/NxpNfcRdLib/comps/phalMfc/src/Sw/phalMfc_Sw.o
 .debug_aranges
                0x00000628       0x18 build/default/production/NxpNfcRdLib/comps/phalMfc/src/phalMfc.o
 .debug_aranges
                0x00000640       0x40 build/default/production/NxpNfcRdLib/comps/phalMfc/src/phalMfc_Int.o
 .debug_aranges
                0x00000680       0x70 build/default/production/NxpNfcRdLib/comps/phalMfdf/src/Sw/phalMfdf_Sw.o
 .debug_aranges
                0x000006f0       0x40 build/default/production/NxpNfcRdLib/comps/phalMfdf/src/Sw/phalMfdf_Sw_Int.o
 .debug_aranges
                0x00000730       0x18 build/default/production/NxpNfcRdLib/comps/phalMfdf/src/phalMfdf.o
 .debug_aranges
                0x00000748       0x30 build/default/production/NxpNfcRdLib/comps/phalMfdf/src/phalMfdf_Int.o
 .debug_aranges
                0x00000778       0x18 build/default/production/NxpNfcRdLib/comps/phalMful/src/Sw/phalMful_Sw.o
 .debug_aranges
                0x00000790       0x18 build/default/production/NxpNfcRdLib/comps/phalMful/src/phalMful.o
 .debug_aranges
                0x000007a8       0x18 build/default/production/NxpNfcRdLib/comps/phalMful/src/phalMful_Int.o
 .debug_aranges
                0x000007c0       0x18 build/default/production/NxpNfcRdLib/comps/phalSli/src/Sw/phalSli_Sw.o
 .debug_aranges
                0x000007d8       0x18 build/default/production/NxpNfcRdLib/comps/phalSli/src/phalSli.o
 .debug_aranges
                0x000007f0       0x18 build/default/production/NxpNfcRdLib/comps/phalT1T/src/Sw/phalT1T_Sw.o
 .debug_aranges
                0x00000808       0x18 build/default/production/NxpNfcRdLib/comps/phalT1T/src/phalT1T.o
 .debug_aranges
                0x00000820       0x18 build/default/production/NxpNfcRdLib/comps/phalTop/src/Sw/phalTop_Sw.o
 .debug_aranges
                0x00000838       0x18 build/default/production/NxpNfcRdLib/comps/phalTop/src/Sw/phalTop_Sw_Int_T1T.o
 .debug_aranges
                0x00000850       0x18 build/default/production/NxpNfcRdLib/comps/phalTop/src/Sw/phalTop_Sw_Int_T2T.o
 .debug_aranges
                0x00000868       0x18 build/default/production/NxpNfcRdLib/comps/phalTop/src/Sw/phalTop_Sw_Int_T3T.o
 .debug_aranges
                0x00000880       0x18 build/default/production/NxpNfcRdLib/comps/phalTop/src/Sw/phalTop_Sw_Int_T4T.o
 .debug_aranges
                0x00000898       0x18 build/default/production/NxpNfcRdLib/comps/phalTop/src/Sw/phalTop_Sw_Int_T5T.o
 .debug_aranges
                0x000008b0       0x18 build/default/production/NxpNfcRdLib/comps/phalTop/src/phalTop.o
 .debug_aranges
                0x000008c8       0x18 build/default/production/NxpNfcRdLib/comps/phbalReg/src/KinetisI2C/phbalReg_KinetisI2C.o
 .debug_aranges
                0x000008e0       0x18 build/default/production/NxpNfcRdLib/comps/phbalReg/src/KinetisSPI/phbalReg_KinetisSpi.o
 .debug_aranges
                0x000008f8       0x18 build/default/production/NxpNfcRdLib/comps/phbalReg/src/LinuxKernelSpi/phbalReg_LinuxKernelSpi.o
 .debug_aranges
                0x00000910       0x18 build/default/production/NxpNfcRdLib/comps/phbalReg/src/LinuxUserI2C/phbalReg_LinuxUserI2C.o
 .debug_aranges
                0x00000928       0x18 build/default/production/NxpNfcRdLib/comps/phbalReg/src/LinuxUserSpi/phbalReg_LinuxUserSpi.o
 .debug_aranges
                0x00000940       0x18 build/default/production/NxpNfcRdLib/comps/phbalReg/src/LpcOpenI2C/phbalReg_LpcOpenI2c.o
 .debug_aranges
                0x00000958       0x18 build/default/production/NxpNfcRdLib/comps/phbalReg/src/LpcOpenSPI/phbalReg_LpcOpenSpi.o
 .debug_aranges
                0x00000970       0x58 build/default/production/NxpNfcRdLib/comps/phbalReg/src/Pic32mxSPI/phbalReg_Pic32mxSpi.o
 .debug_aranges
                0x000009c8       0x18 build/default/production/NxpNfcRdLib/comps/phbalReg/src/phbalReg.o
 .debug_aranges
                0x000009e0       0x18 build/default/production/NxpNfcRdLib/comps/phceT4T/src/Sw/phceT4T_Sw.o
 .debug_aranges
                0x000009f8       0x18 build/default/production/NxpNfcRdLib/comps/phceT4T/src/Sw/phceT4T_Sw_Int.o
 .debug_aranges
                0x00000a10       0x18 build/default/production/NxpNfcRdLib/comps/phceT4T/src/phceT4T.o
 .debug_aranges
                0x00000a28       0x18 build/default/production/NxpNfcRdLib/comps/phCidManager/src/Sw/phCidManager_Sw.o
 .debug_aranges
                0x00000a40       0x18 build/default/production/NxpNfcRdLib/comps/phCidManager/src/phCidManager.o
 .debug_aranges
                0x00000a58       0x18 build/default/production/NxpNfcRdLib/comps/phCryptoRng/src/Sw/phCryptoRng_Sw.o
 .debug_aranges
                0x00000a70       0x18 build/default/production/NxpNfcRdLib/comps/phCryptoRng/src/phCryptoRng.o
 .debug_aranges
                0x00000a88       0x18 build/default/production/NxpNfcRdLib/comps/phCryptoSym/src/Sw/phCryptoSym_Sw.o
 .debug_aranges
                0x00000aa0       0x18 build/default/production/NxpNfcRdLib/comps/phCryptoSym/src/Sw/phCryptoSym_Sw_Aes.o
 .debug_aranges
                0x00000ab8       0x18 build/default/production/NxpNfcRdLib/comps/phCryptoSym/src/Sw/phCryptoSym_Sw_Des.o
 .debug_aranges
                0x00000ad0       0x18 build/default/production/NxpNfcRdLib/comps/phCryptoSym/src/Sw/phCryptoSym_Sw_Int.o
 .debug_aranges
                0x00000ae8       0x18 build/default/production/NxpNfcRdLib/comps/phCryptoSym/src/phCryptoSym.o
 .debug_aranges
                0x00000b00       0xf0 build/default/production/NxpNfcRdLib/comps/phhalHw/src/Pn5180/phhalHw_Pn5180.o
 .debug_aranges
                0x00000bf0      0x128 build/default/production/NxpNfcRdLib/comps/phhalHw/src/Pn5180/phhalHw_Pn5180_Instr.o
 .debug_aranges
                0x00000d18       0x88 build/default/production/NxpNfcRdLib/comps/phhalHw/src/Pn5180/phhalHw_Pn5180_Int.o
 .debug_aranges
                0x00000da0       0x20 build/default/production/NxpNfcRdLib/comps/phhalHw/src/Pn5180/phhalHw_Pn5180_Wait.o
 .debug_aranges
                0x00000dc0       0x18 build/default/production/NxpNfcRdLib/comps/phhalHw/src/PN7462AU/phhalHw_PN7462AU.o
 .debug_aranges
                0x00000dd8       0x18 build/default/production/NxpNfcRdLib/comps/phhalHw/src/PN7462AU/phhalHw_PN7462AU_Int.o
 .debug_aranges
                0x00000df0       0x18 build/default/production/NxpNfcRdLib/comps/phhalHw/src/Rc523/phhalHw_Rc523.o
 .debug_aranges
                0x00000e08       0x18 build/default/production/NxpNfcRdLib/comps/phhalHw/src/Rc523/phhalHw_Rc523_Cmd.o
 .debug_aranges
                0x00000e20       0x18 build/default/production/NxpNfcRdLib/comps/phhalHw/src/Rc523/phhalHw_Rc523_Int.o
 .debug_aranges
                0x00000e38       0x18 build/default/production/NxpNfcRdLib/comps/phhalHw/src/Rc523/phhalHw_Rc523_Wait.o
 .debug_aranges
                0x00000e50       0x18 build/default/production/NxpNfcRdLib/comps/phhalHw/src/Rc663/phhalHw_Rc663.o
 .debug_aranges
                0x00000e68       0x18 build/default/production/NxpNfcRdLib/comps/phhalHw/src/Rc663/phhalHw_Rc663_Cmd.o
 .debug_aranges
                0x00000e80       0x18 build/default/production/NxpNfcRdLib/comps/phhalHw/src/Rc663/phhalHw_Rc663_Int.o
 .debug_aranges
                0x00000e98       0x18 build/default/production/NxpNfcRdLib/comps/phhalHw/src/Rc663/phhalHw_Rc663_Wait.o
 .debug_aranges
                0x00000eb0       0x20 build/default/production/NxpNfcRdLib/comps/phhalHw/src/phhalHw.o
 .debug_aranges
                0x00000ed0       0x18 build/default/production/NxpNfcRdLib/comps/phKeyStore/src/Rc663/phKeyStore_Rc663.o
 .debug_aranges
                0x00000ee8       0xa0 build/default/production/NxpNfcRdLib/comps/phKeyStore/src/Sw/phKeyStore_Sw.o
 .debug_aranges
                0x00000f88       0x20 build/default/production/NxpNfcRdLib/comps/phKeyStore/src/phKeyStore.o
 .debug_aranges
                0x00000fa8       0x18 build/default/production/NxpNfcRdLib/comps/phlnLlcp/src/Sw/phlnLlcp_Sw.o
 .debug_aranges
                0x00000fc0       0x18 build/default/production/NxpNfcRdLib/comps/phlnLlcp/src/Sw/phlnLlcp_Sw_Int.o
 .debug_aranges
                0x00000fd8       0x18 build/default/production/NxpNfcRdLib/comps/phlnLlcp/src/Sw/phlnLlcp_Sw_Mac.o
 .debug_aranges
                0x00000ff0       0x18 build/default/production/NxpNfcRdLib/comps/phlnLlcp/src/Sw/phlnLlcp_Sw_Transport.o
 .debug_aranges
                0x00001008       0x18 build/default/production/NxpNfcRdLib/comps/phlnLlcp/src/Sw/phlnLlcp_Sw_Transport_Connection.o
 .debug_aranges
                0x00001020       0x18 build/default/production/NxpNfcRdLib/comps/phlnLlcp/src/Sw/phlnLlcp_Sw_Transport_Connectionless.o
 .debug_aranges
                0x00001038       0x18 build/default/production/NxpNfcRdLib/comps/phlnLlcp/src/Sw/phlnLlcp_Timers.o
 .debug_aranges
                0x00001050       0x18 build/default/production/NxpNfcRdLib/comps/phlnLlcp/src/phlnLlcp.o
 .debug_aranges
                0x00001068       0x18 build/default/production/NxpNfcRdLib/comps/phLog/src/phLog.o
 .debug_aranges
                0x00001080       0x18 build/default/production/NxpNfcRdLib/comps/phNfcLib/src/phNfcLib.o
 .debug_aranges
                0x00001098       0x18 build/default/production/NxpNfcRdLib/comps/phNfcLib/src/phNfcLib_15693.o
 .debug_aranges
                0x000010b0       0x18 build/default/production/NxpNfcRdLib/comps/phNfcLib/src/phNfcLib_18000p3m3.o
 .debug_aranges
                0x000010c8       0x18 build/default/production/NxpNfcRdLib/comps/phNfcLib/src/phNfcLib_MFC.o
 .debug_aranges
                0x000010e0       0x18 build/default/production/NxpNfcRdLib/comps/phNfcLib/src/phNfcLib_MFDF.o
 .debug_aranges
                0x000010f8       0x18 build/default/production/NxpNfcRdLib/comps/phNfcLib/src/phNfcLib_MFUL.o
 .debug_aranges
                0x00001110       0x18 build/default/production/NxpNfcRdLib/comps/phNfcLib/src/phNfcLib_Utility.o
 .debug_aranges
                0x00001128       0x18 build/default/production/NxpNfcRdLib/comps/phnpSnep/src/Sw/phnpSnep_Sw.o
 .debug_aranges
                0x00001140       0x18 build/default/production/NxpNfcRdLib/comps/phnpSnep/src/phnpSnep.o
 .debug_aranges
                0x00001158       0x18 build/default/production/NxpNfcRdLib/comps/phOsal/src/Freertos/phOsal_Freertos.o
 .debug_aranges
                0x00001170       0x18 build/default/production/NxpNfcRdLib/comps/phOsal/src/Linux/phOsal_Linux.o
 .debug_aranges
                0x00001188      0x108 build/default/production/NxpNfcRdLib/comps/phOsal/src/NullOs/phOsal_NullOs.o
 .debug_aranges
                0x00001290       0x18 build/default/production/NxpNfcRdLib/comps/phpalEpcUid/src/Sw/phpalEpcUid_Sw.o
 .debug_aranges
                0x000012a8       0x18 build/default/production/NxpNfcRdLib/comps/phpalEpcUid/src/phpalEpcUid.o
 .debug_aranges
                0x000012c0       0x18 build/default/production/NxpNfcRdLib/comps/phpalFelica/src/Sw/phpalFelica_Sw.o
 .debug_aranges
                0x000012d8       0x18 build/default/production/NxpNfcRdLib/comps/phpalFelica/src/phpalFelica.o
 .debug_aranges
                0x000012f0       0x78 build/default/production/NxpNfcRdLib/comps/phpalI14443p3a/src/Sw/phpalI14443p3a_Sw.o
 .debug_aranges
                0x00001368       0x18 build/default/production/NxpNfcRdLib/comps/phpalI14443p3a/src/phpalI14443p3a.o
 .debug_aranges
                0x00001380       0x18 build/default/production/NxpNfcRdLib/comps/phpalI14443p3b/src/Sw/phpalI14443p3b_Sw.o
 .debug_aranges
                0x00001398       0x18 build/default/production/NxpNfcRdLib/comps/phpalI14443p3b/src/phpalI14443p3b.o
 .debug_aranges
                0x000013b0       0x90 build/default/production/NxpNfcRdLib/comps/phpalI14443p4/src/Sw/phpalI14443p4_Sw.o
 .debug_aranges
                0x00001440       0x18 build/default/production/NxpNfcRdLib/comps/phpalI14443p4/src/phpalI14443p4.o
 .debug_aranges
                0x00001458       0x48 build/default/production/NxpNfcRdLib/comps/phpalI14443p4a/src/Sw/phpalI14443p4a_Sw.o
 .debug_aranges
                0x000014a0       0x18 build/default/production/NxpNfcRdLib/comps/phpalI14443p4a/src/phpalI14443p4a.o
 .debug_aranges
                0x000014b8       0x18 build/default/production/NxpNfcRdLib/comps/phpalI14443p4mC/src/Sw/phpalI14443p4mC_Sw.o
 .debug_aranges
                0x000014d0       0x18 build/default/production/NxpNfcRdLib/comps/phpalI14443p4mC/src/Sw/phpalI14443p4mC_Sw_Int.o
 .debug_aranges
                0x000014e8       0x18 build/default/production/NxpNfcRdLib/comps/phpalI14443p4mC/src/phpalI14443p4mC.o
 .debug_aranges
                0x00001500       0x18 build/default/production/NxpNfcRdLib/comps/phpalI18000p3m3/src/Sw/phpalI18000p3m3_Sw.o
 .debug_aranges
                0x00001518       0x18 build/default/production/NxpNfcRdLib/comps/phpalI18000p3m3/src/phpalI18000p3m3.o
 .debug_aranges
                0x00001530       0x18 build/default/production/NxpNfcRdLib/comps/phpalI18092mPI/src/Sw/phpalI18092mPI_Sw.o
 .debug_aranges
                0x00001548       0x18 build/default/production/NxpNfcRdLib/comps/phpalI18092mPI/src/Sw/phpalI18092mPI_Sw_Int.o
 .debug_aranges
                0x00001560       0x18 build/default/production/NxpNfcRdLib/comps/phpalI18092mPI/src/phpalI18092mPI.o
 .debug_aranges
                0x00001578       0x18 build/default/production/NxpNfcRdLib/comps/phpalI18092mT/src/Sw/phpalI18092mT_Sw.o
 .debug_aranges
                0x00001590       0x18 build/default/production/NxpNfcRdLib/comps/phpalI18092mT/src/Sw/phpalI18092mT_Sw_Int.o
 .debug_aranges
                0x000015a8       0x18 build/default/production/NxpNfcRdLib/comps/phpalI18092mT/src/phpalI18092mT.o
 .debug_aranges
                0x000015c0       0x58 build/default/production/NxpNfcRdLib/comps/phpalMifare/src/Sw/phpalMifare_Sw.o
 .debug_aranges
                0x00001618       0x18 build/default/production/NxpNfcRdLib/comps/phpalMifare/src/phpalMifare.o
 .debug_aranges
                0x00001630       0x18 build/default/production/NxpNfcRdLib/comps/phpalSli15693/src/Sw/phpalSli15693_Sw.o
 .debug_aranges
                0x00001648       0x18 build/default/production/NxpNfcRdLib/comps/phpalSli15693/src/phpalSli15693.o
 .debug_aranges
                0x00001660       0x18 build/default/production/NxpNfcRdLib/comps/phPlatform/src/Port/K81/phPlatform_Port_K81.o
 .debug_aranges
                0x00001678       0x18 build/default/production/NxpNfcRdLib/comps/phPlatform/src/Port/K81/phPlatform_Port_KinetisTimer.o
 .debug_aranges
                0x00001690       0x18 build/default/production/NxpNfcRdLib/comps/phPlatform/src/Port/K82/phPlatform_Port_K82.o
 .debug_aranges
                0x000016a8       0x18 build/default/production/NxpNfcRdLib/comps/phPlatform/src/Port/K82/phPlatform_Port_K82Timer.o
 .debug_aranges
                0x000016c0       0x18 build/default/production/NxpNfcRdLib/comps/phPlatform/src/Port/LPC11u68/phPlatform_Port_LPC11u68.o
 .debug_aranges
                0x000016d8       0x18 build/default/production/NxpNfcRdLib/comps/phPlatform/src/Port/LPC1769/cr_startup_lpc175x_6x.o
 .debug_aranges
                0x000016f0       0x18 build/default/production/NxpNfcRdLib/comps/phPlatform/src/Port/LPC1769/keil_iar_sysinit.o
 .debug_aranges
                0x00001708       0x18 build/default/production/NxpNfcRdLib/comps/phPlatform/src/Port/LPC1769/phPlatform_Port_LPC1769.o
 .debug_aranges
                0x00001720       0x18 build/default/production/NxpNfcRdLib/comps/phPlatform/src/Port/LPCTimer/phPlatform_Port_LPCTimer.o
 .debug_aranges
                0x00001738       0x40 build/default/production/NxpNfcRdLib/comps/phPlatform/src/Port/PIC32MX/phPlatform_Port_PIC32MX.o
 .debug_aranges
                0x00001778       0xa8 build/default/production/NxpNfcRdLib/comps/phPlatform/src/Port/PIC32MX/phPlatform_Port_PIC32MXTimer.o
 .debug_aranges
                0x00001820       0x18 build/default/production/NxpNfcRdLib/comps/phPlatform/src/Port/PN7462AU/phPlatform_Port_PN7462AU.o
 .debug_aranges
                0x00001838       0x18 build/default/production/NxpNfcRdLib/comps/phPlatform/src/Port/RaspberryPi/phPlatform_Port_Pi.o
 .debug_aranges
                0x00001850       0x18 build/default/production/NxpNfcRdLib/comps/phPlatform/src/Port/RaspberryPi/phPlatform_Port_PiGpio.o
 .debug_aranges
                0x00001868       0x90 build/default/production/NxpNfcRdLib/comps/phPlatform/src/phPlatform.o
 .debug_aranges
                0x000018f8       0x68 build/default/production/NxpNfcRdLib/comps/phTools/src/phTools.o
 .debug_aranges
                0x00001960       0x68 build/default/production/NxpNfcRdLib/comps/phTools/src/phTools_Q.o
 .debug_aranges
                0x000019c8       0x58 build/default/production/main.o
 .debug_aranges
                0x00001a20       0x20 c:/program files (x86)/microchip/xc32/v2.05/bin/bin/../../lib/gcc/pic32mx/4.8.3\libgcc.a(floatunsisf.o)
 .debug_aranges
                0x00001a40       0x20 c:/program files (x86)/microchip/xc32/v2.05/bin/bin/../../lib/gcc/pic32mx/4.8.3/../../../../pic32mx/lib\libpic32.a(default-bootstrap-exception-handler.o)
 .debug_aranges
                0x00001a60       0x20 c:/program files (x86)/microchip/xc32/v2.05/bin/bin/../../lib/gcc/pic32mx/4.8.3/../../../../pic32mx/lib\libpic32.a(default-on-reset.o)
 .debug_aranges
                0x00001a80       0x20 c:/program files (x86)/microchip/xc32/v2.05/bin/bin/../../lib/gcc/pic32mx/4.8.3/../../../../pic32mx/lib\libpic32.a(default-on-bootstrap.o)
 .debug_aranges
                0x00001aa0       0x20 c:/program files (x86)/microchip/xc32/v2.05/bin/bin/../../lib/gcc/pic32mx/4.8.3/../../../../pic32mx/lib\libpic32.a(defaultinterrupt.o)

.debug_pubnames
 *(.debug_pubnames)

.debug_info     0x00000000    0x2cc8d
 *(.debug_info .gnu.linkonce.wi.*)
 .debug_info    0x00000000      0x860 build/default/production/mcc_generated_files/tmr2.o
 .debug_info    0x00000860     0x122a build/default/production/mcc_generated_files/uart1.o
 .debug_info    0x00001a8a      0x7c3 build/default/production/mcc_generated_files/interrupt_manager.o
 .debug_info    0x0000224d      0x871 build/default/production/mcc_generated_files/tmr1.o
 .debug_info    0x00002abe      0x2f8 build/default/production/mcc_generated_files/mcc.o
 .debug_info    0x00002db6      0xf7d build/default/production/mcc_generated_files/pin_manager.o
 .debug_info    0x00003d33      0x60f build/default/production/mcc_generated_files/spi1.o
 .debug_info    0x00004342      0x853 build/default/production/mcc_generated_files/adc1.o
 .debug_info    0x00004b95      0x5ef build/default/production/mcc_generated_files/spi2.o
 .debug_info    0x00005184     0x1a0e build/default/production/nxp_reader_config_files/phApp_Init.o
 .debug_info    0x00006b92     0x137e build/default/production/NxpNfcRdLib/comps/phacDiscLoop/src/Sw/phacDiscLoop_Sw.o
 .debug_info    0x00007f10     0x147d build/default/production/NxpNfcRdLib/comps/phacDiscLoop/src/Sw/phacDiscLoop_Sw_Int.o
 .debug_info    0x0000938d     0x134a build/default/production/NxpNfcRdLib/comps/phacDiscLoop/src/Sw/phacDiscLoop_Sw_Int_A.o
 .debug_info    0x0000a6d7      0x906 build/default/production/NxpNfcRdLib/comps/phacDiscLoop/src/Sw/phacDiscLoop_Sw_Int_B.o
 .debug_info    0x0000afdd      0x908 build/default/production/NxpNfcRdLib/comps/phacDiscLoop/src/Sw/phacDiscLoop_Sw_Int_F.o
 .debug_info    0x0000b8e5      0x92f build/default/production/NxpNfcRdLib/comps/phacDiscLoop/src/Sw/phacDiscLoop_Sw_Int_I18000p3m3.o
 .debug_info    0x0000c214      0x906 build/default/production/NxpNfcRdLib/comps/phacDiscLoop/src/Sw/phacDiscLoop_Sw_Int_V.o
 .debug_info    0x0000cb1a      0x15d build/default/production/NxpNfcRdLib/comps/phacDiscLoop/src/phacDiscLoop.o
 .debug_info    0x0000cc77      0x15f build/default/production/NxpNfcRdLib/comps/phalFelica/src/Sw/phalFelica_Sw.o
 .debug_info    0x0000cdd6      0x14d build/default/production/NxpNfcRdLib/comps/phalFelica/src/phalFelica.o
 .debug_info    0x0000cf23      0x15f build/default/production/NxpNfcRdLib/comps/phalI15693/src/Sw/phalI15693_Sw.o
 .debug_info    0x0000d082      0x14d build/default/production/NxpNfcRdLib/comps/phalI15693/src/phalI15693.o
 .debug_info    0x0000d1cf      0x167 build/default/production/NxpNfcRdLib/comps/phalI18000p3m3/src/Sw/phalI18000p3m3_Sw.o
 .debug_info    0x0000d336      0x15f build/default/production/NxpNfcRdLib/comps/phalI18000p3m3/src/Sw/phalI18000p3m3_Sw_Int.o
 .debug_info    0x0000d495      0x155 build/default/production/NxpNfcRdLib/comps/phalI18000p3m3/src/phalI18000p3m3.o
 .debug_info    0x0000d5ea      0xc22 build/default/production/NxpNfcRdLib/comps/phalMfc/src/Sw/phalMfc_Sw.o
 .debug_info    0x0000e20c      0x153 build/default/production/NxpNfcRdLib/comps/phalMfc/src/phalMfc.o
 .debug_info    0x0000e35f      0x450 build/default/production/NxpNfcRdLib/comps/phalMfc/src/phalMfc_Int.o
 .debug_info    0x0000e7af      0xbfc build/default/production/NxpNfcRdLib/comps/phalMfdf/src/Sw/phalMfdf_Sw.o
 .debug_info    0x0000f3ab      0xeee build/default/production/NxpNfcRdLib/comps/phalMfdf/src/Sw/phalMfdf_Sw_Int.o
 .debug_info    0x00010299      0x155 build/default/production/NxpNfcRdLib/comps/phalMfdf/src/phalMfdf.o
 .debug_info    0x000103ee      0x6e1 build/default/production/NxpNfcRdLib/comps/phalMfdf/src/phalMfdf_Int.o
 .debug_info    0x00010acf      0x15b build/default/production/NxpNfcRdLib/comps/phalMful/src/Sw/phalMful_Sw.o
 .debug_info    0x00010c2a      0x155 build/default/production/NxpNfcRdLib/comps/phalMful/src/phalMful.o
 .debug_info    0x00010d7f      0x159 build/default/production/NxpNfcRdLib/comps/phalMful/src/phalMful_Int.o
 .debug_info    0x00010ed8      0x159 build/default/production/NxpNfcRdLib/comps/phalSli/src/Sw/phalSli_Sw.o
 .debug_info    0x00011031      0x147 build/default/production/NxpNfcRdLib/comps/phalSli/src/phalSli.o
 .debug_info    0x00011178      0x159 build/default/production/NxpNfcRdLib/comps/phalT1T/src/Sw/phalT1T_Sw.o
 .debug_info    0x000112d1      0x147 build/default/production/NxpNfcRdLib/comps/phalT1T/src/phalT1T.o
 .debug_info    0x00011418      0x159 build/default/production/NxpNfcRdLib/comps/phalTop/src/Sw/phalTop_Sw.o
 .debug_info    0x00011571      0x161 build/default/production/NxpNfcRdLib/comps/phalTop/src/Sw/phalTop_Sw_Int_T1T.o
 .debug_info    0x000116d2      0x161 build/default/production/NxpNfcRdLib/comps/phalTop/src/Sw/phalTop_Sw_Int_T2T.o
 .debug_info    0x00011833      0x161 build/default/production/NxpNfcRdLib/comps/phalTop/src/Sw/phalTop_Sw_Int_T3T.o
 .debug_info    0x00011994      0x161 build/default/production/NxpNfcRdLib/comps/phalTop/src/Sw/phalTop_Sw_Int_T4T.o
 .debug_info    0x00011af5      0x161 build/default/production/NxpNfcRdLib/comps/phalTop/src/Sw/phalTop_Sw_Int_T5T.o
 .debug_info    0x00011c56      0x153 build/default/production/NxpNfcRdLib/comps/phalTop/src/phalTop.o
 .debug_info    0x00011da9      0x15f build/default/production/NxpNfcRdLib/comps/phbalReg/src/KinetisI2C/phbalReg_KinetisI2C.o
 .debug_info    0x00011f08      0x15f build/default/production/NxpNfcRdLib/comps/phbalReg/src/KinetisSPI/phbalReg_KinetisSpi.o
 .debug_info    0x00012067      0x167 build/default/production/NxpNfcRdLib/comps/phbalReg/src/LinuxKernelSpi/phbalReg_LinuxKernelSpi.o
 .debug_info    0x000121ce      0x163 build/default/production/NxpNfcRdLib/comps/phbalReg/src/LinuxUserI2C/phbalReg_LinuxUserI2C.o
 .debug_info    0x00012331      0x163 build/default/production/NxpNfcRdLib/comps/phbalReg/src/LinuxUserSpi/phbalReg_LinuxUserSpi.o
 .debug_info    0x00012494      0x15f build/default/production/NxpNfcRdLib/comps/phbalReg/src/LpcOpenI2C/phbalReg_LpcOpenI2c.o
 .debug_info    0x000125f3      0x15f build/default/production/NxpNfcRdLib/comps/phbalReg/src/LpcOpenSPI/phbalReg_LpcOpenSpi.o
 .debug_info    0x00012752      0x984 build/default/production/NxpNfcRdLib/comps/phbalReg/src/Pic32mxSPI/phbalReg_Pic32mxSpi.o
 .debug_info    0x000130d6      0x149 build/default/production/NxpNfcRdLib/comps/phbalReg/src/phbalReg.o
 .debug_info    0x0001321f      0x159 build/default/production/NxpNfcRdLib/comps/phceT4T/src/Sw/phceT4T_Sw.o
 .debug_info    0x00013378      0x15d build/default/production/NxpNfcRdLib/comps/phceT4T/src/Sw/phceT4T_Sw_Int.o
 .debug_info    0x000134d5      0x147 build/default/production/NxpNfcRdLib/comps/phceT4T/src/phceT4T.o
 .debug_info    0x0001361c      0x163 build/default/production/NxpNfcRdLib/comps/phCidManager/src/Sw/phCidManager_Sw.o
 .debug_info    0x0001377f      0x15d build/default/production/NxpNfcRdLib/comps/phCidManager/src/phCidManager.o
 .debug_info    0x000138dc      0x155 build/default/production/NxpNfcRdLib/comps/phCryptoRng/src/Sw/phCryptoRng_Sw.o
 .debug_info    0x00013a31      0x14f build/default/production/NxpNfcRdLib/comps/phCryptoRng/src/phCryptoRng.o
 .debug_info    0x00013b80      0x161 build/default/production/NxpNfcRdLib/comps/phCryptoSym/src/Sw/phCryptoSym_Sw.o
 .debug_info    0x00013ce1      0x159 build/default/production/NxpNfcRdLib/comps/phCryptoSym/src/Sw/phCryptoSym_Sw_Aes.o
 .debug_info    0x00013e3a      0x159 build/default/production/NxpNfcRdLib/comps/phCryptoSym/src/Sw/phCryptoSym_Sw_Des.o
 .debug_info    0x00013f93      0x159 build/default/production/NxpNfcRdLib/comps/phCryptoSym/src/Sw/phCryptoSym_Sw_Int.o
 .debug_info    0x000140ec      0x14f build/default/production/NxpNfcRdLib/comps/phCryptoSym/src/phCryptoSym.o
 .debug_info    0x0001423b     0x2107 build/default/production/NxpNfcRdLib/comps/phhalHw/src/Pn5180/phhalHw_Pn5180.o
 .debug_info    0x00016342     0x2387 build/default/production/NxpNfcRdLib/comps/phhalHw/src/Pn5180/phhalHw_Pn5180_Instr.o
 .debug_info    0x000186c9     0x12e5 build/default/production/NxpNfcRdLib/comps/phhalHw/src/Pn5180/phhalHw_Pn5180_Int.o
 .debug_info    0x000199ae      0x884 build/default/production/NxpNfcRdLib/comps/phhalHw/src/Pn5180/phhalHw_Pn5180_Wait.o
 .debug_info    0x0001a232      0x165 build/default/production/NxpNfcRdLib/comps/phhalHw/src/PN7462AU/phhalHw_PN7462AU.o
 .debug_info    0x0001a397      0x169 build/default/production/NxpNfcRdLib/comps/phhalHw/src/PN7462AU/phhalHw_PN7462AU_Int.o
 .debug_info    0x0001a500      0x15f build/default/production/NxpNfcRdLib/comps/phhalHw/src/Rc523/phhalHw_Rc523.o
 .debug_info    0x0001a65f      0x163 build/default/production/NxpNfcRdLib/comps/phhalHw/src/Rc523/phhalHw_Rc523_Cmd.o
 .debug_info    0x0001a7c2      0x163 build/default/production/NxpNfcRdLib/comps/phhalHw/src/Rc523/phhalHw_Rc523_Int.o
 .debug_info    0x0001a925      0x158 build/default/production/NxpNfcRdLib/comps/phhalHw/src/Rc523/phhalHw_Rc523_Wait.o
 .debug_info    0x0001aa7d      0x15f build/default/production/NxpNfcRdLib/comps/phhalHw/src/Rc663/phhalHw_Rc663.o
 .debug_info    0x0001abdc      0x163 build/default/production/NxpNfcRdLib/comps/phhalHw/src/Rc663/phhalHw_Rc663_Cmd.o
 .debug_info    0x0001ad3f      0x163 build/default/production/NxpNfcRdLib/comps/phhalHw/src/Rc663/phhalHw_Rc663_Int.o
 .debug_info    0x0001aea2      0x158 build/default/production/NxpNfcRdLib/comps/phhalHw/src/Rc663/phhalHw_Rc663_Wait.o
 .debug_info    0x0001affa      0x78c build/default/production/NxpNfcRdLib/comps/phhalHw/src/phhalHw.o
 .debug_info    0x0001b786      0x165 build/default/production/NxpNfcRdLib/comps/phKeyStore/src/Rc663/phKeyStore_Rc663.o
 .debug_info    0x0001b8eb      0xd1c build/default/production/NxpNfcRdLib/comps/phKeyStore/src/Sw/phKeyStore_Sw.o
 .debug_info    0x0001c607      0x1b7 build/default/production/NxpNfcRdLib/comps/phKeyStore/src/phKeyStore.o
 .debug_info    0x0001c7be      0x15b build/default/production/NxpNfcRdLib/comps/phlnLlcp/src/Sw/phlnLlcp_Sw.o
 .debug_info    0x0001c919      0x15f build/default/production/NxpNfcRdLib/comps/phlnLlcp/src/Sw/phlnLlcp_Sw_Int.o
 .debug_info    0x0001ca78      0x15f build/default/production/NxpNfcRdLib/comps/phlnLlcp/src/Sw/phlnLlcp_Sw_Mac.o
 .debug_info    0x0001cbd7      0x165 build/default/production/NxpNfcRdLib/comps/phlnLlcp/src/Sw/phlnLlcp_Sw_Transport.o
 .debug_info    0x0001cd3c      0x170 build/default/production/NxpNfcRdLib/comps/phlnLlcp/src/Sw/phlnLlcp_Sw_Transport_Connection.o
 .debug_info    0x0001ceac      0x174 build/default/production/NxpNfcRdLib/comps/phlnLlcp/src/Sw/phlnLlcp_Sw_Transport_Connectionless.o
 .debug_info    0x0001d020      0x15f build/default/production/NxpNfcRdLib/comps/phlnLlcp/src/Sw/phlnLlcp_Timers.o
 .debug_info    0x0001d17f      0x155 build/default/production/NxpNfcRdLib/comps/phlnLlcp/src/phlnLlcp.o
 .debug_info    0x0001d2d4      0x143 build/default/production/NxpNfcRdLib/comps/phLog/src/phLog.o
 .debug_info    0x0001d417      0x149 build/default/production/NxpNfcRdLib/comps/phNfcLib/src/phNfcLib.o
 .debug_info    0x0001d560      0x15b build/default/production/NxpNfcRdLib/comps/phNfcLib/src/phNfcLib_15693.o
 .debug_info    0x0001d6bb      0x15f build/default/production/NxpNfcRdLib/comps/phNfcLib/src/phNfcLib_18000p3m3.o
 .debug_info    0x0001d81a      0x159 build/default/production/NxpNfcRdLib/comps/phNfcLib/src/phNfcLib_MFC.o
 .debug_info    0x0001d973      0x15a build/default/production/NxpNfcRdLib/comps/phNfcLib/src/phNfcLib_MFDF.o
 .debug_info    0x0001dacd      0x15a build/default/production/NxpNfcRdLib/comps/phNfcLib/src/phNfcLib_MFUL.o
 .debug_info    0x0001dc27      0x15d build/default/production/NxpNfcRdLib/comps/phNfcLib/src/phNfcLib_Utility.o
 .debug_info    0x0001dd84      0x15b build/default/production/NxpNfcRdLib/comps/phnpSnep/src/Sw/phnpSnep_Sw.o
 .debug_info    0x0001dedf      0x155 build/default/production/NxpNfcRdLib/comps/phnpSnep/src/phnpSnep.o
 .debug_info    0x0001e034      0x157 build/default/production/NxpNfcRdLib/comps/phOsal/src/Freertos/phOsal_Freertos.o
 .debug_info    0x0001e18b      0x151 build/default/production/NxpNfcRdLib/comps/phOsal/src/Linux/phOsal_Linux.o
 .debug_info    0x0001e2dc     0x1b9c build/default/production/NxpNfcRdLib/comps/phOsal/src/NullOs/phOsal_NullOs.o
 .debug_info    0x0001fe78      0x161 build/default/production/NxpNfcRdLib/comps/phpalEpcUid/src/Sw/phpalEpcUid_Sw.o
 .debug_info    0x0001ffd9      0x14f build/default/production/NxpNfcRdLib/comps/phpalEpcUid/src/phpalEpcUid.o
 .debug_info    0x00020128      0x161 build/default/production/NxpNfcRdLib/comps/phpalFelica/src/Sw/phpalFelica_Sw.o
 .debug_info    0x00020289      0x15b build/default/production/NxpNfcRdLib/comps/phpalFelica/src/phpalFelica.o
 .debug_info    0x000203e4      0xf59 build/default/production/NxpNfcRdLib/comps/phpalI14443p3a/src/Sw/phpalI14443p3a_Sw.o
 .debug_info    0x0002133d      0x161 build/default/production/NxpNfcRdLib/comps/phpalI14443p3a/src/phpalI14443p3a.o
 .debug_info    0x0002149e      0x167 build/default/production/NxpNfcRdLib/comps/phpalI14443p3b/src/Sw/phpalI14443p3b_Sw.o
 .debug_info    0x00021605      0x161 build/default/production/NxpNfcRdLib/comps/phpalI14443p3b/src/phpalI14443p3b.o
 .debug_info    0x00021766     0x1352 build/default/production/NxpNfcRdLib/comps/phpalI14443p4/src/Sw/phpalI14443p4_Sw.o
 .debug_info    0x00022ab8      0x15f build/default/production/NxpNfcRdLib/comps/phpalI14443p4/src/phpalI14443p4.o
 .debug_info    0x00022c17      0xc1f build/default/production/NxpNfcRdLib/comps/phpalI14443p4a/src/Sw/phpalI14443p4a_Sw.o
 .debug_info    0x00023836      0x161 build/default/production/NxpNfcRdLib/comps/phpalI14443p4a/src/phpalI14443p4a.o
 .debug_info    0x00023997      0x169 build/default/production/NxpNfcRdLib/comps/phpalI14443p4mC/src/Sw/phpalI14443p4mC_Sw.o
 .debug_info    0x00023b00      0x16d build/default/production/NxpNfcRdLib/comps/phpalI14443p4mC/src/Sw/phpalI14443p4mC_Sw_Int.o
 .debug_info    0x00023c6d      0x163 build/default/production/NxpNfcRdLib/comps/phpalI14443p4mC/src/phpalI14443p4mC.o
 .debug_info    0x00023dd0      0x169 build/default/production/NxpNfcRdLib/comps/phpalI18000p3m3/src/Sw/phpalI18000p3m3_Sw.o
 .debug_info    0x00023f39      0x163 build/default/production/NxpNfcRdLib/comps/phpalI18000p3m3/src/phpalI18000p3m3.o
 .debug_info    0x0002409c      0x167 build/default/production/NxpNfcRdLib/comps/phpalI18092mPI/src/Sw/phpalI18092mPI_Sw.o
 .debug_info    0x00024203      0x16b build/default/production/NxpNfcRdLib/comps/phpalI18092mPI/src/Sw/phpalI18092mPI_Sw_Int.o
 .debug_info    0x0002436e      0x161 build/default/production/NxpNfcRdLib/comps/phpalI18092mPI/src/phpalI18092mPI.o
 .debug_info    0x000244cf      0x165 build/default/production/NxpNfcRdLib/comps/phpalI18092mT/src/Sw/phpalI18092mT_Sw.o
 .debug_info    0x00024634      0x169 build/default/production/NxpNfcRdLib/comps/phpalI18092mT/src/Sw/phpalI18092mT_Sw_Int.o
 .debug_info    0x0002479d      0x15f build/default/production/NxpNfcRdLib/comps/phpalI18092mT/src/phpalI18092mT.o
 .debug_info    0x000248fc      0xe2a build/default/production/NxpNfcRdLib/comps/phpalMifare/src/Sw/phpalMifare_Sw.o
 .debug_info    0x00025726      0x15b build/default/production/NxpNfcRdLib/comps/phpalMifare/src/phpalMifare.o
 .debug_info    0x00025881      0x165 build/default/production/NxpNfcRdLib/comps/phpalSli15693/src/Sw/phpalSli15693_Sw.o
 .debug_info    0x000259e6      0x15f build/default/production/NxpNfcRdLib/comps/phpalSli15693/src/phpalSli15693.o
 .debug_info    0x00025b45      0x15f build/default/production/NxpNfcRdLib/comps/phPlatform/src/Port/K81/phPlatform_Port_K81.o
 .debug_info    0x00025ca4      0x168 build/default/production/NxpNfcRdLib/comps/phPlatform/src/Port/K81/phPlatform_Port_KinetisTimer.o
 .debug_info    0x00025e0c      0x15f build/default/production/NxpNfcRdLib/comps/phPlatform/src/Port/K82/phPlatform_Port_K82.o
 .debug_info    0x00025f6b      0x164 build/default/production/NxpNfcRdLib/comps/phPlatform/src/Port/K82/phPlatform_Port_K82Timer.o
 .debug_info    0x000260cf      0x169 build/default/production/NxpNfcRdLib/comps/phPlatform/src/Port/LPC11u68/phPlatform_Port_LPC11u68.o
 .debug_info    0x00026238      0x165 build/default/production/NxpNfcRdLib/comps/phPlatform/src/Port/LPC1769/cr_startup_lpc175x_6x.o
 .debug_info    0x0002639d      0x160 build/default/production/NxpNfcRdLib/comps/phPlatform/src/Port/LPC1769/keil_iar_sysinit.o
 .debug_info    0x000264fd      0x167 build/default/production/NxpNfcRdLib/comps/phPlatform/src/Port/LPC1769/phPlatform_Port_LPC1769.o
 .debug_info    0x00026664      0x169 build/default/production/NxpNfcRdLib/comps/phPlatform/src/Port/LPCTimer/phPlatform_Port_LPCTimer.o
 .debug_info    0x000267cd      0xd2a build/default/production/NxpNfcRdLib/comps/phPlatform/src/Port/PIC32MX/phPlatform_Port_PIC32MX.o
 .debug_info    0x000274f7      0x75e build/default/production/NxpNfcRdLib/comps/phPlatform/src/Port/PIC32MX/phPlatform_Port_PIC32MXTimer.o
 .debug_info    0x00027c55      0x169 build/default/production/NxpNfcRdLib/comps/phPlatform/src/Port/PN7462AU/phPlatform_Port_PN7462AU.o
 .debug_info    0x00027dbe      0x166 build/default/production/NxpNfcRdLib/comps/phPlatform/src/Port/RaspberryPi/phPlatform_Port_Pi.o
 .debug_info    0x00027f24      0x16a build/default/production/NxpNfcRdLib/comps/phPlatform/src/Port/RaspberryPi/phPlatform_Port_PiGpio.o
 .debug_info    0x0002808e     0x1163 build/default/production/NxpNfcRdLib/comps/phPlatform/src/phPlatform.o
 .debug_info    0x000291f1      0x8ee build/default/production/NxpNfcRdLib/comps/phTools/src/phTools.o
 .debug_info    0x00029adf      0xadf build/default/production/NxpNfcRdLib/comps/phTools/src/phTools_Q.o
 .debug_info    0x0002a5be     0x2229 build/default/production/main.o
 .debug_info    0x0002c7e7      0x12d c:/program files (x86)/microchip/xc32/v2.05/bin/bin/../../lib/gcc/pic32mx/4.8.3\libgcc.a(floatunsisf.o)
 .debug_info    0x0002c914       0xf3 c:/program files (x86)/microchip/xc32/v2.05/bin/bin/../../lib/gcc/pic32mx/4.8.3/../../../../pic32mx/lib\libpic32.a(default-bootstrap-exception-handler.o)
 .debug_info    0x0002ca07       0xcc c:/program files (x86)/microchip/xc32/v2.05/bin/bin/../../lib/gcc/pic32mx/4.8.3/../../../../pic32mx/lib\libpic32.a(default-on-reset.o)
 .debug_info    0x0002cad3       0xd4 c:/program files (x86)/microchip/xc32/v2.05/bin/bin/../../lib/gcc/pic32mx/4.8.3/../../../../pic32mx/lib\libpic32.a(default-on-bootstrap.o)
 .debug_info    0x0002cba7       0xe6 c:/program files (x86)/microchip/xc32/v2.05/bin/bin/../../lib/gcc/pic32mx/4.8.3/../../../../pic32mx/lib\libpic32.a(defaultinterrupt.o)

.debug_abbrev   0x00000000     0x46fe
 *(.debug_abbrev)
 .debug_abbrev  0x00000000      0x157 build/default/production/mcc_generated_files/tmr2.o
 .debug_abbrev  0x00000157      0x21b build/default/production/mcc_generated_files/uart1.o
 .debug_abbrev  0x00000372       0xa4 build/default/production/mcc_generated_files/interrupt_manager.o
 .debug_abbrev  0x00000416      0x1ad build/default/production/mcc_generated_files/tmr1.o
 .debug_abbrev  0x000005c3       0xba build/default/production/mcc_generated_files/mcc.o
 .debug_abbrev  0x0000067d       0xb5 build/default/production/mcc_generated_files/pin_manager.o
 .debug_abbrev  0x00000732      0x17e build/default/production/mcc_generated_files/spi1.o
 .debug_abbrev  0x000008b0      0x126 build/default/production/mcc_generated_files/adc1.o
 .debug_abbrev  0x000009d6      0x17e build/default/production/mcc_generated_files/spi2.o
 .debug_abbrev  0x00000b54      0x1b7 build/default/production/nxp_reader_config_files/phApp_Init.o
 .debug_abbrev  0x00000d0b      0x1e6 build/default/production/NxpNfcRdLib/comps/phacDiscLoop/src/Sw/phacDiscLoop_Sw.o
 .debug_abbrev  0x00000ef1      0x1a6 build/default/production/NxpNfcRdLib/comps/phacDiscLoop/src/Sw/phacDiscLoop_Sw_Int.o
 .debug_abbrev  0x00001097      0x19b build/default/production/NxpNfcRdLib/comps/phacDiscLoop/src/Sw/phacDiscLoop_Sw_Int_A.o
 .debug_abbrev  0x00001232       0xf6 build/default/production/NxpNfcRdLib/comps/phacDiscLoop/src/Sw/phacDiscLoop_Sw_Int_B.o
 .debug_abbrev  0x00001328      0x112 build/default/production/NxpNfcRdLib/comps/phacDiscLoop/src/Sw/phacDiscLoop_Sw_Int_F.o
 .debug_abbrev  0x0000143a       0xf6 build/default/production/NxpNfcRdLib/comps/phacDiscLoop/src/Sw/phacDiscLoop_Sw_Int_I18000p3m3.o
 .debug_abbrev  0x00001530       0xf6 build/default/production/NxpNfcRdLib/comps/phacDiscLoop/src/Sw/phacDiscLoop_Sw_Int_V.o
 .debug_abbrev  0x00001626       0x1b build/default/production/NxpNfcRdLib/comps/phacDiscLoop/src/phacDiscLoop.o
 .debug_abbrev  0x00001641       0x1b build/default/production/NxpNfcRdLib/comps/phalFelica/src/Sw/phalFelica_Sw.o
 .debug_abbrev  0x0000165c       0x1b build/default/production/NxpNfcRdLib/comps/phalFelica/src/phalFelica.o
 .debug_abbrev  0x00001677       0x1b build/default/production/NxpNfcRdLib/comps/phalI15693/src/Sw/phalI15693_Sw.o
 .debug_abbrev  0x00001692       0x1b build/default/production/NxpNfcRdLib/comps/phalI15693/src/phalI15693.o
 .debug_abbrev  0x000016ad       0x1b build/default/production/NxpNfcRdLib/comps/phalI18000p3m3/src/Sw/phalI18000p3m3_Sw.o
 .debug_abbrev  0x000016c8       0x1b build/default/production/NxpNfcRdLib/comps/phalI18000p3m3/src/Sw/phalI18000p3m3_Sw_Int.o
 .debug_abbrev  0x000016e3       0x1b build/default/production/NxpNfcRdLib/comps/phalI18000p3m3/src/phalI18000p3m3.o
 .debug_abbrev  0x000016fe      0x161 build/default/production/NxpNfcRdLib/comps/phalMfc/src/Sw/phalMfc_Sw.o
 .debug_abbrev  0x0000185f       0x1b build/default/production/NxpNfcRdLib/comps/phalMfc/src/phalMfc.o
 .debug_abbrev  0x0000187a       0xfa build/default/production/NxpNfcRdLib/comps/phalMfc/src/phalMfc_Int.o
 .debug_abbrev  0x00001974      0x161 build/default/production/NxpNfcRdLib/comps/phalMfdf/src/Sw/phalMfdf_Sw.o
 .debug_abbrev  0x00001ad5      0x1a5 build/default/production/NxpNfcRdLib/comps/phalMfdf/src/Sw/phalMfdf_Sw_Int.o
 .debug_abbrev  0x00001c7a       0x1b build/default/production/NxpNfcRdLib/comps/phalMfdf/src/phalMfdf.o
 .debug_abbrev  0x00001c95       0xda build/default/production/NxpNfcRdLib/comps/phalMfdf/src/phalMfdf_Int.o
 .debug_abbrev  0x00001d6f       0x1b build/default/production/NxpNfcRdLib/comps/phalMful/src/Sw/phalMful_Sw.o
 .debug_abbrev  0x00001d8a       0x1b build/default/production/NxpNfcRdLib/comps/phalMful/src/phalMful.o
 .debug_abbrev  0x00001da5       0x1b build/default/production/NxpNfcRdLib/comps/phalMful/src/phalMful_Int.o
 .debug_abbrev  0x00001dc0       0x1b build/default/production/NxpNfcRdLib/comps/phalSli/src/Sw/phalSli_Sw.o
 .debug_abbrev  0x00001ddb       0x1b build/default/production/NxpNfcRdLib/comps/phalSli/src/phalSli.o
 .debug_abbrev  0x00001df6       0x1b build/default/production/NxpNfcRdLib/comps/phalT1T/src/Sw/phalT1T_Sw.o
 .debug_abbrev  0x00001e11       0x1b build/default/production/NxpNfcRdLib/comps/phalT1T/src/phalT1T.o
 .debug_abbrev  0x00001e2c       0x1b build/default/production/NxpNfcRdLib/comps/phalTop/src/Sw/phalTop_Sw.o
 .debug_abbrev  0x00001e47       0x1b build/default/production/NxpNfcRdLib/comps/phalTop/src/Sw/phalTop_Sw_Int_T1T.o
 .debug_abbrev  0x00001e62       0x1b build/default/production/NxpNfcRdLib/comps/phalTop/src/Sw/phalTop_Sw_Int_T2T.o
 .debug_abbrev  0x00001e7d       0x1b build/default/production/NxpNfcRdLib/comps/phalTop/src/Sw/phalTop_Sw_Int_T3T.o
 .debug_abbrev  0x00001e98       0x1b build/default/production/NxpNfcRdLib/comps/phalTop/src/Sw/phalTop_Sw_Int_T4T.o
 .debug_abbrev  0x00001eb3       0x1b build/default/production/NxpNfcRdLib/comps/phalTop/src/Sw/phalTop_Sw_Int_T5T.o
 .debug_abbrev  0x00001ece       0x1b build/default/production/NxpNfcRdLib/comps/phalTop/src/phalTop.o
 .debug_abbrev  0x00001ee9       0x1b build/default/production/NxpNfcRdLib/comps/phbalReg/src/KinetisI2C/phbalReg_KinetisI2C.o
 .debug_abbrev  0x00001f04       0x1b build/default/production/NxpNfcRdLib/comps/phbalReg/src/KinetisSPI/phbalReg_KinetisSpi.o
 .debug_abbrev  0x00001f1f       0x1b build/default/production/NxpNfcRdLib/comps/phbalReg/src/LinuxKernelSpi/phbalReg_LinuxKernelSpi.o
 .debug_abbrev  0x00001f3a       0x1b build/default/production/NxpNfcRdLib/comps/phbalReg/src/LinuxUserI2C/phbalReg_LinuxUserI2C.o
 .debug_abbrev  0x00001f55       0x1b build/default/production/NxpNfcRdLib/comps/phbalReg/src/LinuxUserSpi/phbalReg_LinuxUserSpi.o
 .debug_abbrev  0x00001f70       0x1b build/default/production/NxpNfcRdLib/comps/phbalReg/src/LpcOpenI2C/phbalReg_LpcOpenI2c.o
 .debug_abbrev  0x00001f8b       0x1b build/default/production/NxpNfcRdLib/comps/phbalReg/src/LpcOpenSPI/phbalReg_LpcOpenSpi.o
 .debug_abbrev  0x00001fa6      0x12e build/default/production/NxpNfcRdLib/comps/phbalReg/src/Pic32mxSPI/phbalReg_Pic32mxSpi.o
 .debug_abbrev  0x000020d4       0x1b build/default/production/NxpNfcRdLib/comps/phbalReg/src/phbalReg.o
 .debug_abbrev  0x000020ef       0x1b build/default/production/NxpNfcRdLib/comps/phceT4T/src/Sw/phceT4T_Sw.o
 .debug_abbrev  0x0000210a       0x1b build/default/production/NxpNfcRdLib/comps/phceT4T/src/Sw/phceT4T_Sw_Int.o
 .debug_abbrev  0x00002125       0x1b build/default/production/NxpNfcRdLib/comps/phceT4T/src/phceT4T.o
 .debug_abbrev  0x00002140       0x1b build/default/production/NxpNfcRdLib/comps/phCidManager/src/Sw/phCidManager_Sw.o
 .debug_abbrev  0x0000215b       0x1b build/default/production/NxpNfcRdLib/comps/phCidManager/src/phCidManager.o
 .debug_abbrev  0x00002176       0x1b build/default/production/NxpNfcRdLib/comps/phCryptoRng/src/Sw/phCryptoRng_Sw.o
 .debug_abbrev  0x00002191       0x1b build/default/production/NxpNfcRdLib/comps/phCryptoRng/src/phCryptoRng.o
 .debug_abbrev  0x000021ac       0x1b build/default/production/NxpNfcRdLib/comps/phCryptoSym/src/Sw/phCryptoSym_Sw.o
 .debug_abbrev  0x000021c7       0x1b build/default/production/NxpNfcRdLib/comps/phCryptoSym/src/Sw/phCryptoSym_Sw_Aes.o
 .debug_abbrev  0x000021e2       0x1b build/default/production/NxpNfcRdLib/comps/phCryptoSym/src/Sw/phCryptoSym_Sw_Des.o
 .debug_abbrev  0x000021fd       0x1b build/default/production/NxpNfcRdLib/comps/phCryptoSym/src/Sw/phCryptoSym_Sw_Int.o
 .debug_abbrev  0x00002218       0x1b build/default/production/NxpNfcRdLib/comps/phCryptoSym/src/phCryptoSym.o
 .debug_abbrev  0x00002233      0x1c2 build/default/production/NxpNfcRdLib/comps/phhalHw/src/Pn5180/phhalHw_Pn5180.o
 .debug_abbrev  0x000023f5      0x1c4 build/default/production/NxpNfcRdLib/comps/phhalHw/src/Pn5180/phhalHw_Pn5180_Instr.o
 .debug_abbrev  0x000025b9      0x1c4 build/default/production/NxpNfcRdLib/comps/phhalHw/src/Pn5180/phhalHw_Pn5180_Int.o
 .debug_abbrev  0x0000277d      0x100 build/default/production/NxpNfcRdLib/comps/phhalHw/src/Pn5180/phhalHw_Pn5180_Wait.o
 .debug_abbrev  0x0000287d       0x1b build/default/production/NxpNfcRdLib/comps/phhalHw/src/PN7462AU/phhalHw_PN7462AU.o
 .debug_abbrev  0x00002898       0x1b build/default/production/NxpNfcRdLib/comps/phhalHw/src/PN7462AU/phhalHw_PN7462AU_Int.o
 .debug_abbrev  0x000028b3       0x1b build/default/production/NxpNfcRdLib/comps/phhalHw/src/Rc523/phhalHw_Rc523.o
 .debug_abbrev  0x000028ce       0x1b build/default/production/NxpNfcRdLib/comps/phhalHw/src/Rc523/phhalHw_Rc523_Cmd.o
 .debug_abbrev  0x000028e9       0x1b build/default/production/NxpNfcRdLib/comps/phhalHw/src/Rc523/phhalHw_Rc523_Int.o
 .debug_abbrev  0x00002904       0x1b build/default/production/NxpNfcRdLib/comps/phhalHw/src/Rc523/phhalHw_Rc523_Wait.o
 .debug_abbrev  0x0000291f       0x1b build/default/production/NxpNfcRdLib/comps/phhalHw/src/Rc663/phhalHw_Rc663.o
 .debug_abbrev  0x0000293a       0x1b build/default/production/NxpNfcRdLib/comps/phhalHw/src/Rc663/phhalHw_Rc663_Cmd.o
 .debug_abbrev  0x00002955       0x1b build/default/production/NxpNfcRdLib/comps/phhalHw/src/Rc663/phhalHw_Rc663_Int.o
 .debug_abbrev  0x00002970       0x1b build/default/production/NxpNfcRdLib/comps/phhalHw/src/Rc663/phhalHw_Rc663_Wait.o
 .debug_abbrev  0x0000298b      0x108 build/default/production/NxpNfcRdLib/comps/phhalHw/src/phhalHw.o
 .debug_abbrev  0x00002a93       0x1b build/default/production/NxpNfcRdLib/comps/phKeyStore/src/Rc663/phKeyStore_Rc663.o
 .debug_abbrev  0x00002aae      0x15c build/default/production/NxpNfcRdLib/comps/phKeyStore/src/Sw/phKeyStore_Sw.o
 .debug_abbrev  0x00002c0a       0x57 build/default/production/NxpNfcRdLib/comps/phKeyStore/src/phKeyStore.o
 .debug_abbrev  0x00002c61       0x1b build/default/production/NxpNfcRdLib/comps/phlnLlcp/src/Sw/phlnLlcp_Sw.o
 .debug_abbrev  0x00002c7c       0x1b build/default/production/NxpNfcRdLib/comps/phlnLlcp/src/Sw/phlnLlcp_Sw_Int.o
 .debug_abbrev  0x00002c97       0x1b build/default/production/NxpNfcRdLib/comps/phlnLlcp/src/Sw/phlnLlcp_Sw_Mac.o
 .debug_abbrev  0x00002cb2       0x1b build/default/production/NxpNfcRdLib/comps/phlnLlcp/src/Sw/phlnLlcp_Sw_Transport.o
 .debug_abbrev  0x00002ccd       0x1b build/default/production/NxpNfcRdLib/comps/phlnLlcp/src/Sw/phlnLlcp_Sw_Transport_Connection.o
 .debug_abbrev  0x00002ce8       0x1b build/default/production/NxpNfcRdLib/comps/phlnLlcp/src/Sw/phlnLlcp_Sw_Transport_Connectionless.o
 .debug_abbrev  0x00002d03       0x1b build/default/production/NxpNfcRdLib/comps/phlnLlcp/src/Sw/phlnLlcp_Timers.o
 .debug_abbrev  0x00002d1e       0x1b build/default/production/NxpNfcRdLib/comps/phlnLlcp/src/phlnLlcp.o
 .debug_abbrev  0x00002d39       0x1b build/default/production/NxpNfcRdLib/comps/phLog/src/phLog.o
 .debug_abbrev  0x00002d54       0x1b build/default/production/NxpNfcRdLib/comps/phNfcLib/src/phNfcLib.o
 .debug_abbrev  0x00002d6f       0x1b build/default/production/NxpNfcRdLib/comps/phNfcLib/src/phNfcLib_15693.o
 .debug_abbrev  0x00002d8a       0x1b build/default/production/NxpNfcRdLib/comps/phNfcLib/src/phNfcLib_18000p3m3.o
 .debug_abbrev  0x00002da5       0x1b build/default/production/NxpNfcRdLib/comps/phNfcLib/src/phNfcLib_MFC.o
 .debug_abbrev  0x00002dc0       0x1b build/default/production/NxpNfcRdLib/comps/phNfcLib/src/phNfcLib_MFDF.o
 .debug_abbrev  0x00002ddb       0x1b build/default/production/NxpNfcRdLib/comps/phNfcLib/src/phNfcLib_MFUL.o
 .debug_abbrev  0x00002df6       0x1b build/default/production/NxpNfcRdLib/comps/phNfcLib/src/phNfcLib_Utility.o
 .debug_abbrev  0x00002e11       0x1b build/default/production/NxpNfcRdLib/comps/phnpSnep/src/Sw/phnpSnep_Sw.o
 .debug_abbrev  0x00002e2c       0x1b build/default/production/NxpNfcRdLib/comps/phnpSnep/src/phnpSnep.o
 .debug_abbrev  0x00002e47       0x1b build/default/production/NxpNfcRdLib/comps/phOsal/src/Freertos/phOsal_Freertos.o
 .debug_abbrev  0x00002e62       0x1b build/default/production/NxpNfcRdLib/comps/phOsal/src/Linux/phOsal_Linux.o
 .debug_abbrev  0x00002e7d      0x265 build/default/production/NxpNfcRdLib/comps/phOsal/src/NullOs/phOsal_NullOs.o
 .debug_abbrev  0x000030e2       0x1b build/default/production/NxpNfcRdLib/comps/phpalEpcUid/src/Sw/phpalEpcUid_Sw.o
 .debug_abbrev  0x000030fd       0x1b build/default/production/NxpNfcRdLib/comps/phpalEpcUid/src/phpalEpcUid.o
 .debug_abbrev  0x00003118       0x1b build/default/production/NxpNfcRdLib/comps/phpalFelica/src/Sw/phpalFelica_Sw.o
 .debug_abbrev  0x00003133       0x1b build/default/production/NxpNfcRdLib/comps/phpalFelica/src/phpalFelica.o
 .debug_abbrev  0x0000314e      0x1c1 build/default/production/NxpNfcRdLib/comps/phpalI14443p3a/src/Sw/phpalI14443p3a_Sw.o
 .debug_abbrev  0x0000330f       0x1b build/default/production/NxpNfcRdLib/comps/phpalI14443p3a/src/phpalI14443p3a.o
 .debug_abbrev  0x0000332a       0x1b build/default/production/NxpNfcRdLib/comps/phpalI14443p3b/src/Sw/phpalI14443p3b_Sw.o
 .debug_abbrev  0x00003345       0x1b build/default/production/NxpNfcRdLib/comps/phpalI14443p3b/src/phpalI14443p3b.o
 .debug_abbrev  0x00003360      0x1ca build/default/production/NxpNfcRdLib/comps/phpalI14443p4/src/Sw/phpalI14443p4_Sw.o
 .debug_abbrev  0x0000352a       0x1b build/default/production/NxpNfcRdLib/comps/phpalI14443p4/src/phpalI14443p4.o
 .debug_abbrev  0x00003545      0x1c1 build/default/production/NxpNfcRdLib/comps/phpalI14443p4a/src/Sw/phpalI14443p4a_Sw.o
 .debug_abbrev  0x00003706       0x1b build/default/production/NxpNfcRdLib/comps/phpalI14443p4a/src/phpalI14443p4a.o
 .debug_abbrev  0x00003721       0x1b build/default/production/NxpNfcRdLib/comps/phpalI14443p4mC/src/Sw/phpalI14443p4mC_Sw.o
 .debug_abbrev  0x0000373c       0x1b build/default/production/NxpNfcRdLib/comps/phpalI14443p4mC/src/Sw/phpalI14443p4mC_Sw_Int.o
 .debug_abbrev  0x00003757       0x1b build/default/production/NxpNfcRdLib/comps/phpalI14443p4mC/src/phpalI14443p4mC.o
 .debug_abbrev  0x00003772       0x1b build/default/production/NxpNfcRdLib/comps/phpalI18000p3m3/src/Sw/phpalI18000p3m3_Sw.o
 .debug_abbrev  0x0000378d       0x1b build/default/production/NxpNfcRdLib/comps/phpalI18000p3m3/src/phpalI18000p3m3.o
 .debug_abbrev  0x000037a8       0x1b build/default/production/NxpNfcRdLib/comps/phpalI18092mPI/src/Sw/phpalI18092mPI_Sw.o
 .debug_abbrev  0x000037c3       0x1b build/default/production/NxpNfcRdLib/comps/phpalI18092mPI/src/Sw/phpalI18092mPI_Sw_Int.o
 .debug_abbrev  0x000037de       0x1b build/default/production/NxpNfcRdLib/comps/phpalI18092mPI/src/phpalI18092mPI.o
 .debug_abbrev  0x000037f9       0x1b build/default/production/NxpNfcRdLib/comps/phpalI18092mT/src/Sw/phpalI18092mT_Sw.o
 .debug_abbrev  0x00003814       0x1b build/default/production/NxpNfcRdLib/comps/phpalI18092mT/src/Sw/phpalI18092mT_Sw_Int.o
 .debug_abbrev  0x0000382f       0x1b build/default/production/NxpNfcRdLib/comps/phpalI18092mT/src/phpalI18092mT.o
 .debug_abbrev  0x0000384a      0x1c1 build/default/production/NxpNfcRdLib/comps/phpalMifare/src/Sw/phpalMifare_Sw.o
 .debug_abbrev  0x00003a0b       0x1b build/default/production/NxpNfcRdLib/comps/phpalMifare/src/phpalMifare.o
 .debug_abbrev  0x00003a26       0x1b build/default/production/NxpNfcRdLib/comps/phpalSli15693/src/Sw/phpalSli15693_Sw.o
 .debug_abbrev  0x00003a41       0x1b build/default/production/NxpNfcRdLib/comps/phpalSli15693/src/phpalSli15693.o
 .debug_abbrev  0x00003a5c       0x1b build/default/production/NxpNfcRdLib/comps/phPlatform/src/Port/K81/phPlatform_Port_K81.o
 .debug_abbrev  0x00003a77       0x1b build/default/production/NxpNfcRdLib/comps/phPlatform/src/Port/K81/phPlatform_Port_KinetisTimer.o
 .debug_abbrev  0x00003a92       0x1b build/default/production/NxpNfcRdLib/comps/phPlatform/src/Port/K82/phPlatform_Port_K82.o
 .debug_abbrev  0x00003aad       0x1b build/default/production/NxpNfcRdLib/comps/phPlatform/src/Port/K82/phPlatform_Port_K82Timer.o
 .debug_abbrev  0x00003ac8       0x1b build/default/production/NxpNfcRdLib/comps/phPlatform/src/Port/LPC11u68/phPlatform_Port_LPC11u68.o
 .debug_abbrev  0x00003ae3       0x1b build/default/production/NxpNfcRdLib/comps/phPlatform/src/Port/LPC1769/cr_startup_lpc175x_6x.o
 .debug_abbrev  0x00003afe       0x1b build/default/production/NxpNfcRdLib/comps/phPlatform/src/Port/LPC1769/keil_iar_sysinit.o
 .debug_abbrev  0x00003b19       0x1b build/default/production/NxpNfcRdLib/comps/phPlatform/src/Port/LPC1769/phPlatform_Port_LPC1769.o
 .debug_abbrev  0x00003b34       0x1b build/default/production/NxpNfcRdLib/comps/phPlatform/src/Port/LPCTimer/phPlatform_Port_LPCTimer.o
 .debug_abbrev  0x00003b4f      0x153 build/default/production/NxpNfcRdLib/comps/phPlatform/src/Port/PIC32MX/phPlatform_Port_PIC32MX.o
 .debug_abbrev  0x00003ca2      0x189 build/default/production/NxpNfcRdLib/comps/phPlatform/src/Port/PIC32MX/phPlatform_Port_PIC32MXTimer.o
 .debug_abbrev  0x00003e2b       0x1b build/default/production/NxpNfcRdLib/comps/phPlatform/src/Port/PN7462AU/phPlatform_Port_PN7462AU.o
 .debug_abbrev  0x00003e46       0x1b build/default/production/NxpNfcRdLib/comps/phPlatform/src/Port/RaspberryPi/phPlatform_Port_Pi.o
 .debug_abbrev  0x00003e61       0x1b build/default/production/NxpNfcRdLib/comps/phPlatform/src/Port/RaspberryPi/phPlatform_Port_PiGpio.o
 .debug_abbrev  0x00003e7c      0x205 build/default/production/NxpNfcRdLib/comps/phPlatform/src/phPlatform.o
 .debug_abbrev  0x00004081      0x13f build/default/production/NxpNfcRdLib/comps/phTools/src/phTools.o
 .debug_abbrev  0x000041c0      0x1a1 build/default/production/NxpNfcRdLib/comps/phTools/src/phTools_Q.o
 .debug_abbrev  0x00004361      0x29b build/default/production/main.o
 .debug_abbrev  0x000045fc       0x62 c:/program files (x86)/microchip/xc32/v2.05/bin/bin/../../lib/gcc/pic32mx/4.8.3\libgcc.a(floatunsisf.o)
 .debug_abbrev  0x0000465e       0x28 c:/program files (x86)/microchip/xc32/v2.05/bin/bin/../../lib/gcc/pic32mx/4.8.3/../../../../pic32mx/lib\libpic32.a(default-bootstrap-exception-handler.o)
 .debug_abbrev  0x00004686       0x28 c:/program files (x86)/microchip/xc32/v2.05/bin/bin/../../lib/gcc/pic32mx/4.8.3/../../../../pic32mx/lib\libpic32.a(default-on-reset.o)
 .debug_abbrev  0x000046ae       0x28 c:/program files (x86)/microchip/xc32/v2.05/bin/bin/../../lib/gcc/pic32mx/4.8.3/../../../../pic32mx/lib\libpic32.a(default-on-bootstrap.o)
 .debug_abbrev  0x000046d6       0x28 c:/program files (x86)/microchip/xc32/v2.05/bin/bin/../../lib/gcc/pic32mx/4.8.3/../../../../pic32mx/lib\libpic32.a(defaultinterrupt.o)

.debug_line     0x00000000     0x93a8
 *(.debug_line)
 .debug_line    0x00000000      0x20d build/default/production/mcc_generated_files/tmr2.o
 .debug_line    0x0000020d      0x2d0 build/default/production/mcc_generated_files/uart1.o
 .debug_line    0x000004dd      0x14c build/default/production/mcc_generated_files/interrupt_manager.o
 .debug_line    0x00000629      0x211 build/default/production/mcc_generated_files/tmr1.o
 .debug_line    0x0000083a      0x185 build/default/production/mcc_generated_files/mcc.o
 .debug_line    0x000009bf      0x17f build/default/production/mcc_generated_files/pin_manager.o
 .debug_line    0x00000b3e      0x1cb build/default/production/mcc_generated_files/spi1.o
 .debug_line    0x00000d09      0x1c3 build/default/production/mcc_generated_files/adc1.o
 .debug_line    0x00000ecc      0x1cd build/default/production/mcc_generated_files/spi2.o
 .debug_line    0x00001099      0x394 build/default/production/nxp_reader_config_files/phApp_Init.o
 .debug_line    0x0000142d      0x36b build/default/production/NxpNfcRdLib/comps/phacDiscLoop/src/Sw/phacDiscLoop_Sw.o
 .debug_line    0x00001798      0x385 build/default/production/NxpNfcRdLib/comps/phacDiscLoop/src/Sw/phacDiscLoop_Sw_Int.o
 .debug_line    0x00001b1d      0x34d build/default/production/NxpNfcRdLib/comps/phacDiscLoop/src/Sw/phacDiscLoop_Sw_Int_A.o
 .debug_line    0x00001e6a      0x1de build/default/production/NxpNfcRdLib/comps/phacDiscLoop/src/Sw/phacDiscLoop_Sw_Int_B.o
 .debug_line    0x00002048      0x1e0 build/default/production/NxpNfcRdLib/comps/phacDiscLoop/src/Sw/phacDiscLoop_Sw_Int_F.o
 .debug_line    0x00002228      0x1e8 build/default/production/NxpNfcRdLib/comps/phacDiscLoop/src/Sw/phacDiscLoop_Sw_Int_I18000p3m3.o
 .debug_line    0x00002410      0x1dd build/default/production/NxpNfcRdLib/comps/phacDiscLoop/src/Sw/phacDiscLoop_Sw_Int_V.o
 .debug_line    0x000025ed       0x1d build/default/production/NxpNfcRdLib/comps/phacDiscLoop/src/phacDiscLoop.o
 .debug_line    0x0000260a       0x1d build/default/production/NxpNfcRdLib/comps/phalFelica/src/Sw/phalFelica_Sw.o
 .debug_line    0x00002627       0x1d build/default/production/NxpNfcRdLib/comps/phalFelica/src/phalFelica.o
 .debug_line    0x00002644       0x1d build/default/production/NxpNfcRdLib/comps/phalI15693/src/Sw/phalI15693_Sw.o
 .debug_line    0x00002661       0x1d build/default/production/NxpNfcRdLib/comps/phalI15693/src/phalI15693.o
 .debug_line    0x0000267e       0x1d build/default/production/NxpNfcRdLib/comps/phalI18000p3m3/src/Sw/phalI18000p3m3_Sw.o
 .debug_line    0x0000269b       0x1d build/default/production/NxpNfcRdLib/comps/phalI18000p3m3/src/Sw/phalI18000p3m3_Sw_Int.o
 .debug_line    0x000026b8       0x1d build/default/production/NxpNfcRdLib/comps/phalI18000p3m3/src/phalI18000p3m3.o
 .debug_line    0x000026d5      0x339 build/default/production/NxpNfcRdLib/comps/phalMfc/src/Sw/phalMfc_Sw.o
 .debug_line    0x00002a0e       0x1d build/default/production/NxpNfcRdLib/comps/phalMfc/src/phalMfc.o
 .debug_line    0x00002a2b      0x246 build/default/production/NxpNfcRdLib/comps/phalMfc/src/phalMfc_Int.o
 .debug_line    0x00002c71      0x332 build/default/production/NxpNfcRdLib/comps/phalMfdf/src/Sw/phalMfdf_Sw.o
 .debug_line    0x00002fa3      0x3e9 build/default/production/NxpNfcRdLib/comps/phalMfdf/src/Sw/phalMfdf_Sw_Int.o
 .debug_line    0x0000338c       0x1d build/default/production/NxpNfcRdLib/comps/phalMfdf/src/phalMfdf.o
 .debug_line    0x000033a9      0x25f build/default/production/NxpNfcRdLib/comps/phalMfdf/src/phalMfdf_Int.o
 .debug_line    0x00003608       0x1d build/default/production/NxpNfcRdLib/comps/phalMful/src/Sw/phalMful_Sw.o
 .debug_line    0x00003625       0x1d build/default/production/NxpNfcRdLib/comps/phalMful/src/phalMful.o
 .debug_line    0x00003642       0x1d build/default/production/NxpNfcRdLib/comps/phalMful/src/phalMful_Int.o
 .debug_line    0x0000365f       0x1d build/default/production/NxpNfcRdLib/comps/phalSli/src/Sw/phalSli_Sw.o
 .debug_line    0x0000367c       0x1d build/default/production/NxpNfcRdLib/comps/phalSli/src/phalSli.o
 .debug_line    0x00003699       0x1d build/default/production/NxpNfcRdLib/comps/phalT1T/src/Sw/phalT1T_Sw.o
 .debug_line    0x000036b6       0x1d build/default/production/NxpNfcRdLib/comps/phalT1T/src/phalT1T.o
 .debug_line    0x000036d3       0x1d build/default/production/NxpNfcRdLib/comps/phalTop/src/Sw/phalTop_Sw.o
 .debug_line    0x000036f0       0x1d build/default/production/NxpNfcRdLib/comps/phalTop/src/Sw/phalTop_Sw_Int_T1T.o
 .debug_line    0x0000370d       0x1d build/default/production/NxpNfcRdLib/comps/phalTop/src/Sw/phalTop_Sw_Int_T2T.o
 .debug_line    0x0000372a       0x1d build/default/production/NxpNfcRdLib/comps/phalTop/src/Sw/phalTop_Sw_Int_T3T.o
 .debug_line    0x00003747       0x1d build/default/production/NxpNfcRdLib/comps/phalTop/src/Sw/phalTop_Sw_Int_T4T.o
 .debug_line    0x00003764       0x1d build/default/production/NxpNfcRdLib/comps/phalTop/src/Sw/phalTop_Sw_Int_T5T.o
 .debug_line    0x00003781       0x1d build/default/production/NxpNfcRdLib/comps/phalTop/src/phalTop.o
 .debug_line    0x0000379e       0x1d build/default/production/NxpNfcRdLib/comps/phbalReg/src/KinetisI2C/phbalReg_KinetisI2C.o
 .debug_line    0x000037bb       0x1d build/default/production/NxpNfcRdLib/comps/phbalReg/src/KinetisSPI/phbalReg_KinetisSpi.o
 .debug_line    0x000037d8       0x1d build/default/production/NxpNfcRdLib/comps/phbalReg/src/LinuxKernelSpi/phbalReg_LinuxKernelSpi.o
 .debug_line    0x000037f5       0x1d build/default/production/NxpNfcRdLib/comps/phbalReg/src/LinuxUserI2C/phbalReg_LinuxUserI2C.o
 .debug_line    0x00003812       0x1d build/default/production/NxpNfcRdLib/comps/phbalReg/src/LinuxUserSpi/phbalReg_LinuxUserSpi.o
 .debug_line    0x0000382f       0x1d build/default/production/NxpNfcRdLib/comps/phbalReg/src/LpcOpenI2C/phbalReg_LpcOpenI2c.o
 .debug_line    0x0000384c       0x1d build/default/production/NxpNfcRdLib/comps/phbalReg/src/LpcOpenSPI/phbalReg_LpcOpenSpi.o
 .debug_line    0x00003869      0x2c5 build/default/production/NxpNfcRdLib/comps/phbalReg/src/Pic32mxSPI/phbalReg_Pic32mxSpi.o
 .debug_line    0x00003b2e       0x1d build/default/production/NxpNfcRdLib/comps/phbalReg/src/phbalReg.o
 .debug_line    0x00003b4b       0x1d build/default/production/NxpNfcRdLib/comps/phceT4T/src/Sw/phceT4T_Sw.o
 .debug_line    0x00003b68       0x1d build/default/production/NxpNfcRdLib/comps/phceT4T/src/Sw/phceT4T_Sw_Int.o
 .debug_line    0x00003b85       0x1d build/default/production/NxpNfcRdLib/comps/phceT4T/src/phceT4T.o
 .debug_line    0x00003ba2       0x1d build/default/production/NxpNfcRdLib/comps/phCidManager/src/Sw/phCidManager_Sw.o
 .debug_line    0x00003bbf       0x1d build/default/production/NxpNfcRdLib/comps/phCidManager/src/phCidManager.o
 .debug_line    0x00003bdc       0x1d build/default/production/NxpNfcRdLib/comps/phCryptoRng/src/Sw/phCryptoRng_Sw.o
 .debug_line    0x00003bf9       0x1d build/default/production/NxpNfcRdLib/comps/phCryptoRng/src/phCryptoRng.o
 .debug_line    0x00003c16       0x1d build/default/production/NxpNfcRdLib/comps/phCryptoSym/src/Sw/phCryptoSym_Sw.o
 .debug_line    0x00003c33       0x1d build/default/production/NxpNfcRdLib/comps/phCryptoSym/src/Sw/phCryptoSym_Sw_Aes.o
 .debug_line    0x00003c50       0x1d build/default/production/NxpNfcRdLib/comps/phCryptoSym/src/Sw/phCryptoSym_Sw_Des.o
 .debug_line    0x00003c6d       0x1d build/default/production/NxpNfcRdLib/comps/phCryptoSym/src/Sw/phCryptoSym_Sw_Int.o
 .debug_line    0x00003c8a       0x1d build/default/production/NxpNfcRdLib/comps/phCryptoSym/src/phCryptoSym.o
 .debug_line    0x00003ca7      0xb33 build/default/production/NxpNfcRdLib/comps/phhalHw/src/Pn5180/phhalHw_Pn5180.o
 .debug_line    0x000047da      0x770 build/default/production/NxpNfcRdLib/comps/phhalHw/src/Pn5180/phhalHw_Pn5180_Instr.o
 .debug_line    0x00004f4a      0x7b8 build/default/production/NxpNfcRdLib/comps/phhalHw/src/Pn5180/phhalHw_Pn5180_Int.o
 .debug_line    0x00005702      0x1e4 build/default/production/NxpNfcRdLib/comps/phhalHw/src/Pn5180/phhalHw_Pn5180_Wait.o
 .debug_line    0x000058e6       0x1d build/default/production/NxpNfcRdLib/comps/phhalHw/src/PN7462AU/phhalHw_PN7462AU.o
 .debug_line    0x00005903       0x1d build/default/production/NxpNfcRdLib/comps/phhalHw/src/PN7462AU/phhalHw_PN7462AU_Int.o
 .debug_line    0x00005920       0x1d build/default/production/NxpNfcRdLib/comps/phhalHw/src/Rc523/phhalHw_Rc523.o
 .debug_line    0x0000593d       0x1d build/default/production/NxpNfcRdLib/comps/phhalHw/src/Rc523/phhalHw_Rc523_Cmd.o
 .debug_line    0x0000595a       0x1d build/default/production/NxpNfcRdLib/comps/phhalHw/src/Rc523/phhalHw_Rc523_Int.o
 .debug_line    0x00005977       0x1d build/default/production/NxpNfcRdLib/comps/phhalHw/src/Rc523/phhalHw_Rc523_Wait.o
 .debug_line    0x00005994       0x1d build/default/production/NxpNfcRdLib/comps/phhalHw/src/Rc663/phhalHw_Rc663.o
 .debug_line    0x000059b1       0x1d build/default/production/NxpNfcRdLib/comps/phhalHw/src/Rc663/phhalHw_Rc663_Cmd.o
 .debug_line    0x000059ce       0x1d build/default/production/NxpNfcRdLib/comps/phhalHw/src/Rc663/phhalHw_Rc663_Int.o
 .debug_line    0x000059eb       0x1d build/default/production/NxpNfcRdLib/comps/phhalHw/src/Rc663/phhalHw_Rc663_Wait.o
 .debug_line    0x00005a08      0x1ad build/default/production/NxpNfcRdLib/comps/phhalHw/src/phhalHw.o
 .debug_line    0x00005bb5       0x1d build/default/production/NxpNfcRdLib/comps/phKeyStore/src/Rc663/phKeyStore_Rc663.o
 .debug_line    0x00005bd2      0x3af build/default/production/NxpNfcRdLib/comps/phKeyStore/src/Sw/phKeyStore_Sw.o
 .debug_line    0x00005f81       0xf4 build/default/production/NxpNfcRdLib/comps/phKeyStore/src/phKeyStore.o
 .debug_line    0x00006075       0x1d build/default/production/NxpNfcRdLib/comps/phlnLlcp/src/Sw/phlnLlcp_Sw.o
 .debug_line    0x00006092       0x1d build/default/production/NxpNfcRdLib/comps/phlnLlcp/src/Sw/phlnLlcp_Sw_Int.o
 .debug_line    0x000060af       0x1d build/default/production/NxpNfcRdLib/comps/phlnLlcp/src/Sw/phlnLlcp_Sw_Mac.o
 .debug_line    0x000060cc       0x1d build/default/production/NxpNfcRdLib/comps/phlnLlcp/src/Sw/phlnLlcp_Sw_Transport.o
 .debug_line    0x000060e9       0x1d build/default/production/NxpNfcRdLib/comps/phlnLlcp/src/Sw/phlnLlcp_Sw_Transport_Connection.o
 .debug_line    0x00006106       0x1d build/default/production/NxpNfcRdLib/comps/phlnLlcp/src/Sw/phlnLlcp_Sw_Transport_Connectionless.o
 .debug_line    0x00006123       0x1d build/default/production/NxpNfcRdLib/comps/phlnLlcp/src/Sw/phlnLlcp_Timers.o
 .debug_line    0x00006140       0x1d build/default/production/NxpNfcRdLib/comps/phlnLlcp/src/phlnLlcp.o
 .debug_line    0x0000615d       0x1d build/default/production/NxpNfcRdLib/comps/phLog/src/phLog.o
 .debug_line    0x0000617a       0x1d build/default/production/NxpNfcRdLib/comps/phNfcLib/src/phNfcLib.o
 .debug_line    0x00006197       0x1d build/default/production/NxpNfcRdLib/comps/phNfcLib/src/phNfcLib_15693.o
 .debug_line    0x000061b4       0x1d build/default/production/NxpNfcRdLib/comps/phNfcLib/src/phNfcLib_18000p3m3.o
 .debug_line    0x000061d1       0x1d build/default/production/NxpNfcRdLib/comps/phNfcLib/src/phNfcLib_MFC.o
 .debug_line    0x000061ee       0x1d build/default/production/NxpNfcRdLib/comps/phNfcLib/src/phNfcLib_MFDF.o
 .debug_line    0x0000620b       0x1d build/default/production/NxpNfcRdLib/comps/phNfcLib/src/phNfcLib_MFUL.o
 .debug_line    0x00006228       0x1d build/default/production/NxpNfcRdLib/comps/phNfcLib/src/phNfcLib_Utility.o
 .debug_line    0x00006245       0x1d build/default/production/NxpNfcRdLib/comps/phnpSnep/src/Sw/phnpSnep_Sw.o
 .debug_line    0x00006262       0x1d build/default/production/NxpNfcRdLib/comps/phnpSnep/src/phnpSnep.o
 .debug_line    0x0000627f       0x1d build/default/production/NxpNfcRdLib/comps/phOsal/src/Freertos/phOsal_Freertos.o
 .debug_line    0x0000629c       0x1d build/default/production/NxpNfcRdLib/comps/phOsal/src/Linux/phOsal_Linux.o
 .debug_line    0x000062b9      0x46b build/default/production/NxpNfcRdLib/comps/phOsal/src/NullOs/phOsal_NullOs.o
 .debug_line    0x00006724       0x1d build/default/production/NxpNfcRdLib/comps/phpalEpcUid/src/Sw/phpalEpcUid_Sw.o
 .debug_line    0x00006741       0x1d build/default/production/NxpNfcRdLib/comps/phpalEpcUid/src/phpalEpcUid.o
 .debug_line    0x0000675e       0x1d build/default/production/NxpNfcRdLib/comps/phpalFelica/src/Sw/phpalFelica_Sw.o
 .debug_line    0x0000677b       0x1d build/default/production/NxpNfcRdLib/comps/phpalFelica/src/phpalFelica.o
 .debug_line    0x00006798      0x47b build/default/production/NxpNfcRdLib/comps/phpalI14443p3a/src/Sw/phpalI14443p3a_Sw.o
 .debug_line    0x00006c13       0x1d build/default/production/NxpNfcRdLib/comps/phpalI14443p3a/src/phpalI14443p3a.o
 .debug_line    0x00006c30       0x1d build/default/production/NxpNfcRdLib/comps/phpalI14443p3b/src/Sw/phpalI14443p3b_Sw.o
 .debug_line    0x00006c4d       0x1d build/default/production/NxpNfcRdLib/comps/phpalI14443p3b/src/phpalI14443p3b.o
 .debug_line    0x00006c6a      0x5f4 build/default/production/NxpNfcRdLib/comps/phpalI14443p4/src/Sw/phpalI14443p4_Sw.o
 .debug_line    0x0000725e       0x1d build/default/production/NxpNfcRdLib/comps/phpalI14443p4/src/phpalI14443p4.o
 .debug_line    0x0000727b      0x353 build/default/production/NxpNfcRdLib/comps/phpalI14443p4a/src/Sw/phpalI14443p4a_Sw.o
 .debug_line    0x000075ce       0x1d build/default/production/NxpNfcRdLib/comps/phpalI14443p4a/src/phpalI14443p4a.o
 .debug_line    0x000075eb       0x1d build/default/production/NxpNfcRdLib/comps/phpalI14443p4mC/src/Sw/phpalI14443p4mC_Sw.o
 .debug_line    0x00007608       0x1d build/default/production/NxpNfcRdLib/comps/phpalI14443p4mC/src/Sw/phpalI14443p4mC_Sw_Int.o
 .debug_line    0x00007625       0x1d build/default/production/NxpNfcRdLib/comps/phpalI14443p4mC/src/phpalI14443p4mC.o
 .debug_line    0x00007642       0x1d build/default/production/NxpNfcRdLib/comps/phpalI18000p3m3/src/Sw/phpalI18000p3m3_Sw.o
 .debug_line    0x0000765f       0x1d build/default/production/NxpNfcRdLib/comps/phpalI18000p3m3/src/phpalI18000p3m3.o
 .debug_line    0x0000767c       0x1d build/default/production/NxpNfcRdLib/comps/phpalI18092mPI/src/Sw/phpalI18092mPI_Sw.o
 .debug_line    0x00007699       0x1d build/default/production/NxpNfcRdLib/comps/phpalI18092mPI/src/Sw/phpalI18092mPI_Sw_Int.o
 .debug_line    0x000076b6       0x1d build/default/production/NxpNfcRdLib/comps/phpalI18092mPI/src/phpalI18092mPI.o
 .debug_line    0x000076d3       0x1d build/default/production/NxpNfcRdLib/comps/phpalI18092mT/src/Sw/phpalI18092mT_Sw.o
 .debug_line    0x000076f0       0x1d build/default/production/NxpNfcRdLib/comps/phpalI18092mT/src/Sw/phpalI18092mT_Sw_Int.o
 .debug_line    0x0000770d       0x1d build/default/production/NxpNfcRdLib/comps/phpalI18092mT/src/phpalI18092mT.o
 .debug_line    0x0000772a      0x352 build/default/production/NxpNfcRdLib/comps/phpalMifare/src/Sw/phpalMifare_Sw.o
 .debug_line    0x00007a7c       0x1d build/default/production/NxpNfcRdLib/comps/phpalMifare/src/phpalMifare.o
 .debug_line    0x00007a99       0x1d build/default/production/NxpNfcRdLib/comps/phpalSli15693/src/Sw/phpalSli15693_Sw.o
 .debug_line    0x00007ab6       0x1d build/default/production/NxpNfcRdLib/comps/phpalSli15693/src/phpalSli15693.o
 .debug_line    0x00007ad3       0x1d build/default/production/NxpNfcRdLib/comps/phPlatform/src/Port/K81/phPlatform_Port_K81.o
 .debug_line    0x00007af0       0x1d build/default/production/NxpNfcRdLib/comps/phPlatform/src/Port/K81/phPlatform_Port_KinetisTimer.o
 .debug_line    0x00007b0d       0x1d build/default/production/NxpNfcRdLib/comps/phPlatform/src/Port/K82/phPlatform_Port_K82.o
 .debug_line    0x00007b2a       0x1d build/default/production/NxpNfcRdLib/comps/phPlatform/src/Port/K82/phPlatform_Port_K82Timer.o
 .debug_line    0x00007b47        0x0 build/default/production/NxpNfcRdLib/comps/phPlatform/src/Port/LPC11u68/cr_startup_lpc11u6x.o
 .debug_line    0x00007b47       0x1d build/default/production/NxpNfcRdLib/comps/phPlatform/src/Port/LPC11u68/phPlatform_Port_LPC11u68.o
 .debug_line    0x00007b64       0x1d build/default/production/NxpNfcRdLib/comps/phPlatform/src/Port/LPC1769/cr_startup_lpc175x_6x.o
 .debug_line    0x00007b81       0x1d build/default/production/NxpNfcRdLib/comps/phPlatform/src/Port/LPC1769/keil_iar_sysinit.o
 .debug_line    0x00007b9e       0x1d build/default/production/NxpNfcRdLib/comps/phPlatform/src/Port/LPC1769/phPlatform_Port_LPC1769.o
 .debug_line    0x00007bbb       0x1d build/default/production/NxpNfcRdLib/comps/phPlatform/src/Port/LPCTimer/phPlatform_Port_LPCTimer.o
 .debug_line    0x00007bd8      0x2a1 build/default/production/NxpNfcRdLib/comps/phPlatform/src/Port/PIC32MX/phPlatform_Port_PIC32MX.o
 .debug_line    0x00007e79      0x31e build/default/production/NxpNfcRdLib/comps/phPlatform/src/Port/PIC32MX/phPlatform_Port_PIC32MXTimer.o
 .debug_line    0x00008197       0x1d build/default/production/NxpNfcRdLib/comps/phPlatform/src/Port/PN7462AU/phPlatform_Port_PN7462AU.o
 .debug_line    0x000081b4       0x1d build/default/production/NxpNfcRdLib/comps/phPlatform/src/Port/RaspberryPi/phPlatform_Port_Pi.o
 .debug_line    0x000081d1       0x1d build/default/production/NxpNfcRdLib/comps/phPlatform/src/Port/RaspberryPi/phPlatform_Port_PiGpio.o
 .debug_line    0x000081ee      0x36e build/default/production/NxpNfcRdLib/comps/phPlatform/src/phPlatform.o
 .debug_line    0x0000855c      0x391 build/default/production/NxpNfcRdLib/comps/phTools/src/phTools.o
 .debug_line    0x000088ed      0x2d6 build/default/production/NxpNfcRdLib/comps/phTools/src/phTools_Q.o
 .debug_line    0x00008bc3      0x4dc build/default/production/main.o
 .debug_line    0x0000909f       0x98 c:/program files (x86)/microchip/xc32/v2.05/bin/bin/../../lib/gcc/pic32mx/4.8.3\libgcc.a(floatunsisf.o)
 .debug_line    0x00009137       0xa5 c:/program files (x86)/microchip/xc32/v2.05/bin/bin/../../lib/gcc/pic32mx/4.8.3/../../../../pic32mx/lib\libpic32.a(default-bootstrap-exception-handler.o)
 .debug_line    0x000091dc       0x92 c:/program files (x86)/microchip/xc32/v2.05/bin/bin/../../lib/gcc/pic32mx/4.8.3/../../../../pic32mx/lib\libpic32.a(default-on-reset.o)
 .debug_line    0x0000926e       0x96 c:/program files (x86)/microchip/xc32/v2.05/bin/bin/../../lib/gcc/pic32mx/4.8.3/../../../../pic32mx/lib\libpic32.a(default-on-bootstrap.o)
 .debug_line    0x00009304       0xa4 c:/program files (x86)/microchip/xc32/v2.05/bin/bin/../../lib/gcc/pic32mx/4.8.3/../../../../pic32mx/lib\libpic32.a(defaultinterrupt.o)

.debug_frame    0x00000000     0x32c0
 *(.debug_frame)
 .debug_frame   0x00000000      0x1a4 build/default/production/mcc_generated_files/tmr2.o
 .debug_frame   0x000001a4      0x1b4 build/default/production/mcc_generated_files/uart1.o
 .debug_frame   0x00000358       0x30 build/default/production/mcc_generated_files/interrupt_manager.o
 .debug_frame   0x00000388      0x1a4 build/default/production/mcc_generated_files/tmr1.o
 .debug_frame   0x0000052c       0xa4 build/default/production/mcc_generated_files/mcc.o
 .debug_frame   0x000005d0       0x8c build/default/production/mcc_generated_files/pin_manager.o
 .debug_frame   0x0000065c       0xc8 build/default/production/mcc_generated_files/spi1.o
 .debug_frame   0x00000724      0x100 build/default/production/mcc_generated_files/adc1.o
 .debug_frame   0x00000824       0xc8 build/default/production/mcc_generated_files/spi2.o
 .debug_frame   0x000008ec       0xe8 build/default/production/nxp_reader_config_files/phApp_Init.o
 .debug_frame   0x000009d4       0xb0 build/default/production/NxpNfcRdLib/comps/phacDiscLoop/src/Sw/phacDiscLoop_Sw.o
 .debug_frame   0x00000a84      0x180 build/default/production/NxpNfcRdLib/comps/phacDiscLoop/src/Sw/phacDiscLoop_Sw_Int.o
 .debug_frame   0x00000c04       0x70 build/default/production/NxpNfcRdLib/comps/phacDiscLoop/src/Sw/phacDiscLoop_Sw_Int_A.o
 .debug_frame   0x00000c74       0x64 build/default/production/NxpNfcRdLib/comps/phacDiscLoop/src/Sw/phacDiscLoop_Sw_Int_B.o
 .debug_frame   0x00000cd8       0x64 build/default/production/NxpNfcRdLib/comps/phacDiscLoop/src/Sw/phacDiscLoop_Sw_Int_F.o
 .debug_frame   0x00000d3c       0x64 build/default/production/NxpNfcRdLib/comps/phacDiscLoop/src/Sw/phacDiscLoop_Sw_Int_I18000p3m3.o
 .debug_frame   0x00000da0       0x64 build/default/production/NxpNfcRdLib/comps/phacDiscLoop/src/Sw/phacDiscLoop_Sw_Int_V.o
 .debug_frame   0x00000e04      0x1f0 build/default/production/NxpNfcRdLib/comps/phalMfc/src/Sw/phalMfc_Sw.o
 .debug_frame   0x00000ff4       0xb0 build/default/production/NxpNfcRdLib/comps/phalMfc/src/phalMfc_Int.o
 .debug_frame   0x000010a4      0x170 build/default/production/NxpNfcRdLib/comps/phalMfdf/src/Sw/phalMfdf_Sw.o
 .debug_frame   0x00001214       0xb0 build/default/production/NxpNfcRdLib/comps/phalMfdf/src/Sw/phalMfdf_Sw_Int.o
 .debug_frame   0x000012c4       0x70 build/default/production/NxpNfcRdLib/comps/phalMfdf/src/phalMfdf_Int.o
 .debug_frame   0x00001334       0xf8 build/default/production/NxpNfcRdLib/comps/phbalReg/src/Pic32mxSPI/phbalReg_Pic32mxSpi.o
 .debug_frame   0x0000142c      0x374 build/default/production/NxpNfcRdLib/comps/phhalHw/src/Pn5180/phhalHw_Pn5180.o
 .debug_frame   0x000017a0      0x448 build/default/production/NxpNfcRdLib/comps/phhalHw/src/Pn5180/phhalHw_Pn5180_Instr.o
 .debug_frame   0x00001be8      0x1d0 build/default/production/NxpNfcRdLib/comps/phhalHw/src/Pn5180/phhalHw_Pn5180_Int.o
 .debug_frame   0x00001db8       0x30 build/default/production/NxpNfcRdLib/comps/phhalHw/src/Pn5180/phhalHw_Pn5180_Wait.o
 .debug_frame   0x00001de8       0x30 build/default/production/NxpNfcRdLib/comps/phhalHw/src/phhalHw.o
 .debug_frame   0x00001e18      0x228 build/default/production/NxpNfcRdLib/comps/phKeyStore/src/Sw/phKeyStore_Sw.o
 .debug_frame   0x00002040       0x30 build/default/production/NxpNfcRdLib/comps/phKeyStore/src/phKeyStore.o
 .debug_frame   0x00002070      0x3c4 build/default/production/NxpNfcRdLib/comps/phOsal/src/NullOs/phOsal_NullOs.o
 .debug_frame   0x00002434      0x190 build/default/production/NxpNfcRdLib/comps/phpalI14443p3a/src/Sw/phpalI14443p3a_Sw.o
 .debug_frame   0x000025c4      0x1f0 build/default/production/NxpNfcRdLib/comps/phpalI14443p4/src/Sw/phpalI14443p4_Sw.o
 .debug_frame   0x000027b4       0xd0 build/default/production/NxpNfcRdLib/comps/phpalI14443p4a/src/Sw/phpalI14443p4a_Sw.o
 .debug_frame   0x00002884      0x110 build/default/production/NxpNfcRdLib/comps/phpalMifare/src/Sw/phpalMifare_Sw.o
 .debug_frame   0x00002994       0xa8 build/default/production/NxpNfcRdLib/comps/phPlatform/src/Port/PIC32MX/phPlatform_Port_PIC32MX.o
 .debug_frame   0x00002a3c      0x230 build/default/production/NxpNfcRdLib/comps/phPlatform/src/Port/PIC32MX/phPlatform_Port_PIC32MXTimer.o
 .debug_frame   0x00002c6c      0x1f0 build/default/production/NxpNfcRdLib/comps/phPlatform/src/phPlatform.o
 .debug_frame   0x00002e5c      0x154 build/default/production/NxpNfcRdLib/comps/phTools/src/phTools.o
 .debug_frame   0x00002fb0      0x150 build/default/production/NxpNfcRdLib/comps/phTools/src/phTools_Q.o
 .debug_frame   0x00003100      0x10c build/default/production/main.o
 .debug_frame   0x0000320c       0x28 c:/program files (x86)/microchip/xc32/v2.05/bin/bin/../../lib/gcc/pic32mx/4.8.3\libgcc.a(floatunsisf.o)
 .debug_frame   0x00003234       0x2c c:/program files (x86)/microchip/xc32/v2.05/bin/bin/../../lib/gcc/pic32mx/4.8.3/../../../../pic32mx/lib\libpic32.a(default-bootstrap-exception-handler.o)
 .debug_frame   0x00003260       0x20 c:/program files (x86)/microchip/xc32/v2.05/bin/bin/../../lib/gcc/pic32mx/4.8.3/../../../../pic32mx/lib\libpic32.a(default-on-reset.o)
 .debug_frame   0x00003280       0x20 c:/program files (x86)/microchip/xc32/v2.05/bin/bin/../../lib/gcc/pic32mx/4.8.3/../../../../pic32mx/lib\libpic32.a(default-on-bootstrap.o)
 .debug_frame   0x000032a0       0x20 c:/program files (x86)/microchip/xc32/v2.05/bin/bin/../../lib/gcc/pic32mx/4.8.3/../../../../pic32mx/lib\libpic32.a(defaultinterrupt.o)

.debug_str      0x00000000      0xe35
 *(.debug_str)
 .debug_str     0x00000000        0x0 build/default/production/mcc_generated_files/tmr2.o
 .debug_str     0x00000000        0x0 build/default/production/mcc_generated_files/uart1.o
 .debug_str     0x00000000        0x0 build/default/production/mcc_generated_files/interrupt_manager.o
 .debug_str     0x00000000        0x0 build/default/production/mcc_generated_files/tmr1.o
 .debug_str     0x00000000        0x0 build/default/production/mcc_generated_files/mcc.o
 .debug_str     0x00000000        0x0 build/default/production/mcc_generated_files/pin_manager.o
 .debug_str     0x00000000       0x2e build/default/production/mcc_generated_files/spi1.o
 .debug_str     0x0000002e        0x0 build/default/production/mcc_generated_files/adc1.o
 .debug_str     0x0000002e       0x2e build/default/production/mcc_generated_files/spi2.o
 .debug_str     0x0000005c       0x51 build/default/production/nxp_reader_config_files/phApp_Init.o
 .debug_str     0x000000ad       0x24 build/default/production/NxpNfcRdLib/comps/phacDiscLoop/src/Sw/phacDiscLoop_Sw.o
 .debug_str     0x000000d1       0x67 build/default/production/NxpNfcRdLib/comps/phacDiscLoop/src/Sw/phacDiscLoop_Sw_Int.o
 .debug_str     0x00000138       0x51 build/default/production/NxpNfcRdLib/comps/phacDiscLoop/src/Sw/phacDiscLoop_Sw_Int_A.o
 .debug_str     0x00000189        0xc build/default/production/NxpNfcRdLib/comps/phacDiscLoop/src/Sw/phacDiscLoop_Sw_Int_B.o
 .debug_str     0x00000195        0xc build/default/production/NxpNfcRdLib/comps/phacDiscLoop/src/Sw/phacDiscLoop_Sw_Int_F.o
 .debug_str     0x000001a1        0xc build/default/production/NxpNfcRdLib/comps/phacDiscLoop/src/Sw/phacDiscLoop_Sw_Int_I18000p3m3.o
 .debug_str     0x000001ad        0xc build/default/production/NxpNfcRdLib/comps/phacDiscLoop/src/Sw/phacDiscLoop_Sw_Int_V.o
 .debug_str     0x000001b9        0x0 build/default/production/NxpNfcRdLib/comps/phacDiscLoop/src/phacDiscLoop.o
 .debug_str     0x000001b9        0x0 build/default/production/NxpNfcRdLib/comps/phalFelica/src/Sw/phalFelica_Sw.o
 .debug_str     0x000001b9        0x0 build/default/production/NxpNfcRdLib/comps/phalFelica/src/phalFelica.o
 .debug_str     0x000001b9        0x0 build/default/production/NxpNfcRdLib/comps/phalI15693/src/Sw/phalI15693_Sw.o
 .debug_str     0x000001b9        0x0 build/default/production/NxpNfcRdLib/comps/phalI15693/src/phalI15693.o
 .debug_str     0x000001b9        0x0 build/default/production/NxpNfcRdLib/comps/phalI18000p3m3/src/Sw/phalI18000p3m3_Sw.o
 .debug_str     0x000001b9        0x0 build/default/production/NxpNfcRdLib/comps/phalI18000p3m3/src/Sw/phalI18000p3m3_Sw_Int.o
 .debug_str     0x000001b9        0x0 build/default/production/NxpNfcRdLib/comps/phalI18000p3m3/src/phalI18000p3m3.o
 .debug_str     0x000001b9       0x8f build/default/production/NxpNfcRdLib/comps/phalMfc/src/Sw/phalMfc_Sw.o
 .debug_str     0x00000248        0x0 build/default/production/NxpNfcRdLib/comps/phalMfc/src/phalMfc.o
 .debug_str     0x00000248       0x3b build/default/production/NxpNfcRdLib/comps/phalMfc/src/phalMfc_Int.o
 .debug_str     0x00000283       0x9c build/default/production/NxpNfcRdLib/comps/phalMfdf/src/Sw/phalMfdf_Sw.o
 .debug_str     0x0000031f       0xaa build/default/production/NxpNfcRdLib/comps/phalMfdf/src/Sw/phalMfdf_Sw_Int.o
 .debug_str     0x000003c9        0x0 build/default/production/NxpNfcRdLib/comps/phalMfdf/src/phalMfdf.o
 .debug_str     0x000003c9       0x47 build/default/production/NxpNfcRdLib/comps/phalMfdf/src/phalMfdf_Int.o
 .debug_str     0x00000410        0x0 build/default/production/NxpNfcRdLib/comps/phalMful/src/Sw/phalMful_Sw.o
 .debug_str     0x00000410        0x0 build/default/production/NxpNfcRdLib/comps/phalMful/src/phalMful.o
 .debug_str     0x00000410        0x0 build/default/production/NxpNfcRdLib/comps/phalMful/src/phalMful_Int.o
 .debug_str     0x00000410        0x0 build/default/production/NxpNfcRdLib/comps/phalSli/src/Sw/phalSli_Sw.o
 .debug_str     0x00000410        0x0 build/default/production/NxpNfcRdLib/comps/phalSli/src/phalSli.o
 .debug_str     0x00000410        0x0 build/default/production/NxpNfcRdLib/comps/phalT1T/src/Sw/phalT1T_Sw.o
 .debug_str     0x00000410        0x0 build/default/production/NxpNfcRdLib/comps/phalT1T/src/phalT1T.o
 .debug_str     0x00000410        0x0 build/default/production/NxpNfcRdLib/comps/phalTop/src/Sw/phalTop_Sw.o
 .debug_str     0x00000410        0x0 build/default/production/NxpNfcRdLib/comps/phalTop/src/Sw/phalTop_Sw_Int_T1T.o
 .debug_str     0x00000410        0x0 build/default/production/NxpNfcRdLib/comps/phalTop/src/Sw/phalTop_Sw_Int_T2T.o
 .debug_str     0x00000410        0x0 build/default/production/NxpNfcRdLib/comps/phalTop/src/Sw/phalTop_Sw_Int_T3T.o
 .debug_str     0x00000410        0x0 build/default/production/NxpNfcRdLib/comps/phalTop/src/Sw/phalTop_Sw_Int_T4T.o
 .debug_str     0x00000410        0x0 build/default/production/NxpNfcRdLib/comps/phalTop/src/Sw/phalTop_Sw_Int_T5T.o
 .debug_str     0x00000410        0x0 build/default/production/NxpNfcRdLib/comps/phalTop/src/phalTop.o
 .debug_str     0x00000410        0x0 build/default/production/NxpNfcRdLib/comps/phbalReg/src/KinetisI2C/phbalReg_KinetisI2C.o
 .debug_str     0x00000410        0x0 build/default/production/NxpNfcRdLib/comps/phbalReg/src/KinetisSPI/phbalReg_KinetisSpi.o
 .debug_str     0x00000410        0x0 build/default/production/NxpNfcRdLib/comps/phbalReg/src/LinuxKernelSpi/phbalReg_LinuxKernelSpi.o
 .debug_str     0x00000410        0x0 build/default/production/NxpNfcRdLib/comps/phbalReg/src/LinuxUserI2C/phbalReg_LinuxUserI2C.o
 .debug_str     0x00000410        0x0 build/default/production/NxpNfcRdLib/comps/phbalReg/src/LinuxUserSpi/phbalReg_LinuxUserSpi.o
 .debug_str     0x00000410        0x0 build/default/production/NxpNfcRdLib/comps/phbalReg/src/LpcOpenI2C/phbalReg_LpcOpenI2c.o
 .debug_str     0x00000410        0x0 build/default/production/NxpNfcRdLib/comps/phbalReg/src/LpcOpenSPI/phbalReg_LpcOpenSpi.o
 .debug_str     0x00000410        0xc build/default/production/NxpNfcRdLib/comps/phbalReg/src/Pic32mxSPI/phbalReg_Pic32mxSpi.o
 .debug_str     0x0000041c        0x0 build/default/production/NxpNfcRdLib/comps/phbalReg/src/phbalReg.o
 .debug_str     0x0000041c        0x0 build/default/production/NxpNfcRdLib/comps/phceT4T/src/Sw/phceT4T_Sw.o
 .debug_str     0x0000041c        0x0 build/default/production/NxpNfcRdLib/comps/phceT4T/src/Sw/phceT4T_Sw_Int.o
 .debug_str     0x0000041c        0x0 build/default/production/NxpNfcRdLib/comps/phceT4T/src/phceT4T.o
 .debug_str     0x0000041c        0x0 build/default/production/NxpNfcRdLib/comps/phCidManager/src/Sw/phCidManager_Sw.o
 .debug_str     0x0000041c        0x0 build/default/production/NxpNfcRdLib/comps/phCidManager/src/phCidManager.o
 .debug_str     0x0000041c        0x0 build/default/production/NxpNfcRdLib/comps/phCryptoRng/src/Sw/phCryptoRng_Sw.o
 .debug_str     0x0000041c        0x0 build/default/production/NxpNfcRdLib/comps/phCryptoRng/src/phCryptoRng.o
 .debug_str     0x0000041c        0x0 build/default/production/NxpNfcRdLib/comps/phCryptoSym/src/Sw/phCryptoSym_Sw.o
 .debug_str     0x0000041c        0x0 build/default/production/NxpNfcRdLib/comps/phCryptoSym/src/Sw/phCryptoSym_Sw_Aes.o
 .debug_str     0x0000041c        0x0 build/default/production/NxpNfcRdLib/comps/phCryptoSym/src/Sw/phCryptoSym_Sw_Des.o
 .debug_str     0x0000041c        0x0 build/default/production/NxpNfcRdLib/comps/phCryptoSym/src/Sw/phCryptoSym_Sw_Int.o
 .debug_str     0x0000041c        0x0 build/default/production/NxpNfcRdLib/comps/phCryptoSym/src/phCryptoSym.o
 .debug_str     0x0000041c      0x181 build/default/production/NxpNfcRdLib/comps/phhalHw/src/Pn5180/phhalHw_Pn5180.o
 .debug_str     0x0000059d      0x12e build/default/production/NxpNfcRdLib/comps/phhalHw/src/Pn5180/phhalHw_Pn5180_Instr.o
 .debug_str     0x000006cb       0xb8 build/default/production/NxpNfcRdLib/comps/phhalHw/src/Pn5180/phhalHw_Pn5180_Int.o
 .debug_str     0x00000783        0x0 build/default/production/NxpNfcRdLib/comps/phhalHw/src/Pn5180/phhalHw_Pn5180_Wait.o
 .debug_str     0x00000783        0x0 build/default/production/NxpNfcRdLib/comps/phhalHw/src/PN7462AU/phhalHw_PN7462AU.o
 .debug_str     0x00000783        0x0 build/default/production/NxpNfcRdLib/comps/phhalHw/src/PN7462AU/phhalHw_PN7462AU_Int.o
 .debug_str     0x00000783        0x0 build/default/production/NxpNfcRdLib/comps/phhalHw/src/Rc523/phhalHw_Rc523.o
 .debug_str     0x00000783        0x0 build/default/production/NxpNfcRdLib/comps/phhalHw/src/Rc523/phhalHw_Rc523_Cmd.o
 .debug_str     0x00000783        0x0 build/default/production/NxpNfcRdLib/comps/phhalHw/src/Rc523/phhalHw_Rc523_Int.o
 .debug_str     0x00000783        0x0 build/default/production/NxpNfcRdLib/comps/phhalHw/src/Rc523/phhalHw_Rc523_Wait.o
 .debug_str     0x00000783        0x0 build/default/production/NxpNfcRdLib/comps/phhalHw/src/Rc663/phhalHw_Rc663.o
 .debug_str     0x00000783        0x0 build/default/production/NxpNfcRdLib/comps/phhalHw/src/Rc663/phhalHw_Rc663_Cmd.o
 .debug_str     0x00000783        0x0 build/default/production/NxpNfcRdLib/comps/phhalHw/src/Rc663/phhalHw_Rc663_Int.o
 .debug_str     0x00000783        0x0 build/default/production/NxpNfcRdLib/comps/phhalHw/src/Rc663/phhalHw_Rc663_Wait.o
 .debug_str     0x00000783       0x4d build/default/production/NxpNfcRdLib/comps/phhalHw/src/phhalHw.o
 .debug_str     0x000007d0        0x0 build/default/production/NxpNfcRdLib/comps/phKeyStore/src/Rc663/phKeyStore_Rc663.o
 .debug_str     0x000007d0       0xc8 build/default/production/NxpNfcRdLib/comps/phKeyStore/src/Sw/phKeyStore_Sw.o
 .debug_str     0x00000898        0x0 build/default/production/NxpNfcRdLib/comps/phKeyStore/src/phKeyStore.o
 .debug_str     0x00000898        0x0 build/default/production/NxpNfcRdLib/comps/phlnLlcp/src/Sw/phlnLlcp_Sw.o
 .debug_str     0x00000898        0x0 build/default/production/NxpNfcRdLib/comps/phlnLlcp/src/Sw/phlnLlcp_Sw_Int.o
 .debug_str     0x00000898        0x0 build/default/production/NxpNfcRdLib/comps/phlnLlcp/src/Sw/phlnLlcp_Sw_Mac.o
 .debug_str     0x00000898        0x0 build/default/production/NxpNfcRdLib/comps/phlnLlcp/src/Sw/phlnLlcp_Sw_Transport.o
 .debug_str     0x00000898        0x0 build/default/production/NxpNfcRdLib/comps/phlnLlcp/src/Sw/phlnLlcp_Sw_Transport_Connection.o
 .debug_str     0x00000898        0x0 build/default/production/NxpNfcRdLib/comps/phlnLlcp/src/Sw/phlnLlcp_Sw_Transport_Connectionless.o
 .debug_str     0x00000898        0x0 build/default/production/NxpNfcRdLib/comps/phlnLlcp/src/Sw/phlnLlcp_Timers.o
 .debug_str     0x00000898        0x0 build/default/production/NxpNfcRdLib/comps/phlnLlcp/src/phlnLlcp.o
 .debug_str     0x00000898        0x0 build/default/production/NxpNfcRdLib/comps/phLog/src/phLog.o
 .debug_str     0x00000898        0x0 build/default/production/NxpNfcRdLib/comps/phNfcLib/src/phNfcLib.o
 .debug_str     0x00000898        0x0 build/default/production/NxpNfcRdLib/comps/phNfcLib/src/phNfcLib_15693.o
 .debug_str     0x00000898        0x0 build/default/production/NxpNfcRdLib/comps/phNfcLib/src/phNfcLib_18000p3m3.o
 .debug_str     0x00000898        0x0 build/default/production/NxpNfcRdLib/comps/phNfcLib/src/phNfcLib_MFC.o
 .debug_str     0x00000898        0x0 build/default/production/NxpNfcRdLib/comps/phNfcLib/src/phNfcLib_MFDF.o
 .debug_str     0x00000898        0x0 build/default/production/NxpNfcRdLib/comps/phNfcLib/src/phNfcLib_MFUL.o
 .debug_str     0x00000898        0x0 build/default/production/NxpNfcRdLib/comps/phNfcLib/src/phNfcLib_Utility.o
 .debug_str     0x00000898        0x0 build/default/production/NxpNfcRdLib/comps/phnpSnep/src/Sw/phnpSnep_Sw.o
 .debug_str     0x00000898        0x0 build/default/production/NxpNfcRdLib/comps/phnpSnep/src/phnpSnep.o
 .debug_str     0x00000898        0x0 build/default/production/NxpNfcRdLib/comps/phOsal/src/Freertos/phOsal_Freertos.o
 .debug_str     0x00000898        0x0 build/default/production/NxpNfcRdLib/comps/phOsal/src/Linux/phOsal_Linux.o
 .debug_str     0x00000898       0x68 build/default/production/NxpNfcRdLib/comps/phOsal/src/NullOs/phOsal_NullOs.o
 .debug_str     0x00000900        0x0 build/default/production/NxpNfcRdLib/comps/phpalEpcUid/src/Sw/phpalEpcUid_Sw.o
 .debug_str     0x00000900        0x0 build/default/production/NxpNfcRdLib/comps/phpalEpcUid/src/phpalEpcUid.o
 .debug_str     0x00000900        0x0 build/default/production/NxpNfcRdLib/comps/phpalFelica/src/Sw/phpalFelica_Sw.o
 .debug_str     0x00000900        0x0 build/default/production/NxpNfcRdLib/comps/phpalFelica/src/phpalFelica.o
 .debug_str     0x00000900       0x73 build/default/production/NxpNfcRdLib/comps/phpalI14443p3a/src/Sw/phpalI14443p3a_Sw.o
 .debug_str     0x00000973        0x0 build/default/production/NxpNfcRdLib/comps/phpalI14443p3a/src/phpalI14443p3a.o
 .debug_str     0x00000973        0x0 build/default/production/NxpNfcRdLib/comps/phpalI14443p3b/src/Sw/phpalI14443p3b_Sw.o
 .debug_str     0x00000973        0x0 build/default/production/NxpNfcRdLib/comps/phpalI14443p3b/src/phpalI14443p3b.o
 .debug_str     0x00000973      0x107 build/default/production/NxpNfcRdLib/comps/phpalI14443p4/src/Sw/phpalI14443p4_Sw.o
 .debug_str     0x00000a7a        0x0 build/default/production/NxpNfcRdLib/comps/phpalI14443p4/src/phpalI14443p4.o
 .debug_str     0x00000a7a       0x3a build/default/production/NxpNfcRdLib/comps/phpalI14443p4a/src/Sw/phpalI14443p4a_Sw.o
 .debug_str     0x00000ab4        0x0 build/default/production/NxpNfcRdLib/comps/phpalI14443p4a/src/phpalI14443p4a.o
 .debug_str     0x00000ab4        0x0 build/default/production/NxpNfcRdLib/comps/phpalI14443p4mC/src/Sw/phpalI14443p4mC_Sw.o
 .debug_str     0x00000ab4        0x0 build/default/production/NxpNfcRdLib/comps/phpalI14443p4mC/src/Sw/phpalI14443p4mC_Sw_Int.o
 .debug_str     0x00000ab4        0x0 build/default/production/NxpNfcRdLib/comps/phpalI14443p4mC/src/phpalI14443p4mC.o
 .debug_str     0x00000ab4        0x0 build/default/production/NxpNfcRdLib/comps/phpalI18000p3m3/src/Sw/phpalI18000p3m3_Sw.o
 .debug_str     0x00000ab4        0x0 build/default/production/NxpNfcRdLib/comps/phpalI18000p3m3/src/phpalI18000p3m3.o
 .debug_str     0x00000ab4        0x0 build/default/production/NxpNfcRdLib/comps/phpalI18092mPI/src/Sw/phpalI18092mPI_Sw.o
 .debug_str     0x00000ab4        0x0 build/default/production/NxpNfcRdLib/comps/phpalI18092mPI/src/Sw/phpalI18092mPI_Sw_Int.o
 .debug_str     0x00000ab4        0x0 build/default/production/NxpNfcRdLib/comps/phpalI18092mPI/src/phpalI18092mPI.o
 .debug_str     0x00000ab4        0x0 build/default/production/NxpNfcRdLib/comps/phpalI18092mT/src/Sw/phpalI18092mT_Sw.o
 .debug_str     0x00000ab4        0x0 build/default/production/NxpNfcRdLib/comps/phpalI18092mT/src/Sw/phpalI18092mT_Sw_Int.o
 .debug_str     0x00000ab4        0x0 build/default/production/NxpNfcRdLib/comps/phpalI18092mT/src/phpalI18092mT.o
 .debug_str     0x00000ab4       0xab build/default/production/NxpNfcRdLib/comps/phpalMifare/src/Sw/phpalMifare_Sw.o
 .debug_str     0x00000b5f        0x0 build/default/production/NxpNfcRdLib/comps/phpalMifare/src/phpalMifare.o
 .debug_str     0x00000b5f        0x0 build/default/production/NxpNfcRdLib/comps/phpalSli15693/src/Sw/phpalSli15693_Sw.o
 .debug_str     0x00000b5f        0x0 build/default/production/NxpNfcRdLib/comps/phpalSli15693/src/phpalSli15693.o
 .debug_str     0x00000b5f        0x0 build/default/production/NxpNfcRdLib/comps/phPlatform/src/Port/K81/phPlatform_Port_K81.o
 .debug_str     0x00000b5f        0x0 build/default/production/NxpNfcRdLib/comps/phPlatform/src/Port/K81/phPlatform_Port_KinetisTimer.o
 .debug_str     0x00000b5f        0x0 build/default/production/NxpNfcRdLib/comps/phPlatform/src/Port/K82/phPlatform_Port_K82.o
 .debug_str     0x00000b5f        0x0 build/default/production/NxpNfcRdLib/comps/phPlatform/src/Port/K82/phPlatform_Port_K82Timer.o
 .debug_str     0x00000b5f        0x0 build/default/production/NxpNfcRdLib/comps/phPlatform/src/Port/LPC11u68/cr_startup_lpc11u6x.o
 .debug_str     0x00000b5f        0x0 build/default/production/NxpNfcRdLib/comps/phPlatform/src/Port/LPC11u68/phPlatform_Port_LPC11u68.o
 .debug_str     0x00000b5f        0x0 build/default/production/NxpNfcRdLib/comps/phPlatform/src/Port/LPC1769/cr_startup_lpc175x_6x.o
 .debug_str     0x00000b5f        0x0 build/default/production/NxpNfcRdLib/comps/phPlatform/src/Port/LPC1769/keil_iar_sysinit.o
 .debug_str     0x00000b5f        0x0 build/default/production/NxpNfcRdLib/comps/phPlatform/src/Port/LPC1769/phPlatform_Port_LPC1769.o
 .debug_str     0x00000b5f        0x0 build/default/production/NxpNfcRdLib/comps/phPlatform/src/Port/LPCTimer/phPlatform_Port_LPCTimer.o
 .debug_str     0x00000b5f        0x8 build/default/production/NxpNfcRdLib/comps/phPlatform/src/Port/PIC32MX/phPlatform_Port_PIC32MX.o
 .debug_str     0x00000b67       0x15 build/default/production/NxpNfcRdLib/comps/phPlatform/src/Port/PIC32MX/phPlatform_Port_PIC32MXTimer.o
 .debug_str     0x00000b7c        0x0 build/default/production/NxpNfcRdLib/comps/phPlatform/src/Port/PN7462AU/phPlatform_Port_PN7462AU.o
 .debug_str     0x00000b7c        0x0 build/default/production/NxpNfcRdLib/comps/phPlatform/src/Port/RaspberryPi/phPlatform_Port_Pi.o
 .debug_str     0x00000b7c        0x0 build/default/production/NxpNfcRdLib/comps/phPlatform/src/Port/RaspberryPi/phPlatform_Port_PiGpio.o
 .debug_str     0x00000b7c       0x54 build/default/production/NxpNfcRdLib/comps/phPlatform/src/phPlatform.o
 .debug_str     0x00000bd0       0xca build/default/production/NxpNfcRdLib/comps/phTools/src/phTools.o
 .debug_str     0x00000c9a       0x47 build/default/production/NxpNfcRdLib/comps/phTools/src/phTools_Q.o
 .debug_str     0x00000ce1      0x154 build/default/production/main.o
 .debug_str     0x00000e35        0x0 c:/program files (x86)/microchip/xc32/v2.05/bin/bin/../../lib/gcc/pic32mx/4.8.3\libgcc.a(floatunsisf.o)
 .debug_str     0x00000e35        0x0 c:/program files (x86)/microchip/xc32/v2.05/bin/bin/../../lib/gcc/pic32mx/4.8.3/../../../../pic32mx/lib\libpic32.a(default-bootstrap-exception-handler.o)
 .debug_str     0x00000e35        0x0 c:/program files (x86)/microchip/xc32/v2.05/bin/bin/../../lib/gcc/pic32mx/4.8.3/../../../../pic32mx/lib\libpic32.a(default-on-reset.o)
 .debug_str     0x00000e35        0x0 c:/program files (x86)/microchip/xc32/v2.05/bin/bin/../../lib/gcc/pic32mx/4.8.3/../../../../pic32mx/lib\libpic32.a(default-on-bootstrap.o)
 .debug_str     0x00000e35        0x0 c:/program files (x86)/microchip/xc32/v2.05/bin/bin/../../lib/gcc/pic32mx/4.8.3/../../../../pic32mx/lib\libpic32.a(defaultinterrupt.o)

.debug_loc      0x00000000       0xa0
 *(.debug_loc)
 .debug_loc     0x00000000       0x74 c:/program files (x86)/microchip/xc32/v2.05/bin/bin/../../lib/gcc/pic32mx/4.8.3\libgcc.a(floatunsisf.o)
 .debug_loc     0x00000074       0x2c c:/program files (x86)/microchip/xc32/v2.05/bin/bin/../../lib/gcc/pic32mx/4.8.3/../../../../pic32mx/lib\libpic32.a(default-bootstrap-exception-handler.o)

.debug_macinfo
 *(.debug_macinfo)

.debug_weaknames
 *(.debug_weaknames)

.debug_funcnames
 *(.debug_funcnames)

.debug_typenames
 *(.debug_typenames)

.debug_varnames
 *(.debug_varnames)

.debug_pubtypes
 *(.debug_pubtypes)

.debug_ranges   0x00000000      0xd80
 *(.debug_ranges)
 .debug_ranges  0x00000000       0x68 build/default/production/mcc_generated_files/tmr2.o
 .debug_ranges  0x00000068       0x70 build/default/production/mcc_generated_files/uart1.o
 .debug_ranges  0x000000d8       0x10 build/default/production/mcc_generated_files/interrupt_manager.o
 .debug_ranges  0x000000e8       0x68 build/default/production/mcc_generated_files/tmr1.o
 .debug_ranges  0x00000150       0x30 build/default/production/mcc_generated_files/mcc.o
 .debug_ranges  0x00000180       0x18 build/default/production/mcc_generated_files/pin_manager.o
 .debug_ranges  0x00000198       0x38 build/default/production/mcc_generated_files/spi1.o
 .debug_ranges  0x000001d0       0x48 build/default/production/mcc_generated_files/adc1.o
 .debug_ranges  0x00000218       0x38 build/default/production/mcc_generated_files/spi2.o
 .debug_ranges  0x00000250       0x40 build/default/production/nxp_reader_config_files/phApp_Init.o
 .debug_ranges  0x00000290       0x30 build/default/production/NxpNfcRdLib/comps/phacDiscLoop/src/Sw/phacDiscLoop_Sw.o
 .debug_ranges  0x000002c0       0x68 build/default/production/NxpNfcRdLib/comps/phacDiscLoop/src/Sw/phacDiscLoop_Sw_Int.o
 .debug_ranges  0x00000328       0x20 build/default/production/NxpNfcRdLib/comps/phacDiscLoop/src/Sw/phacDiscLoop_Sw_Int_A.o
 .debug_ranges  0x00000348       0x20 build/default/production/NxpNfcRdLib/comps/phacDiscLoop/src/Sw/phacDiscLoop_Sw_Int_B.o
 .debug_ranges  0x00000368       0x20 build/default/production/NxpNfcRdLib/comps/phacDiscLoop/src/Sw/phacDiscLoop_Sw_Int_F.o
 .debug_ranges  0x00000388       0x20 build/default/production/NxpNfcRdLib/comps/phacDiscLoop/src/Sw/phacDiscLoop_Sw_Int_I18000p3m3.o
 .debug_ranges  0x000003a8       0x20 build/default/production/NxpNfcRdLib/comps/phacDiscLoop/src/Sw/phacDiscLoop_Sw_Int_V.o
 .debug_ranges  0x000003c8       0x80 build/default/production/NxpNfcRdLib/comps/phalMfc/src/Sw/phalMfc_Sw.o
 .debug_ranges  0x00000448       0x30 build/default/production/NxpNfcRdLib/comps/phalMfc/src/phalMfc_Int.o
 .debug_ranges  0x00000478       0x60 build/default/production/NxpNfcRdLib/comps/phalMfdf/src/Sw/phalMfdf_Sw.o
 .debug_ranges  0x000004d8       0x30 build/default/production/NxpNfcRdLib/comps/phalMfdf/src/Sw/phalMfdf_Sw_Int.o
 .debug_ranges  0x00000508       0x20 build/default/production/NxpNfcRdLib/comps/phalMfdf/src/phalMfdf_Int.o
 .debug_ranges  0x00000528       0x48 build/default/production/NxpNfcRdLib/comps/phbalReg/src/Pic32mxSPI/phbalReg_Pic32mxSpi.o
 .debug_ranges  0x00000570       0xe0 build/default/production/NxpNfcRdLib/comps/phhalHw/src/Pn5180/phhalHw_Pn5180.o
 .debug_ranges  0x00000650      0x118 build/default/production/NxpNfcRdLib/comps/phhalHw/src/Pn5180/phhalHw_Pn5180_Instr.o
 .debug_ranges  0x00000768       0x78 build/default/production/NxpNfcRdLib/comps/phhalHw/src/Pn5180/phhalHw_Pn5180_Int.o
 .debug_ranges  0x000007e0       0x10 build/default/production/NxpNfcRdLib/comps/phhalHw/src/Pn5180/phhalHw_Pn5180_Wait.o
 .debug_ranges  0x000007f0       0x10 build/default/production/NxpNfcRdLib/comps/phhalHw/src/phhalHw.o
 .debug_ranges  0x00000800       0x90 build/default/production/NxpNfcRdLib/comps/phKeyStore/src/Sw/phKeyStore_Sw.o
 .debug_ranges  0x00000890       0x10 build/default/production/NxpNfcRdLib/comps/phKeyStore/src/phKeyStore.o
 .debug_ranges  0x000008a0       0xf8 build/default/production/NxpNfcRdLib/comps/phOsal/src/NullOs/phOsal_NullOs.o
 .debug_ranges  0x00000998       0x68 build/default/production/NxpNfcRdLib/comps/phpalI14443p3a/src/Sw/phpalI14443p3a_Sw.o
 .debug_ranges  0x00000a00       0x80 build/default/production/NxpNfcRdLib/comps/phpalI14443p4/src/Sw/phpalI14443p4_Sw.o
 .debug_ranges  0x00000a80       0x38 build/default/production/NxpNfcRdLib/comps/phpalI14443p4a/src/Sw/phpalI14443p4a_Sw.o
 .debug_ranges  0x00000ab8       0x48 build/default/production/NxpNfcRdLib/comps/phpalMifare/src/Sw/phpalMifare_Sw.o
 .debug_ranges  0x00000b00       0x30 build/default/production/NxpNfcRdLib/comps/phPlatform/src/Port/PIC32MX/phPlatform_Port_PIC32MX.o
 .debug_ranges  0x00000b30       0x98 build/default/production/NxpNfcRdLib/comps/phPlatform/src/Port/PIC32MX/phPlatform_Port_PIC32MXTimer.o
 .debug_ranges  0x00000bc8       0x80 build/default/production/NxpNfcRdLib/comps/phPlatform/src/phPlatform.o
 .debug_ranges  0x00000c48       0x58 build/default/production/NxpNfcRdLib/comps/phTools/src/phTools.o
 .debug_ranges  0x00000ca0       0x58 build/default/production/NxpNfcRdLib/comps/phTools/src/phTools_Q.o
 .debug_ranges  0x00000cf8       0x48 build/default/production/main.o
 .debug_ranges  0x00000d40       0x10 c:/program files (x86)/microchip/xc32/v2.05/bin/bin/../../lib/gcc/pic32mx/4.8.3/../../../../pic32mx/lib\libpic32.a(default-bootstrap-exception-handler.o)
 .debug_ranges  0x00000d50       0x10 c:/program files (x86)/microchip/xc32/v2.05/bin/bin/../../lib/gcc/pic32mx/4.8.3/../../../../pic32mx/lib\libpic32.a(default-on-reset.o)
 .debug_ranges  0x00000d60       0x10 c:/program files (x86)/microchip/xc32/v2.05/bin/bin/../../lib/gcc/pic32mx/4.8.3/../../../../pic32mx/lib\libpic32.a(default-on-bootstrap.o)
 .debug_ranges  0x00000d70       0x10 c:/program files (x86)/microchip/xc32/v2.05/bin/bin/../../lib/gcc/pic32mx/4.8.3/../../../../pic32mx/lib\libpic32.a(defaultinterrupt.o)

.gnu.attributes
                0x00000000       0x10
 *(.gnu.attributes)
 .gnu.attributes
                0x00000000       0x10 build/default/production/mcc_generated_files/tmr2.o
 .gnu.attributes
                0x00000010       0x10 build/default/production/mcc_generated_files/uart1.o
 .gnu.attributes
                0x00000020       0x10 build/default/production/mcc_generated_files/interrupt_manager.o
 .gnu.attributes
                0x00000030       0x10 build/default/production/mcc_generated_files/tmr1.o
 .gnu.attributes
                0x00000040       0x10 build/default/production/mcc_generated_files/mcc.o
 .gnu.attributes
                0x00000050       0x10 build/default/production/mcc_generated_files/pin_manager.o
 .gnu.attributes
                0x00000060       0x10 build/default/production/mcc_generated_files/spi1.o
 .gnu.attributes
                0x00000070       0x10 build/default/production/mcc_generated_files/adc1.o
 .gnu.attributes
                0x00000080       0x10 build/default/production/mcc_generated_files/spi2.o
 .gnu.attributes
                0x00000090       0x10 build/default/production/nxp_reader_config_files/phApp_Init.o
 .gnu.attributes
                0x000000a0       0x10 build/default/production/NxpNfcRdLib/comps/phacDiscLoop/src/Sw/phacDiscLoop_Sw.o
 .gnu.attributes
                0x000000b0       0x10 build/default/production/NxpNfcRdLib/comps/phacDiscLoop/src/Sw/phacDiscLoop_Sw_Int.o
 .gnu.attributes
                0x000000c0       0x10 build/default/production/NxpNfcRdLib/comps/phacDiscLoop/src/Sw/phacDiscLoop_Sw_Int_A.o
 .gnu.attributes
                0x000000d0       0x10 build/default/production/NxpNfcRdLib/comps/phacDiscLoop/src/Sw/phacDiscLoop_Sw_Int_B.o
 .gnu.attributes
                0x000000e0       0x10 build/default/production/NxpNfcRdLib/comps/phacDiscLoop/src/Sw/phacDiscLoop_Sw_Int_F.o
 .gnu.attributes
                0x000000f0       0x10 build/default/production/NxpNfcRdLib/comps/phacDiscLoop/src/Sw/phacDiscLoop_Sw_Int_I18000p3m3.o
 .gnu.attributes
                0x00000100       0x10 build/default/production/NxpNfcRdLib/comps/phacDiscLoop/src/Sw/phacDiscLoop_Sw_Int_V.o
 .gnu.attributes
                0x00000110       0x10 build/default/production/NxpNfcRdLib/comps/phacDiscLoop/src/phacDiscLoop.o
 .gnu.attributes
                0x00000120       0x10 build/default/production/NxpNfcRdLib/comps/phalFelica/src/Sw/phalFelica_Sw.o
 .gnu.attributes
                0x00000130       0x10 build/default/production/NxpNfcRdLib/comps/phalFelica/src/phalFelica.o
 .gnu.attributes
                0x00000140       0x10 build/default/production/NxpNfcRdLib/comps/phalI15693/src/Sw/phalI15693_Sw.o
 .gnu.attributes
                0x00000150       0x10 build/default/production/NxpNfcRdLib/comps/phalI15693/src/phalI15693.o
 .gnu.attributes
                0x00000160       0x10 build/default/production/NxpNfcRdLib/comps/phalI18000p3m3/src/Sw/phalI18000p3m3_Sw.o
 .gnu.attributes
                0x00000170       0x10 build/default/production/NxpNfcRdLib/comps/phalI18000p3m3/src/Sw/phalI18000p3m3_Sw_Int.o
 .gnu.attributes
                0x00000180       0x10 build/default/production/NxpNfcRdLib/comps/phalI18000p3m3/src/phalI18000p3m3.o
 .gnu.attributes
                0x00000190       0x10 build/default/production/NxpNfcRdLib/comps/phalMfc/src/Sw/phalMfc_Sw.o
 .gnu.attributes
                0x000001a0       0x10 build/default/production/NxpNfcRdLib/comps/phalMfc/src/phalMfc.o
 .gnu.attributes
                0x000001b0       0x10 build/default/production/NxpNfcRdLib/comps/phalMfc/src/phalMfc_Int.o
 .gnu.attributes
                0x000001c0       0x10 build/default/production/NxpNfcRdLib/comps/phalMfdf/src/Sw/phalMfdf_Sw.o
 .gnu.attributes
                0x000001d0       0x10 build/default/production/NxpNfcRdLib/comps/phalMfdf/src/Sw/phalMfdf_Sw_Int.o
 .gnu.attributes
                0x000001e0       0x10 build/default/production/NxpNfcRdLib/comps/phalMfdf/src/phalMfdf.o
 .gnu.attributes
                0x000001f0       0x10 build/default/production/NxpNfcRdLib/comps/phalMfdf/src/phalMfdf_Int.o
 .gnu.attributes
                0x00000200       0x10 build/default/production/NxpNfcRdLib/comps/phalMful/src/Sw/phalMful_Sw.o
 .gnu.attributes
                0x00000210       0x10 build/default/production/NxpNfcRdLib/comps/phalMful/src/phalMful.o
 .gnu.attributes
                0x00000220       0x10 build/default/production/NxpNfcRdLib/comps/phalMful/src/phalMful_Int.o
 .gnu.attributes
                0x00000230       0x10 build/default/production/NxpNfcRdLib/comps/phalSli/src/Sw/phalSli_Sw.o
 .gnu.attributes
                0x00000240       0x10 build/default/production/NxpNfcRdLib/comps/phalSli/src/phalSli.o
 .gnu.attributes
                0x00000250       0x10 build/default/production/NxpNfcRdLib/comps/phalT1T/src/Sw/phalT1T_Sw.o
 .gnu.attributes
                0x00000260       0x10 build/default/production/NxpNfcRdLib/comps/phalT1T/src/phalT1T.o
 .gnu.attributes
                0x00000270       0x10 build/default/production/NxpNfcRdLib/comps/phalTop/src/Sw/phalTop_Sw.o
 .gnu.attributes
                0x00000280       0x10 build/default/production/NxpNfcRdLib/comps/phalTop/src/Sw/phalTop_Sw_Int_T1T.o
 .gnu.attributes
                0x00000290       0x10 build/default/production/NxpNfcRdLib/comps/phalTop/src/Sw/phalTop_Sw_Int_T2T.o
 .gnu.attributes
                0x000002a0       0x10 build/default/production/NxpNfcRdLib/comps/phalTop/src/Sw/phalTop_Sw_Int_T3T.o
 .gnu.attributes
                0x000002b0       0x10 build/default/production/NxpNfcRdLib/comps/phalTop/src/Sw/phalTop_Sw_Int_T4T.o
 .gnu.attributes
                0x000002c0       0x10 build/default/production/NxpNfcRdLib/comps/phalTop/src/Sw/phalTop_Sw_Int_T5T.o
 .gnu.attributes
                0x000002d0       0x10 build/default/production/NxpNfcRdLib/comps/phalTop/src/phalTop.o
 .gnu.attributes
                0x000002e0       0x10 build/default/production/NxpNfcRdLib/comps/phbalReg/src/KinetisI2C/phbalReg_KinetisI2C.o
 .gnu.attributes
                0x000002f0       0x10 build/default/production/NxpNfcRdLib/comps/phbalReg/src/KinetisSPI/phbalReg_KinetisSpi.o
 .gnu.attributes
                0x00000300       0x10 build/default/production/NxpNfcRdLib/comps/phbalReg/src/LinuxKernelSpi/phbalReg_LinuxKernelSpi.o
 .gnu.attributes
                0x00000310       0x10 build/default/production/NxpNfcRdLib/comps/phbalReg/src/LinuxUserI2C/phbalReg_LinuxUserI2C.o
 .gnu.attributes
                0x00000320       0x10 build/default/production/NxpNfcRdLib/comps/phbalReg/src/LinuxUserSpi/phbalReg_LinuxUserSpi.o
 .gnu.attributes
                0x00000330       0x10 build/default/production/NxpNfcRdLib/comps/phbalReg/src/LpcOpenI2C/phbalReg_LpcOpenI2c.o
 .gnu.attributes
                0x00000340       0x10 build/default/production/NxpNfcRdLib/comps/phbalReg/src/LpcOpenSPI/phbalReg_LpcOpenSpi.o
 .gnu.attributes
                0x00000350       0x10 build/default/production/NxpNfcRdLib/comps/phbalReg/src/Pic32mxSPI/phbalReg_Pic32mxSpi.o
 .gnu.attributes
                0x00000360       0x10 build/default/production/NxpNfcRdLib/comps/phbalReg/src/phbalReg.o
 .gnu.attributes
                0x00000370       0x10 build/default/production/NxpNfcRdLib/comps/phceT4T/src/Sw/phceT4T_Sw.o
 .gnu.attributes
                0x00000380       0x10 build/default/production/NxpNfcRdLib/comps/phceT4T/src/Sw/phceT4T_Sw_Int.o
 .gnu.attributes
                0x00000390       0x10 build/default/production/NxpNfcRdLib/comps/phceT4T/src/phceT4T.o
 .gnu.attributes
                0x000003a0       0x10 build/default/production/NxpNfcRdLib/comps/phCidManager/src/Sw/phCidManager_Sw.o
 .gnu.attributes
                0x000003b0       0x10 build/default/production/NxpNfcRdLib/comps/phCidManager/src/phCidManager.o
 .gnu.attributes
                0x000003c0       0x10 build/default/production/NxpNfcRdLib/comps/phCryptoRng/src/Sw/phCryptoRng_Sw.o
 .gnu.attributes
                0x000003d0       0x10 build/default/production/NxpNfcRdLib/comps/phCryptoRng/src/phCryptoRng.o
 .gnu.attributes
                0x000003e0       0x10 build/default/production/NxpNfcRdLib/comps/phCryptoSym/src/Sw/phCryptoSym_Sw.o
 .gnu.attributes
                0x000003f0       0x10 build/default/production/NxpNfcRdLib/comps/phCryptoSym/src/Sw/phCryptoSym_Sw_Aes.o
 .gnu.attributes
                0x00000400       0x10 build/default/production/NxpNfcRdLib/comps/phCryptoSym/src/Sw/phCryptoSym_Sw_Des.o
 .gnu.attributes
                0x00000410       0x10 build/default/production/NxpNfcRdLib/comps/phCryptoSym/src/Sw/phCryptoSym_Sw_Int.o
 .gnu.attributes
                0x00000420       0x10 build/default/production/NxpNfcRdLib/comps/phCryptoSym/src/phCryptoSym.o
 .gnu.attributes
                0x00000430       0x10 build/default/production/NxpNfcRdLib/comps/phhalHw/src/Pn5180/phhalHw_Pn5180.o
 .gnu.attributes
                0x00000440       0x10 build/default/production/NxpNfcRdLib/comps/phhalHw/src/Pn5180/phhalHw_Pn5180_Instr.o
 .gnu.attributes
                0x00000450       0x10 build/default/production/NxpNfcRdLib/comps/phhalHw/src/Pn5180/phhalHw_Pn5180_Int.o
 .gnu.attributes
                0x00000460       0x10 build/default/production/NxpNfcRdLib/comps/phhalHw/src/Pn5180/phhalHw_Pn5180_Wait.o
 .gnu.attributes
                0x00000470       0x10 build/default/production/NxpNfcRdLib/comps/phhalHw/src/PN7462AU/phhalHw_PN7462AU.o
 .gnu.attributes
                0x00000480       0x10 build/default/production/NxpNfcRdLib/comps/phhalHw/src/PN7462AU/phhalHw_PN7462AU_Int.o
 .gnu.attributes
                0x00000490       0x10 build/default/production/NxpNfcRdLib/comps/phhalHw/src/Rc523/phhalHw_Rc523.o
 .gnu.attributes
                0x000004a0       0x10 build/default/production/NxpNfcRdLib/comps/phhalHw/src/Rc523/phhalHw_Rc523_Cmd.o
 .gnu.attributes
                0x000004b0       0x10 build/default/production/NxpNfcRdLib/comps/phhalHw/src/Rc523/phhalHw_Rc523_Int.o
 .gnu.attributes
                0x000004c0       0x10 build/default/production/NxpNfcRdLib/comps/phhalHw/src/Rc523/phhalHw_Rc523_Wait.o
 .gnu.attributes
                0x000004d0       0x10 build/default/production/NxpNfcRdLib/comps/phhalHw/src/Rc663/phhalHw_Rc663.o
 .gnu.attributes
                0x000004e0       0x10 build/default/production/NxpNfcRdLib/comps/phhalHw/src/Rc663/phhalHw_Rc663_Cmd.o
 .gnu.attributes
                0x000004f0       0x10 build/default/production/NxpNfcRdLib/comps/phhalHw/src/Rc663/phhalHw_Rc663_Int.o
 .gnu.attributes
                0x00000500       0x10 build/default/production/NxpNfcRdLib/comps/phhalHw/src/Rc663/phhalHw_Rc663_Wait.o
 .gnu.attributes
                0x00000510       0x10 build/default/production/NxpNfcRdLib/comps/phhalHw/src/phhalHw.o
 .gnu.attributes
                0x00000520       0x10 build/default/production/NxpNfcRdLib/comps/phKeyStore/src/Rc663/phKeyStore_Rc663.o
 .gnu.attributes
                0x00000530       0x10 build/default/production/NxpNfcRdLib/comps/phKeyStore/src/Sw/phKeyStore_Sw.o
 .gnu.attributes
                0x00000540       0x10 build/default/production/NxpNfcRdLib/comps/phKeyStore/src/phKeyStore.o
 .gnu.attributes
                0x00000550       0x10 build/default/production/NxpNfcRdLib/comps/phlnLlcp/src/Sw/phlnLlcp_Sw.o
 .gnu.attributes
                0x00000560       0x10 build/default/production/NxpNfcRdLib/comps/phlnLlcp/src/Sw/phlnLlcp_Sw_Int.o
 .gnu.attributes
                0x00000570       0x10 build/default/production/NxpNfcRdLib/comps/phlnLlcp/src/Sw/phlnLlcp_Sw_Mac.o
 .gnu.attributes
                0x00000580       0x10 build/default/production/NxpNfcRdLib/comps/phlnLlcp/src/Sw/phlnLlcp_Sw_Transport.o
 .gnu.attributes
                0x00000590       0x10 build/default/production/NxpNfcRdLib/comps/phlnLlcp/src/Sw/phlnLlcp_Sw_Transport_Connection.o
 .gnu.attributes
                0x000005a0       0x10 build/default/production/NxpNfcRdLib/comps/phlnLlcp/src/Sw/phlnLlcp_Sw_Transport_Connectionless.o
 .gnu.attributes
                0x000005b0       0x10 build/default/production/NxpNfcRdLib/comps/phlnLlcp/src/Sw/phlnLlcp_Timers.o
 .gnu.attributes
                0x000005c0       0x10 build/default/production/NxpNfcRdLib/comps/phlnLlcp/src/phlnLlcp.o
 .gnu.attributes
                0x000005d0       0x10 build/default/production/NxpNfcRdLib/comps/phLog/src/phLog.o
 .gnu.attributes
                0x000005e0       0x10 build/default/production/NxpNfcRdLib/comps/phNfcLib/src/phNfcLib.o
 .gnu.attributes
                0x000005f0       0x10 build/default/production/NxpNfcRdLib/comps/phNfcLib/src/phNfcLib_15693.o
 .gnu.attributes
                0x00000600       0x10 build/default/production/NxpNfcRdLib/comps/phNfcLib/src/phNfcLib_18000p3m3.o
 .gnu.attributes
                0x00000610       0x10 build/default/production/NxpNfcRdLib/comps/phNfcLib/src/phNfcLib_MFC.o
 .gnu.attributes
                0x00000620       0x10 build/default/production/NxpNfcRdLib/comps/phNfcLib/src/phNfcLib_MFDF.o
 .gnu.attributes
                0x00000630       0x10 build/default/production/NxpNfcRdLib/comps/phNfcLib/src/phNfcLib_MFUL.o
 .gnu.attributes
                0x00000640       0x10 build/default/production/NxpNfcRdLib/comps/phNfcLib/src/phNfcLib_Utility.o
 .gnu.attributes
                0x00000650       0x10 build/default/production/NxpNfcRdLib/comps/phnpSnep/src/Sw/phnpSnep_Sw.o
 .gnu.attributes
                0x00000660       0x10 build/default/production/NxpNfcRdLib/comps/phnpSnep/src/phnpSnep.o
 .gnu.attributes
                0x00000670       0x10 build/default/production/NxpNfcRdLib/comps/phOsal/src/Freertos/phOsal_Freertos.o
 .gnu.attributes
                0x00000680       0x10 build/default/production/NxpNfcRdLib/comps/phOsal/src/Linux/phOsal_Linux.o
 .gnu.attributes
                0x00000690       0x10 build/default/production/NxpNfcRdLib/comps/phOsal/src/NullOs/phOsal_NullOs.o
 .gnu.attributes
                0x000006a0       0x10 build/default/production/NxpNfcRdLib/comps/phpalEpcUid/src/Sw/phpalEpcUid_Sw.o
 .gnu.attributes
                0x000006b0       0x10 build/default/production/NxpNfcRdLib/comps/phpalEpcUid/src/phpalEpcUid.o
 .gnu.attributes
                0x000006c0       0x10 build/default/production/NxpNfcRdLib/comps/phpalFelica/src/Sw/phpalFelica_Sw.o
 .gnu.attributes
                0x000006d0       0x10 build/default/production/NxpNfcRdLib/comps/phpalFelica/src/phpalFelica.o
 .gnu.attributes
                0x000006e0       0x10 build/default/production/NxpNfcRdLib/comps/phpalI14443p3a/src/Sw/phpalI14443p3a_Sw.o
 .gnu.attributes
                0x000006f0       0x10 build/default/production/NxpNfcRdLib/comps/phpalI14443p3a/src/phpalI14443p3a.o
 .gnu.attributes
                0x00000700       0x10 build/default/production/NxpNfcRdLib/comps/phpalI14443p3b/src/Sw/phpalI14443p3b_Sw.o
 .gnu.attributes
                0x00000710       0x10 build/default/production/NxpNfcRdLib/comps/phpalI14443p3b/src/phpalI14443p3b.o
 .gnu.attributes
                0x00000720       0x10 build/default/production/NxpNfcRdLib/comps/phpalI14443p4/src/Sw/phpalI14443p4_Sw.o
 .gnu.attributes
                0x00000730       0x10 build/default/production/NxpNfcRdLib/comps/phpalI14443p4/src/phpalI14443p4.o
 .gnu.attributes
                0x00000740       0x10 build/default/production/NxpNfcRdLib/comps/phpalI14443p4a/src/Sw/phpalI14443p4a_Sw.o
 .gnu.attributes
                0x00000750       0x10 build/default/production/NxpNfcRdLib/comps/phpalI14443p4a/src/phpalI14443p4a.o
 .gnu.attributes
                0x00000760       0x10 build/default/production/NxpNfcRdLib/comps/phpalI14443p4mC/src/Sw/phpalI14443p4mC_Sw.o
 .gnu.attributes
                0x00000770       0x10 build/default/production/NxpNfcRdLib/comps/phpalI14443p4mC/src/Sw/phpalI14443p4mC_Sw_Int.o
 .gnu.attributes
                0x00000780       0x10 build/default/production/NxpNfcRdLib/comps/phpalI14443p4mC/src/phpalI14443p4mC.o
 .gnu.attributes
                0x00000790       0x10 build/default/production/NxpNfcRdLib/comps/phpalI18000p3m3/src/Sw/phpalI18000p3m3_Sw.o
 .gnu.attributes
                0x000007a0       0x10 build/default/production/NxpNfcRdLib/comps/phpalI18000p3m3/src/phpalI18000p3m3.o
 .gnu.attributes
                0x000007b0       0x10 build/default/production/NxpNfcRdLib/comps/phpalI18092mPI/src/Sw/phpalI18092mPI_Sw.o
 .gnu.attributes
                0x000007c0       0x10 build/default/production/NxpNfcRdLib/comps/phpalI18092mPI/src/Sw/phpalI18092mPI_Sw_Int.o
 .gnu.attributes
                0x000007d0       0x10 build/default/production/NxpNfcRdLib/comps/phpalI18092mPI/src/phpalI18092mPI.o
 .gnu.attributes
                0x000007e0       0x10 build/default/production/NxpNfcRdLib/comps/phpalI18092mT/src/Sw/phpalI18092mT_Sw.o
 .gnu.attributes
                0x000007f0       0x10 build/default/production/NxpNfcRdLib/comps/phpalI18092mT/src/Sw/phpalI18092mT_Sw_Int.o
 .gnu.attributes
                0x00000800       0x10 build/default/production/NxpNfcRdLib/comps/phpalI18092mT/src/phpalI18092mT.o
 .gnu.attributes
                0x00000810       0x10 build/default/production/NxpNfcRdLib/comps/phpalMifare/src/Sw/phpalMifare_Sw.o
 .gnu.attributes
                0x00000820       0x10 build/default/production/NxpNfcRdLib/comps/phpalMifare/src/phpalMifare.o
 .gnu.attributes
                0x00000830       0x10 build/default/production/NxpNfcRdLib/comps/phpalSli15693/src/Sw/phpalSli15693_Sw.o
 .gnu.attributes
                0x00000840       0x10 build/default/production/NxpNfcRdLib/comps/phpalSli15693/src/phpalSli15693.o
 .gnu.attributes
                0x00000850       0x10 build/default/production/NxpNfcRdLib/comps/phPlatform/src/Port/K81/phPlatform_Port_K81.o
 .gnu.attributes
                0x00000860       0x10 build/default/production/NxpNfcRdLib/comps/phPlatform/src/Port/K81/phPlatform_Port_KinetisTimer.o
 .gnu.attributes
                0x00000870       0x10 build/default/production/NxpNfcRdLib/comps/phPlatform/src/Port/K82/phPlatform_Port_K82.o
 .gnu.attributes
                0x00000880       0x10 build/default/production/NxpNfcRdLib/comps/phPlatform/src/Port/K82/phPlatform_Port_K82Timer.o
 .gnu.attributes
                0x00000890       0x10 build/default/production/NxpNfcRdLib/comps/phPlatform/src/Port/LPC11u68/cr_startup_lpc11u6x.o
 .gnu.attributes
                0x000008a0       0x10 build/default/production/NxpNfcRdLib/comps/phPlatform/src/Port/LPC11u68/phPlatform_Port_LPC11u68.o
 .gnu.attributes
                0x000008b0       0x10 build/default/production/NxpNfcRdLib/comps/phPlatform/src/Port/LPC1769/cr_startup_lpc175x_6x.o
 .gnu.attributes
                0x000008c0       0x10 build/default/production/NxpNfcRdLib/comps/phPlatform/src/Port/LPC1769/keil_iar_sysinit.o
 .gnu.attributes
                0x000008d0       0x10 build/default/production/NxpNfcRdLib/comps/phPlatform/src/Port/LPC1769/phPlatform_Port_LPC1769.o
 .gnu.attributes
                0x000008e0       0x10 build/default/production/NxpNfcRdLib/comps/phPlatform/src/Port/LPCTimer/phPlatform_Port_LPCTimer.o
 .gnu.attributes
                0x000008f0       0x10 build/default/production/NxpNfcRdLib/comps/phPlatform/src/Port/PIC32MX/phPlatform_Port_PIC32MX.o
 .gnu.attributes
                0x00000900       0x10 build/default/production/NxpNfcRdLib/comps/phPlatform/src/Port/PIC32MX/phPlatform_Port_PIC32MXTimer.o
 .gnu.attributes
                0x00000910       0x10 build/default/production/NxpNfcRdLib/comps/phPlatform/src/Port/PN7462AU/phPlatform_Port_PN7462AU.o
 .gnu.attributes
                0x00000920       0x10 build/default/production/NxpNfcRdLib/comps/phPlatform/src/Port/RaspberryPi/phPlatform_Port_Pi.o
 .gnu.attributes
                0x00000930       0x10 build/default/production/NxpNfcRdLib/comps/phPlatform/src/Port/RaspberryPi/phPlatform_Port_PiGpio.o
 .gnu.attributes
                0x00000940       0x10 build/default/production/NxpNfcRdLib/comps/phPlatform/src/phPlatform.o
 .gnu.attributes
                0x00000950       0x10 build/default/production/NxpNfcRdLib/comps/phTools/src/phTools.o
 .gnu.attributes
                0x00000960       0x10 build/default/production/NxpNfcRdLib/comps/phTools/src/phTools_Q.o
 .gnu.attributes
                0x00000970       0x10 build/default/production/main.o
 .gnu.attributes
                0x00000980       0x10 c:/program files (x86)/microchip/xc32/v2.05/bin/bin/../../lib/gcc/pic32mx/4.8.3\libgcc.a(floatunsisf.o)
 .gnu.attributes
                0x00000990       0x10 c:/program files (x86)/microchip/xc32/v2.05/bin/bin/../../lib/gcc/pic32mx/4.8.3/../../../../pic32mx/lib\libpic32.a(default-bootstrap-exception-handler.o)
 .gnu.attributes
                0x000009a0       0x10 c:/program files (x86)/microchip/xc32/v2.05/bin/bin/../../lib/gcc/pic32mx/4.8.3/../../../../pic32mx/lib\libpic32.a(default-on-reset.o)
 .gnu.attributes
                0x000009b0       0x10 c:/program files (x86)/microchip/xc32/v2.05/bin/bin/../../lib/gcc/pic32mx/4.8.3/../../../../pic32mx/lib\libpic32.a(default-on-bootstrap.o)
 .gnu.attributes
                0x000009c0       0x10 c:/program files (x86)/microchip/xc32/v2.05/bin/bin/../../lib/gcc/pic32mx/4.8.3/../../../../pic32mx/lib\libpic32.a(defaultinterrupt.o)
LOAD c:/program files (x86)/microchip/xc32/v2.05/bin/bin/../../lib/gcc/pic32mx/4.8.3\libgcc.a
START GROUP
LOAD c:/program files (x86)/microchip/xc32/v2.05/bin/bin/../../lib/gcc/pic32mx/4.8.3/../../../../pic32mx/lib\libpic32.a
LOAD c:/program files (x86)/microchip/xc32/v2.05/bin/bin/../../lib/gcc/pic32mx/4.8.3/../../../../pic32mx/lib\libdebug.a
LOAD c:/program files (x86)/microchip/xc32/v2.05/bin/bin/../../lib/gcc/pic32mx/4.8.3/../../../../pic32mx/lib\libpic32.a
LOAD c:/program files (x86)/microchip/xc32/v2.05/bin/bin/../../lib/gcc/pic32mx/4.8.3/../../../../pic32mx/lib\libc.a
LOAD c:/program files (x86)/microchip/xc32/v2.05/bin/bin/../../lib/gcc/pic32mx/4.8.3/../../../../pic32mx/lib\libc.a
LOAD c:/program files (x86)/microchip/xc32/v2.05/bin/bin/../../lib/gcc/pic32mx/4.8.3/../../../../pic32mx/lib\libm.a
LOAD c:/program files (x86)/microchip/xc32/v2.05/bin/bin/../../lib/gcc/pic32mx/4.8.3/../../../../pic32mx/lib\libe.a
LOAD c:/program files (x86)/microchip/xc32/v2.05/bin/bin/../../lib/gcc/pic32mx/4.8.3/../../../../pic32mx/lib\libdsp.a
LOAD c:/program files (x86)/microchip/xc32/v2.05/bin/bin/../../lib/gcc/pic32mx/4.8.3\libgcc.a
LOAD c:/program files (x86)/microchip/xc32/v2.05/bin/bin/../../lib/gcc/pic32mx/4.8.3/../../../../pic32mx/lib\libpic32.a
END GROUP
LOAD c:/program files (x86)/microchip/xc32/v2.05/bin/bin/../../lib/gcc/pic32mx/4.8.3\libgcc.a
OUTPUT(dist/default/production/NfcDemo1.X.production.elf elf32-tradlittlemips)
LOAD stack
LOAD data_init

.reginfo        0x00000000       0x18
 .reginfo       0x00000000       0x18 c:/program files (x86)/microchip/xc32/v2.05/bin/bin/../../lib/gcc/pic32mx/4.8.3/../../../../pic32mx/lib/./proc/32MX150F128D/crt0_mips32r2.o

.stack          0xa0000668      0x400
 .stack         0xa0000668      0x400 stack

.data.cause.cause
                0xa0000584       0x4c
 .data.cause.cause
                0xa0000584       0x4c build/default/production/mcc_generated_files/mcc.o

.bss.cardInfo.cardInfo
                0xa00005d0       0x2c
 .bss.cardInfo.cardInfo
                0xa00005d0       0x2c build/default/production/main.o

.bss.uart1_obj.uart1_obj
                0xa00005fc       0x14
 .bss.uart1_obj.uart1_obj
                0xa00005fc       0x14 build/default/production/mcc_generated_files/uart1.o

.bss.gdwEvents.gdwEvents
                0xa0000610       0x14
 .bss.gdwEvents.gdwEvents
                0xa0000610       0x14 build/default/production/NxpNfcRdLib/comps/phOsal/src/NullOs/phOsal_NullOs.o

.bss.bDataBuffer.bDataBuffer
                0xa0000624       0x14
 .bss.bDataBuffer.bDataBuffer
                0xa0000624       0x14 build/default/production/main.o
                0xa0000624                bDataBuffer

._debug_exception
                0xbfc00480       0x2c
 ._debug_exception
                0xbfc00480       0x2c c:/program files (x86)/microchip/xc32/v2.05/bin/bin/../../lib/gcc/pic32mx/4.8.3/../../../../pic32mx/lib\debug-exception-return.o
                0xbfc00480                __DbgExecReturn

.text.phhalHw_Pn5180_SetConfig
                0x9d000000     0x1ff8
 .text.phhalHw_Pn5180_SetConfig
                0x9d000000     0x1ff8 build/default/production/NxpNfcRdLib/comps/phhalHw/src/Pn5180/phhalHw_Pn5180.o
                0x9d000000                phhalHw_Pn5180_SetConfig

.text.phpalI14443p4_Sw_IsoHandling
                0x9d001ff8      0xd48
 .text.phpalI14443p4_Sw_IsoHandling
                0x9d001ff8      0xd48 build/default/production/NxpNfcRdLib/comps/phpalI14443p4/src/Sw/phpalI14443p4_Sw.o
                0x9d001ff8                phpalI14443p4_Sw_IsoHandling

.text.phhalHw_Pn5180_SetCardMode
                0x9d002d40      0xd34
 .text.phhalHw_Pn5180_SetCardMode
                0x9d002d40      0xd34 build/default/production/NxpNfcRdLib/comps/phhalHw/src/Pn5180/phhalHw_Pn5180_Int.o
                0x9d002d40                phhalHw_Pn5180_SetCardMode

.text.phpalI14443p4_Sw_Exchange
                0x9d003a74      0xd20
 .text.phpalI14443p4_Sw_Exchange
                0x9d003a74      0xd20 build/default/production/NxpNfcRdLib/comps/phpalI14443p4/src/Sw/phpalI14443p4_Sw.o
                0x9d003a74                phpalI14443p4_Sw_Exchange

.text.phpalI14443p4a_Sw_Rats
                0x9d004794      0x994
 .text.phpalI14443p4a_Sw_Rats
                0x9d004794      0x994 build/default/production/NxpNfcRdLib/comps/phpalI14443p4a/src/Sw/phpalI14443p4a_Sw.o
                0x9d004794                phpalI14443p4a_Sw_Rats

.text.phacDiscLoop_Sw_Int_CollisionResolutionA
                0x9d005128      0x8d4
 .text.phacDiscLoop_Sw_Int_CollisionResolutionA
                0x9d005128      0x8d4 build/default/production/NxpNfcRdLib/comps/phacDiscLoop/src/Sw/phacDiscLoop_Sw_Int_A.o
                0x9d005128                phacDiscLoop_Sw_Int_CollisionResolutionA

.text.phhalHw_Pn5180_GetConfig
                0x9d0059fc      0x8bc
 .text.phhalHw_Pn5180_GetConfig
                0x9d0059fc      0x8bc build/default/production/NxpNfcRdLib/comps/phhalHw/src/Pn5180/phhalHw_Pn5180.o
                0x9d0059fc                phhalHw_Pn5180_GetConfig

.text.phhalHw_Pn5180_Receive_Int
                0x9d0062b8      0x8a0
 .text.phhalHw_Pn5180_Receive_Int
                0x9d0062b8      0x8a0 build/default/production/NxpNfcRdLib/comps/phhalHw/src/Pn5180/phhalHw_Pn5180_Int.o
                0x9d0062b8                phhalHw_Pn5180_Receive_Int

.text.phhalHw_Pn5180_Exchange
                0x9d006b58      0x89c
 .text.phhalHw_Pn5180_Exchange
                0x9d006b58      0x89c build/default/production/NxpNfcRdLib/comps/phhalHw/src/Pn5180/phhalHw_Pn5180.o
                0x9d006b58                phhalHw_Pn5180_Exchange

.text.phpalI14443p3a_Sw_Anticollision
                0x9d0073f4      0x89c
 .text.phpalI14443p3a_Sw_Anticollision
                0x9d0073f4      0x89c build/default/production/NxpNfcRdLib/comps/phpalI14443p3a/src/Sw/phpalI14443p3a_Sw.o
                0x9d0073f4                phpalI14443p3a_Sw_Anticollision

.text.phacDiscLoop_Sw_SetConfig
                0x9d007c90      0x7a0
 .text.phacDiscLoop_Sw_SetConfig
                0x9d007c90      0x7a0 build/default/production/NxpNfcRdLib/comps/phacDiscLoop/src/Sw/phacDiscLoop_Sw.o
                0x9d007c90                phacDiscLoop_Sw_SetConfig

.text.phhalHw_Pn5180_SetConfig_Int
                0x9d008430      0x644
 .text.phhalHw_Pn5180_SetConfig_Int
                0x9d008430      0x644 build/default/production/NxpNfcRdLib/comps/phhalHw/src/Pn5180/phhalHw_Pn5180_Int.o
                0x9d008430                phhalHw_Pn5180_SetConfig_Int

.text.phhalHw_Pn5180_ApplyProtocolSettings
                0x9d008a74      0x630
 .text.phhalHw_Pn5180_ApplyProtocolSettings
                0x9d008a74      0x630 build/default/production/NxpNfcRdLib/comps/phhalHw/src/Pn5180/phhalHw_Pn5180.o
                0x9d008a74                phhalHw_Pn5180_ApplyProtocolSettings

.text.phpalI14443p3a_Sw_ActivateCard
                0x9d0090a4      0x61c
 .text.phpalI14443p3a_Sw_ActivateCard
                0x9d0090a4      0x61c build/default/production/NxpNfcRdLib/comps/phpalI14443p3a/src/Sw/phpalI14443p3a_Sw.o
                0x9d0090a4                phpalI14443p3a_Sw_ActivateCard

.text.MIFARE_CardDetection
                0x9d0096c0      0x554
 .text.MIFARE_CardDetection
                0x9d0096c0      0x554 build/default/production/main.o
                0x9d0096c0                MIFARE_CardDetection

.text.phacDiscLoop_Sw_GetConfig
                0x9d009c14      0x504
 .text.phacDiscLoop_Sw_GetConfig
                0x9d009c14      0x504 build/default/production/NxpNfcRdLib/comps/phacDiscLoop/src/Sw/phacDiscLoop_Sw.o
                0x9d009c14                phacDiscLoop_Sw_GetConfig

.text.phacDiscLoop_Sw_Int_ActivateA
                0x9d00a118      0x4c0
 .text.phacDiscLoop_Sw_Int_ActivateA
                0x9d00a118      0x4c0 build/default/production/NxpNfcRdLib/comps/phacDiscLoop/src/Sw/phacDiscLoop_Sw_Int_A.o
                0x9d00a118                phacDiscLoop_Sw_Int_ActivateA

.text.phTools_DecodeParity
                0x9d00a5d8      0x4a0
 .text.phTools_DecodeParity
                0x9d00a5d8      0x4a0 build/default/production/NxpNfcRdLib/comps/phTools/src/phTools.o
                0x9d00a5d8                phTools_DecodeParity

.text.phalMfdf_Int_ComputeErrorResponse
                0x9d00aa78      0x410
 .text.phalMfdf_Int_ComputeErrorResponse
                0x9d00aa78      0x410 build/default/production/NxpNfcRdLib/comps/phalMfdf/src/phalMfdf_Int.o
                0x9d00aa78                phalMfdf_Int_ComputeErrorResponse

.text.phpalMifare_Sw_ExchangeL3
                0x9d00ae88      0x400
 .text.phpalMifare_Sw_ExchangeL3
                0x9d00ae88      0x400 build/default/production/NxpNfcRdLib/comps/phpalMifare/src/Sw/phpalMifare_Sw.o
                0x9d00ae88                phpalMifare_Sw_ExchangeL3

.text.phhalHw_Pn5180_Int_Wait
                0x9d00b288      0x3d0
 .text.phhalHw_Pn5180_Int_Wait
                0x9d00b288      0x3d0 build/default/production/NxpNfcRdLib/comps/phhalHw/src/Pn5180/phhalHw_Pn5180_Int.o
                0x9d00b288                phhalHw_Pn5180_Int_Wait

.text.phpalI14443p3a_Sw_RequestAEx
                0x9d00b658      0x3c8
 .text.phpalI14443p3a_Sw_RequestAEx
                0x9d00b658      0x3c8 build/default/production/NxpNfcRdLib/comps/phpalI14443p3a/src/Sw/phpalI14443p3a_Sw.o
                0x9d00b658                phpalI14443p3a_Sw_RequestAEx

.text.phhalHw_Pn5180_Lpcd
                0x9d00ba20      0x3c0
 .text.phhalHw_Pn5180_Lpcd
                0x9d00ba20      0x3c0 build/default/production/NxpNfcRdLib/comps/phhalHw/src/Pn5180/phhalHw_Pn5180.o
                0x9d00ba20                phhalHw_Pn5180_Lpcd

.text.phhalHw_Pn5180_TimerStart
                0x9d00bde0      0x35c
 .text.phhalHw_Pn5180_TimerStart
                0x9d00bde0      0x35c build/default/production/NxpNfcRdLib/comps/phhalHw/src/Pn5180/phhalHw_Pn5180_Int.o
                0x9d00bde0                phhalHw_Pn5180_TimerStart

.text.phacDiscLoop_Sw_Run
                0x9d00c13c      0x34c
 .text.phacDiscLoop_Sw_Run
                0x9d00c13c      0x34c build/default/production/NxpNfcRdLib/comps/phacDiscLoop/src/Sw/phacDiscLoop_Sw.o
                0x9d00c13c                phacDiscLoop_Sw_Run

.text.phacDiscLoop_Sw_Int_PollMode
                0x9d00c488      0x324
 .text.phacDiscLoop_Sw_Int_PollMode
                0x9d00c488      0x324 build/default/production/NxpNfcRdLib/comps/phacDiscLoop/src/Sw/phacDiscLoop_Sw_Int.o
                0x9d00c488                phacDiscLoop_Sw_Int_PollMode

.text._UART_1   0x9d00c7ac      0x320
 .text._UART_1  0x9d00c7ac      0x320 build/default/production/mcc_generated_files/uart1.o
                0x9d00c7ac                _UART_1

.text.phhalHw_Pn5180_Init
                0x9d00cacc      0x310
 .text.phhalHw_Pn5180_Init
                0x9d00cacc      0x310 build/default/production/NxpNfcRdLib/comps/phhalHw/src/Pn5180/phhalHw_Pn5180.o
                0x9d00cacc                phhalHw_Pn5180_Init

.text.phpalI14443p4a_Sw_Pps
                0x9d00cddc      0x2f8
 .text.phpalI14443p4a_Sw_Pps
                0x9d00cddc      0x2f8 build/default/production/NxpNfcRdLib/comps/phpalI14443p4a/src/Sw/phpalI14443p4a_Sw.o
                0x9d00cddc                phpalI14443p4a_Sw_Pps

.text.phhalHw_Pn5180_Int_GetDigiDelay
                0x9d00d0d4      0x2e4
 .text.phhalHw_Pn5180_Int_GetDigiDelay
                0x9d00d0d4      0x2e4 build/default/production/NxpNfcRdLib/comps/phhalHw/src/Pn5180/phhalHw_Pn5180_Int.o
                0x9d00d0d4                phhalHw_Pn5180_Int_GetDigiDelay

.text.phacDiscLoop_Sw_Int_TechDetectActivity
                0x9d00d3b8      0x2cc
 .text.phacDiscLoop_Sw_Int_TechDetectActivity
                0x9d00d3b8      0x2cc build/default/production/NxpNfcRdLib/comps/phacDiscLoop/src/Sw/phacDiscLoop_Sw_Int.o
                0x9d00d3b8                phacDiscLoop_Sw_Int_TechDetectActivity

.text.phalMfdf_ExchangeCmd
                0x9d00d684      0x2c8
 .text.phalMfdf_ExchangeCmd
                0x9d00d684      0x2c8 build/default/production/NxpNfcRdLib/comps/phalMfdf/src/phalMfdf_Int.o
                0x9d00d684                phalMfdf_ExchangeCmd

.text.phhalHw_Pn5180_Instr_MifareAuthenticate
                0x9d00d94c      0x2c8
 .text.phhalHw_Pn5180_Instr_MifareAuthenticate
                0x9d00d94c      0x2c8 build/default/production/NxpNfcRdLib/comps/phhalHw/src/Pn5180/phhalHw_Pn5180_Instr.o
                0x9d00d94c                phhalHw_Pn5180_Instr_MifareAuthenticate

.text.phhalHw_Pn5180_WaitIrq
                0x9d00dc14      0x2b8
 .text.phhalHw_Pn5180_WaitIrq
                0x9d00dc14      0x2b8 build/default/production/NxpNfcRdLib/comps/phhalHw/src/Pn5180/phhalHw_Pn5180_Wait.o
                0x9d00dc14                phhalHw_Pn5180_WaitIrq

.text.phhalHw_Pn5180_GetRxBuffer
                0x9d00decc      0x2a4
 .text.phhalHw_Pn5180_GetRxBuffer
                0x9d00decc      0x2a4 build/default/production/NxpNfcRdLib/comps/phhalHw/src/Pn5180/phhalHw_Pn5180_Int.o
                0x9d00decc                phhalHw_Pn5180_GetRxBuffer

.text.phpalI14443p4_Sw_Deselect
                0x9d00e170      0x2a0
 .text.phpalI14443p4_Sw_Deselect
                0x9d00e170      0x2a0 build/default/production/NxpNfcRdLib/comps/phpalI14443p4/src/Sw/phpalI14443p4_Sw.o
                0x9d00e170                phpalI14443p4_Sw_Deselect

.text.phTools_CalculateCrc16
                0x9d00e410      0x29c
 .text.phTools_CalculateCrc16
                0x9d00e410      0x29c build/default/production/NxpNfcRdLib/comps/phTools/src/phTools.o
                0x9d00e410                phTools_CalculateCrc16

.text.phhalHw_Pn5180_Instr_WriteRegisterMultiple
                0x9d00e6ac      0x298
 .text.phhalHw_Pn5180_Instr_WriteRegisterMultiple
                0x9d00e6ac      0x298 build/default/production/NxpNfcRdLib/comps/phhalHw/src/Pn5180/phhalHw_Pn5180_Instr.o
                0x9d00e6ac                phhalHw_Pn5180_Instr_WriteRegisterMultiple

.text.fpsubadd  0x9d00e944      0x278
 .text.fpsubadd
                0x9d00e944      0x278 c:/program files (x86)/microchip/xc32/v2.05/bin/bin/../../lib/gcc/pic32mx/4.8.3/../../../../pic32mx/lib\libm.a(fp32subadd.o)
                0x9d00e944                fpsub
                0x9d00e944                __subsf3
                0x9d00e94c                __addsf3
                0x9d00e94c                fpadd

.text.phpalI14443p4_Sw_SetConfig
                0x9d00ebbc      0x240
 .text.phpalI14443p4_Sw_SetConfig
                0x9d00ebbc      0x240 build/default/production/NxpNfcRdLib/comps/phpalI14443p4/src/Sw/phpalI14443p4_Sw.o
                0x9d00ebbc                phpalI14443p4_Sw_SetConfig

.text.fp32div   0x9d00edfc      0x230
 .text.fp32div  0x9d00edfc      0x230 c:/program files (x86)/microchip/xc32/v2.05/bin/bin/../../lib/gcc/pic32mx/4.8.3/../../../../pic32mx/lib\libm.a(fp32div.o)
                0x9d00edfc                fpdiv
                0x9d00edfc                __divsf3

.text.phApp_RdLibInit
                0x9d00f02c      0x22c
 .text.phApp_RdLibInit
                0x9d00f02c      0x22c build/default/production/nxp_reader_config_files/phApp_Init.o
                0x9d00f02c                phApp_RdLibInit

.text.phhalHw_Pn5180_Int_LoadCommand
                0x9d00f258      0x208
 .text.phhalHw_Pn5180_Int_LoadCommand
                0x9d00f258      0x208 build/default/production/NxpNfcRdLib/comps/phhalHw/src/Pn5180/phhalHw_Pn5180_Int.o
                0x9d00f258                phhalHw_Pn5180_Int_LoadCommand

.text.Mfdf_ReadCardInfo
                0x9d00f460      0x204
 .text.Mfdf_ReadCardInfo
                0x9d00f460      0x204 build/default/production/main.o
                0x9d00f460                Mfdf_ReadCardInfo

.text.phhalHw_Pn5180_Wait
                0x9d00f664      0x200
 .text.phhalHw_Pn5180_Wait
                0x9d00f664      0x200 build/default/production/NxpNfcRdLib/comps/phhalHw/src/Pn5180/phhalHw_Pn5180.o
                0x9d00f664                phhalHw_Pn5180_Wait

.text.PIN_MANAGER_Initialize
                0x9d00f864      0x1ec
 .text.PIN_MANAGER_Initialize
                0x9d00f864      0x1ec build/default/production/mcc_generated_files/pin_manager.o
                0x9d00f864                PIN_MANAGER_Initialize

.dinit          0x9d00fa50      0x1e0
 .dinit         0x9d00fa50      0x1e0 data_init

.text.phOsal_EventPend
                0x9d00fc30      0x1d4
 .text.phOsal_EventPend
                0x9d00fc30      0x1d4 build/default/production/NxpNfcRdLib/comps/phOsal/src/NullOs/phOsal_NullOs.o
                0x9d00fc30                phOsal_EventPend

.text.phhalHw_Pn5180_SetMinFDT
                0x9d00fe04      0x1c8
 .text.phhalHw_Pn5180_SetMinFDT
                0x9d00fe04      0x1c8 build/default/production/NxpNfcRdLib/comps/phhalHw/src/Pn5180/phhalHw_Pn5180.o
                0x9d00fe04                phhalHw_Pn5180_SetMinFDT

.text.phhalHw_Pn5180_Instr_WriteRegisterOrMask
                0x9d00ffcc      0x1c0
 .text.phhalHw_Pn5180_Instr_WriteRegisterOrMask
                0x9d00ffcc      0x1c0 build/default/production/NxpNfcRdLib/comps/phhalHw/src/Pn5180/phhalHw_Pn5180_Instr.o
                0x9d00ffcc                phhalHw_Pn5180_Instr_WriteRegisterOrMask

.text.phhalHw_Pn5180_Instr_WriteRegisterAndMask
                0x9d01018c      0x1c0
 .text.phhalHw_Pn5180_Instr_WriteRegisterAndMask
                0x9d01018c      0x1c0 build/default/production/NxpNfcRdLib/comps/phhalHw/src/Pn5180/phhalHw_Pn5180_Instr.o
                0x9d01018c                phhalHw_Pn5180_Instr_WriteRegisterAndMask

.text.phhalHw_Pn5180_Instr_WriteRegister
                0x9d01034c      0x1bc
 .text.phhalHw_Pn5180_Instr_WriteRegister
                0x9d01034c      0x1bc build/default/production/NxpNfcRdLib/comps/phhalHw/src/Pn5180/phhalHw_Pn5180_Instr.o
                0x9d01034c                phhalHw_Pn5180_Instr_WriteRegister

.text.fp32mul   0x9d010508      0x1bc
 .text.fp32mul  0x9d010508      0x1bc c:/program files (x86)/microchip/xc32/v2.05/bin/bin/../../lib/gcc/pic32mx/4.8.3/../../../../pic32mx/lib\libm.a(fp32mul.o)
                0x9d010508                fpmul
                0x9d010508                __mulsf3

.text.phpalI14443p4_Sw_IsValidIBlock
                0x9d0106c4      0x1b4
 .text.phpalI14443p4_Sw_IsValidIBlock
                0x9d0106c4      0x1b4 build/default/production/NxpNfcRdLib/comps/phpalI14443p4/src/Sw/phpalI14443p4_Sw.o
                0x9d0106c4                phpalI14443p4_Sw_IsValidIBlock

.text.SPI1_ExchangeBuffer
                0x9d010878      0x1b0
 .text.SPI1_ExchangeBuffer
                0x9d010878      0x1b0 build/default/production/mcc_generated_files/spi1.o
                0x9d010878                SPI1_ExchangeBuffer

.text.phhalHw_Pn5180_SetTmo
                0x9d010a28      0x1a8
 .text.phhalHw_Pn5180_SetTmo
                0x9d010a28      0x1a8 build/default/production/NxpNfcRdLib/comps/phhalHw/src/Pn5180/phhalHw_Pn5180_Int.o
                0x9d010a28                phhalHw_Pn5180_SetTmo

.text._CHANGE_NOTICE
                0x9d010bd0      0x1a4
 .text._CHANGE_NOTICE
                0x9d010bd0      0x1a4 build/default/production/mcc_generated_files/pin_manager.o
                0x9d010bd0                _CHANGE_NOTICE

.text.phacDiscLoop_Sw_DetTechTypeA
                0x9d010d74      0x1a0
 .text.phacDiscLoop_Sw_DetTechTypeA
                0x9d010d74      0x1a0 build/default/production/NxpNfcRdLib/comps/phacDiscLoop/src/Sw/phacDiscLoop_Sw_Int_A.o
                0x9d010d74                phacDiscLoop_Sw_DetTechTypeA

.text.phhalHw_Pn5180_Instr_RetrieveRxData
                0x9d010f14      0x1a0
 .text.phhalHw_Pn5180_Instr_RetrieveRxData
                0x9d010f14      0x1a0 build/default/production/NxpNfcRdLib/comps/phhalHw/src/Pn5180/phhalHw_Pn5180_Instr.o
                0x9d010f14                phhalHw_Pn5180_Instr_RetrieveRxData

.text           0x9d0110b4      0x1a0
 .text          0x9d0110b4      0x1a0 c:/program files (x86)/microchip/xc32/v2.05/bin/bin/../../lib/gcc/pic32mx/4.8.3/../../../../pic32mx/lib\libpic32.a(strcpy.o)
                0x9d0110b4                strcpy

.text.phacDiscLoop_Sw_Init
                0x9d011254      0x198
 .text.phacDiscLoop_Sw_Init
                0x9d011254      0x198 build/default/production/NxpNfcRdLib/comps/phacDiscLoop/src/Sw/phacDiscLoop_Sw.o
                0x9d011254                phacDiscLoop_Sw_Init

.text.phhalHw_Pn5180_Instr_ReadRegister
                0x9d0113ec      0x194
 .text.phhalHw_Pn5180_Instr_ReadRegister
                0x9d0113ec      0x194 build/default/production/NxpNfcRdLib/comps/phhalHw/src/Pn5180/phhalHw_Pn5180_Instr.o
                0x9d0113ec                phhalHw_Pn5180_Instr_ReadRegister

.text._T1Interrupt
                0x9d011580      0x188
 .text._T1Interrupt
                0x9d011580      0x188 build/default/production/mcc_generated_files/tmr1.o
                0x9d011580                _T1Interrupt

.text.phhalHw_Pn5180_Instr_ReadE2Prom
                0x9d011708      0x188
 .text.phhalHw_Pn5180_Instr_ReadE2Prom
                0x9d011708      0x188 build/default/production/NxpNfcRdLib/comps/phhalHw/src/Pn5180/phhalHw_Pn5180_Instr.o
                0x9d011708                phhalHw_Pn5180_Instr_ReadE2Prom

.text.phhalHw_Pn5180_Instr_LoadRfConfiguration
                0x9d011890      0x180
 .text.phhalHw_Pn5180_Instr_LoadRfConfiguration
                0x9d011890      0x180 build/default/production/NxpNfcRdLib/comps/phhalHw/src/Pn5180/phhalHw_Pn5180_Instr.o
                0x9d011890                phhalHw_Pn5180_Instr_LoadRfConfiguration

.text.Mfc_ReadCardInfo
                0x9d011a10      0x170
 .text.Mfc_ReadCardInfo
                0x9d011a10      0x170 build/default/production/main.o
                0x9d011a10                Mfc_ReadCardInfo

.text._T2Interrupt
                0x9d011b80      0x16c
 .text._T2Interrupt
                0x9d011b80      0x16c build/default/production/mcc_generated_files/tmr2.o
                0x9d011b80                _T2Interrupt

.text           0x9d011cec      0x168
 .text          0x9d011cec      0x168 c:/program files (x86)/microchip/xc32/v2.05/bin/bin/../../lib/gcc/pic32mx/4.8.3/../../../../pic32mx/lib\libpic32.a(memcpy.o)
                0x9d011cec                memcpy

.text.phpalI14443p4a_Sw_ActivateCard
                0x9d011e54      0x160
 .text.phpalI14443p4a_Sw_ActivateCard
                0x9d011e54      0x160 build/default/production/NxpNfcRdLib/comps/phpalI14443p4a/src/Sw/phpalI14443p4a_Sw.o
                0x9d011e54                phpalI14443p4a_Sw_ActivateCard

.text.phpalI14443p3a_Sw_HaltA
                0x9d011fb4      0x150
 .text.phpalI14443p3a_Sw_HaltA
                0x9d011fb4      0x150 build/default/production/NxpNfcRdLib/comps/phpalI14443p3a/src/Sw/phpalI14443p3a_Sw.o
                0x9d011fb4                phpalI14443p3a_Sw_HaltA

.text.phalMfdf_Sw_Init
                0x9d012104      0x14c
 .text.phalMfdf_Sw_Init
                0x9d012104      0x14c build/default/production/NxpNfcRdLib/comps/phalMfdf/src/Sw/phalMfdf_Sw.o
                0x9d012104                phalMfdf_Sw_Init

.text.phhalHw_Pn5180_FieldOn
                0x9d012250      0x14c
 .text.phhalHw_Pn5180_FieldOn
                0x9d012250      0x14c build/default/production/NxpNfcRdLib/comps/phhalHw/src/Pn5180/phhalHw_Pn5180.o
                0x9d012250                phhalHw_Pn5180_FieldOn

.text.phbalReg_Pic32mxSpi_Exchange
                0x9d01239c      0x148
 .text.phbalReg_Pic32mxSpi_Exchange
                0x9d01239c      0x148 build/default/production/NxpNfcRdLib/comps/phbalReg/src/Pic32mxSPI/phbalReg_Pic32mxSpi.o
                0x9d01239c                phbalReg_Pic32mxSpi_Exchange

.text.phhalHw_Pn5180_Instr_SwitchModeLpcd
                0x9d0124e4      0x148
 .text.phhalHw_Pn5180_Instr_SwitchModeLpcd
                0x9d0124e4      0x148 build/default/production/NxpNfcRdLib/comps/phhalHw/src/Pn5180/phhalHw_Pn5180_Instr.o
                0x9d0124e4                phhalHw_Pn5180_Instr_SwitchModeLpcd

.text.phPlatform_Port_Host_SetPinConfig
                0x9d01262c      0x140
 .text.phPlatform_Port_Host_SetPinConfig
                0x9d01262c      0x140 build/default/production/NxpNfcRdLib/comps/phPlatform/src/Port/PIC32MX/phPlatform_Port_PIC32MX.o
                0x9d01262c                phPlatform_Port_Host_SetPinConfig

.text.phpalI14443p4_Sw_IsValidSBlock
                0x9d01276c      0x138
 .text.phpalI14443p4_Sw_IsValidSBlock
                0x9d01276c      0x138 build/default/production/NxpNfcRdLib/comps/phpalI14443p4/src/Sw/phpalI14443p4_Sw.o
                0x9d01276c                phpalI14443p4_Sw_IsValidSBlock

.text.phacDiscLoop_Sw_Int_ColsnReslnActivity
                0x9d0128a4      0x134
 .text.phacDiscLoop_Sw_Int_ColsnReslnActivity
                0x9d0128a4      0x134 build/default/production/NxpNfcRdLib/comps/phacDiscLoop/src/Sw/phacDiscLoop_Sw_Int.o
                0x9d0128a4                phacDiscLoop_Sw_Int_ColsnReslnActivity

.text.UART1_Initialize
                0x9d0129d8      0x130
 .text.UART1_Initialize
                0x9d0129d8      0x130 build/default/production/mcc_generated_files/uart1.o
                0x9d0129d8                UART1_Initialize

.text.phPlatform_Init
                0x9d012b08      0x130
 .text.phPlatform_Init
                0x9d012b08      0x130 build/default/production/NxpNfcRdLib/comps/phPlatform/src/phPlatform.o
                0x9d012b08                phPlatform_Init

.text.INTERRUPT_Initialize
                0x9d012c38      0x124
 .text.INTERRUPT_Initialize
                0x9d012c38      0x124 build/default/production/mcc_generated_files/interrupt_manager.o
                0x9d012c38                INTERRUPT_Initialize

.text.phpalI14443p4_Sw_BuildIBlock
                0x9d012d5c      0x120
 .text.phpalI14443p4_Sw_BuildIBlock
                0x9d012d5c      0x120 build/default/production/NxpNfcRdLib/comps/phpalI14443p4/src/Sw/phpalI14443p4_Sw.o
                0x9d012d5c                phpalI14443p4_Sw_BuildIBlock

.text.phpalMifare_Sw_ExchangeL4
                0x9d012e7c      0x120
 .text.phpalMifare_Sw_ExchangeL4
                0x9d012e7c      0x120 build/default/production/NxpNfcRdLib/comps/phpalMifare/src/Sw/phpalMifare_Sw.o
                0x9d012e7c                phpalMifare_Sw_ExchangeL4

.text.phOsal_EventCreate
                0x9d012f9c      0x11c
 .text.phOsal_EventCreate
                0x9d012f9c      0x11c build/default/production/NxpNfcRdLib/comps/phOsal/src/NullOs/phOsal_NullOs.o
                0x9d012f9c                phOsal_EventCreate

.text.phhalHw_Pn5180_ReadData
                0x9d0130b8      0x118
 .text.phhalHw_Pn5180_ReadData
                0x9d0130b8      0x118 build/default/production/NxpNfcRdLib/comps/phhalHw/src/Pn5180/phhalHw_Pn5180_Int.o
                0x9d0130b8                phhalHw_Pn5180_ReadData

.text.phhalHw_Pn5180_BalExchange
                0x9d0131d0      0x114
 .text.phhalHw_Pn5180_BalExchange
                0x9d0131d0      0x114 build/default/production/NxpNfcRdLib/comps/phhalHw/src/Pn5180/phhalHw_Pn5180.o
                0x9d0131d0                phhalHw_Pn5180_BalExchange

.text.phpalI14443p4_Sw_IsValidRBlock
                0x9d0132e4      0x114
 .text.phpalI14443p4_Sw_IsValidRBlock
                0x9d0132e4      0x114 build/default/production/NxpNfcRdLib/comps/phpalI14443p4/src/Sw/phpalI14443p4_Sw.o
                0x9d0132e4                phpalI14443p4_Sw_IsValidRBlock

.text.phpalI14443p4_Sw_BuildSBlock
                0x9d0133f8      0x10c
 .text.phpalI14443p4_Sw_BuildSBlock
                0x9d0133f8      0x10c build/default/production/NxpNfcRdLib/comps/phpalI14443p4/src/Sw/phpalI14443p4_Sw.o
                0x9d0133f8                phpalI14443p4_Sw_BuildSBlock

.text.phhalHw_Pn5180_GetTxBuffer
                0x9d013504      0x104
 .text.phhalHw_Pn5180_GetTxBuffer
                0x9d013504      0x104 build/default/production/NxpNfcRdLib/comps/phhalHw/src/Pn5180/phhalHw_Pn5180_Int.o
                0x9d013504                phhalHw_Pn5180_GetTxBuffer

.text.phhalHw_Pn5180_Instr_RfOn
                0x9d013608       0xf8
 .text.phhalHw_Pn5180_Instr_RfOn
                0x9d013608       0xf8 build/default/production/NxpNfcRdLib/comps/phhalHw/src/Pn5180/phhalHw_Pn5180_Instr.o
                0x9d013608                phhalHw_Pn5180_Instr_RfOn

.text.phacDiscLoop_Sw_Int_FieldOn
                0x9d013700       0xf4
 .text.phacDiscLoop_Sw_Int_FieldOn
                0x9d013700       0xf4 build/default/production/NxpNfcRdLib/comps/phacDiscLoop/src/Sw/phacDiscLoop_Sw_Int.o
                0x9d013700                phacDiscLoop_Sw_Int_FieldOn

.text.main      0x9d0137f4       0xf4
 .text.main     0x9d0137f4       0xf4 build/default/production/main.o
                0x9d0137f4                main

.text.phhalHw_Pn5180_FieldReset
                0x9d0138e8       0xf0
 .text.phhalHw_Pn5180_FieldReset
                0x9d0138e8       0xf0 build/default/production/NxpNfcRdLib/comps/phhalHw/src/Pn5180/phhalHw_Pn5180.o
                0x9d0138e8                phhalHw_Pn5180_FieldReset

.text.phacDiscLoop_Sw_Int_ActivateDevice
                0x9d0139d8       0xec
 .text.phacDiscLoop_Sw_Int_ActivateDevice
                0x9d0139d8       0xec build/default/production/NxpNfcRdLib/comps/phacDiscLoop/src/Sw/phacDiscLoop_Sw_Int.o
                0x9d0139d8                phacDiscLoop_Sw_Int_ActivateDevice

.text.phpalI14443p3a_Sw_SetConfig
                0x9d013ac4       0xe8
 .text.phpalI14443p3a_Sw_SetConfig
                0x9d013ac4       0xe8 build/default/production/NxpNfcRdLib/comps/phpalI14443p3a/src/Sw/phpalI14443p3a_Sw.o
                0x9d013ac4                phpalI14443p3a_Sw_SetConfig

.text.phpalI14443p4_Sw_SetProtocol
                0x9d013bac       0xe8
 .text.phpalI14443p4_Sw_SetProtocol
                0x9d013bac       0xe8 build/default/production/NxpNfcRdLib/comps/phpalI14443p4/src/Sw/phpalI14443p4_Sw.o
                0x9d013bac                phpalI14443p4_Sw_SetProtocol

.rodata         0x9d013c94       0xdc
 .rodata        0x9d013c94       0xdc build/default/production/mcc_generated_files/mcc.o

.text.phhalHw_Pn5180_MfcAuthenticate
                0x9d013d70       0xdc
 .text.phhalHw_Pn5180_MfcAuthenticate
                0x9d013d70       0xdc build/default/production/NxpNfcRdLib/comps/phhalHw/src/Pn5180/phhalHw_Pn5180.o
                0x9d013d70                phhalHw_Pn5180_MfcAuthenticate

.text.phhalHw_Pn5180_Instr_RfOff
                0x9d013e4c       0xdc
 .text.phhalHw_Pn5180_Instr_RfOff
                0x9d013e4c       0xdc build/default/production/NxpNfcRdLib/comps/phhalHw/src/Pn5180/phhalHw_Pn5180_Instr.o
                0x9d013e4c                phhalHw_Pn5180_Instr_RfOff

.text.general_exception
                0x9d013f28       0xdc
 .text.general_exception
                0x9d013f28       0xdc c:/program files (x86)/microchip/xc32/v2.05/bin/bin/../../lib/gcc/pic32mx/4.8.3/../../../../pic32mx/lib\libpic32.a(general-exception.o)
                0x9d013f28                _general_exception_context

.text.phalMfdf_Sw_SelectApplication
                0x9d014004       0xd8
 .text.phalMfdf_Sw_SelectApplication
                0x9d014004       0xd8 build/default/production/NxpNfcRdLib/comps/phalMfdf/src/Sw/phalMfdf_Sw.o
                0x9d014004                phalMfdf_Sw_SelectApplication

.text.phpalI14443p4_Sw_BuildRBlock
                0x9d0140dc       0xd8
 .text.phpalI14443p4_Sw_BuildRBlock
                0x9d0140dc       0xd8 build/default/production/NxpNfcRdLib/comps/phpalI14443p4/src/Sw/phpalI14443p4_Sw.o
                0x9d0140dc                phpalI14443p4_Sw_BuildRBlock

.text.phpalMifare_Sw_MfcAuthenticate
                0x9d0141b4       0xd8
 .text.phpalMifare_Sw_MfcAuthenticate
                0x9d0141b4       0xd8 build/default/production/NxpNfcRdLib/comps/phpalMifare/src/Sw/phpalMifare_Sw.o
                0x9d0141b4                phpalMifare_Sw_MfcAuthenticate

.text.phPlatform_Port_Host_SetPinValue
                0x9d01428c       0xd4
 .text.phPlatform_Port_Host_SetPinValue
                0x9d01428c       0xd4 build/default/production/NxpNfcRdLib/comps/phPlatform/src/Port/PIC32MX/phPlatform_Port_PIC32MX.o
                0x9d01428c                phPlatform_Port_Host_SetPinValue

.text.phpalI14443p4a_Sw_Init
                0x9d014360       0xd0
 .text.phpalI14443p4a_Sw_Init
                0x9d014360       0xd0 build/default/production/NxpNfcRdLib/comps/phpalI14443p4a/src/Sw/phpalI14443p4a_Sw.o
                0x9d014360                phpalI14443p4a_Sw_Init

.text.phPlatform_FE_Reset
                0x9d014430       0xd0
 .text.phPlatform_FE_Reset
                0x9d014430       0xd0 build/default/production/NxpNfcRdLib/comps/phPlatform/src/phPlatform.o
                0x9d014430                phPlatform_FE_Reset

.text.phpalI14443p4a_Sw_SetConfig
                0x9d014500       0xc8
 .text.phpalI14443p4a_Sw_SetConfig
                0x9d014500       0xc8 build/default/production/NxpNfcRdLib/comps/phpalI14443p4a/src/Sw/phpalI14443p4a_Sw.o
                0x9d014500                phpalI14443p4a_Sw_SetConfig

.text.phTools_ComputeCrc_B
                0x9d0145c8       0xc4
 .text.phTools_ComputeCrc_B
                0x9d0145c8       0xc4 build/default/production/NxpNfcRdLib/comps/phTools/src/phTools.o
                0x9d0145c8                phTools_ComputeCrc_B

.text.phTools_UpdateCrc_B
                0x9d01468c       0xc0
 .text.phTools_UpdateCrc_B
                0x9d01468c       0xc0 build/default/production/NxpNfcRdLib/comps/phTools/src/phTools.o

.text.phOsal_NullOs_GetFreeIndex
                0x9d01474c       0xb8
 .text.phOsal_NullOs_GetFreeIndex
                0x9d01474c       0xb8 build/default/production/NxpNfcRdLib/comps/phOsal/src/NullOs/phOsal_NullOs.o

.text.phTools_CalcParity
                0x9d014804       0xb4
 .text.phTools_CalcParity
                0x9d014804       0xb4 build/default/production/NxpNfcRdLib/comps/phTools/src/phTools.o

.text.phacDiscLoop_Sw_Int_ActivePollMode
                0x9d0148b8       0xb0
 .text.phacDiscLoop_Sw_Int_ActivePollMode
                0x9d0148b8       0xb0 build/default/production/NxpNfcRdLib/comps/phacDiscLoop/src/Sw/phacDiscLoop_Sw_Int.o
                0x9d0148b8                phacDiscLoop_Sw_Int_ActivePollMode

.text           0x9d014968       0xa8
 .text          0x9d014968       0xa8 c:/program files (x86)/microchip/xc32/v2.05/bin/bin/../../lib/gcc/pic32mx/4.8.3/../../../../pic32mx/lib\libpic32.a(memset.o)
                0x9d014968                memset

.text.phbalReg_Pic32mxSpi_Init
                0x9d014a10       0xa0
 .text.phbalReg_Pic32mxSpi_Init
                0x9d014a10       0xa0 build/default/production/NxpNfcRdLib/comps/phbalReg/src/Pic32mxSPI/phbalReg_Pic32mxSpi.o
                0x9d014a10                phbalReg_Pic32mxSpi_Init

.text.phOsal_EventClear
                0x9d014ab0       0xa0
 .text.phOsal_EventClear
                0x9d014ab0       0xa0 build/default/production/NxpNfcRdLib/comps/phOsal/src/NullOs/phOsal_NullOs.o
                0x9d014ab0                phOsal_EventClear

.text.phOsal_EventPost
                0x9d014b50       0x9c
 .text.phOsal_EventPost
                0x9d014b50       0x9c build/default/production/NxpNfcRdLib/comps/phOsal/src/NullOs/phOsal_NullOs.o
                0x9d014b50                phOsal_EventPost

.text.phacDiscLoop_Sw_Int_IsValidPollStatus
                0x9d014bec       0x98
 .text.phacDiscLoop_Sw_Int_IsValidPollStatus
                0x9d014bec       0x98 build/default/production/NxpNfcRdLib/comps/phacDiscLoop/src/Sw/phacDiscLoop_Sw_Int.o
                0x9d014bec                phacDiscLoop_Sw_Int_IsValidPollStatus

.text           0x9d014c84       0x98
 .text          0x9d014c84       0x98 c:/program files (x86)/microchip/xc32/v2.05/bin/bin/../../lib/gcc/pic32mx/4.8.3/../../../../pic32mx/lib\libpic32.a(memcmp.o)
                0x9d014c84                memcmp

.text.phpalI14443p4a_Sw_GetProtocolParams
                0x9d014d1c       0x94
 .text.phpalI14443p4a_Sw_GetProtocolParams
                0x9d014d1c       0x94 build/default/production/NxpNfcRdLib/comps/phpalI14443p4a/src/Sw/phpalI14443p4a_Sw.o
                0x9d014d1c                phpalI14443p4a_Sw_GetProtocolParams

.text.phPlatform_Timer_Init
                0x9d014db0       0x94
 .text.phPlatform_Timer_Init
                0x9d014db0       0x94 build/default/production/NxpNfcRdLib/comps/phPlatform/src/phPlatform.o
                0x9d014db0                phPlatform_Timer_Init

.text.ADC_1     0x9d014e44       0x90
 .text.ADC_1    0x9d014e44       0x90 build/default/production/mcc_generated_files/adc1.o
                0x9d014e44                ADC_1

.text.phhalHw_Pn5180_FieldOff
                0x9d014ed4       0x90
 .text.phhalHw_Pn5180_FieldOff
                0x9d014ed4       0x90 build/default/production/NxpNfcRdLib/comps/phhalHw/src/Pn5180/phhalHw_Pn5180.o
                0x9d014ed4                phhalHw_Pn5180_FieldOff

.text.phhalHw_Pn5180_Int_IdleCommand
                0x9d014f64       0x90
 .text.phhalHw_Pn5180_Int_IdleCommand
                0x9d014f64       0x90 build/default/production/NxpNfcRdLib/comps/phhalHw/src/Pn5180/phhalHw_Pn5180_Int.o
                0x9d014f64                phhalHw_Pn5180_Int_IdleCommand

.text.phpalI14443p3a_Sw_Init
                0x9d014ff4       0x8c
 .text.phpalI14443p3a_Sw_Init
                0x9d014ff4       0x8c build/default/production/NxpNfcRdLib/comps/phpalI14443p3a/src/Sw/phpalI14443p3a_Sw.o
                0x9d014ff4                phpalI14443p3a_Sw_Init

.text.phpalI14443p3a_Sw_GetSerialNo
                0x9d015080       0x88
 .text.phpalI14443p3a_Sw_GetSerialNo
                0x9d015080       0x88 build/default/production/NxpNfcRdLib/comps/phpalI14443p3a/src/Sw/phpalI14443p3a_Sw.o
                0x9d015080                phpalI14443p3a_Sw_GetSerialNo

.text.phpalI14443p4_Sw_ResetProtocol
                0x9d015108       0x88
 .text.phpalI14443p4_Sw_ResetProtocol
                0x9d015108       0x88 build/default/production/NxpNfcRdLib/comps/phpalI14443p4/src/Sw/phpalI14443p4_Sw.o
                0x9d015108                phpalI14443p4_Sw_ResetProtocol

.text.SysTick_Handler
                0x9d015190       0x88
 .text.SysTick_Handler
                0x9d015190       0x88 build/default/production/NxpNfcRdLib/comps/phPlatform/src/Port/PIC32MX/phPlatform_Port_PIC32MXTimer.o
                0x9d015190                SysTick_Handler

.text.phpalI14443p4_Sw_Init
                0x9d015218       0x84
 .text.phpalI14443p4_Sw_Init
                0x9d015218       0x84 build/default/production/NxpNfcRdLib/comps/phpalI14443p4/src/Sw/phpalI14443p4_Sw.o
                0x9d015218                phpalI14443p4_Sw_Init

.text.phPlatform_Port_Host_GetPinValue
                0x9d01529c       0x84
 .text.phPlatform_Port_Host_GetPinValue
                0x9d01529c       0x84 build/default/production/NxpNfcRdLib/comps/phPlatform/src/Port/PIC32MX/phPlatform_Port_PIC32MX.o
                0x9d01529c                phPlatform_Port_Host_GetPinValue

.text.phhalHw_Pn5180_Check_Reg_Readonly
                0x9d015320       0x80
 .text.phhalHw_Pn5180_Check_Reg_Readonly
                0x9d015320       0x80 build/default/production/NxpNfcRdLib/comps/phhalHw/src/Pn5180/phhalHw_Pn5180_Instr.o

.text.fptoul    0x9d0153a0       0x7c
 .text.fptoul   0x9d0153a0       0x7c c:/program files (x86)/microchip/xc32/v2.05/bin/bin/../../lib/gcc/pic32mx/4.8.3/../../../../pic32mx/lib\libm.a(fptoul.o)
                0x9d0153a0                __fixunssfsi
                0x9d0153a0                fptoul
                0x9d0153a0                fptoui

.text.phalMfc_Sw_Init
                0x9d01541c       0x78
 .text.phalMfc_Sw_Init
                0x9d01541c       0x78 build/default/production/NxpNfcRdLib/comps/phalMfc/src/Sw/phalMfc_Sw.o
                0x9d01541c                phalMfc_Sw_Init

.text.phpalMifare_Sw_Init
                0x9d015494       0x78
 .text.phpalMifare_Sw_Init
                0x9d015494       0x78 build/default/production/NxpNfcRdLib/comps/phpalMifare/src/Sw/phpalMifare_Sw.o
                0x9d015494                phpalMifare_Sw_Init

.rodata         0x9d01550c       0x74
 .rodata        0x9d01550c       0x74 build/default/production/main.o

.text.SYSTEM_Initialize
                0x9d015580       0x70
 .text.SYSTEM_Initialize
                0x9d015580       0x70 build/default/production/mcc_generated_files/mcc.o
                0x9d015580                SYSTEM_Initialize

.text.RF_IRQ_Handler
                0x9d0155f0       0x70
 .text.RF_IRQ_Handler
                0x9d0155f0       0x70 build/default/production/NxpNfcRdLib/comps/phPlatform/src/phPlatform.o
                0x9d0155f0                RF_IRQ_Handler

.text.ADC1_Initialize
                0x9d015660       0x68
 .text.ADC1_Initialize
                0x9d015660       0x68 build/default/production/mcc_generated_files/adc1.o
                0x9d015660                ADC1_Initialize

.text.phpalI14443p3a_Sw_Select
                0x9d0156c8       0x68
 .text.phpalI14443p3a_Sw_Select
                0x9d0156c8       0x68 build/default/production/NxpNfcRdLib/comps/phpalI14443p3a/src/Sw/phpalI14443p3a_Sw.o
                0x9d0156c8                phpalI14443p3a_Sw_Select

.text.TMR1_Initialize
                0x9d015730       0x64
 .text.TMR1_Initialize
                0x9d015730       0x64 build/default/production/mcc_generated_files/tmr1.o
                0x9d015730                TMR1_Initialize

.text.OSCILLATOR_Initialize
                0x9d015794       0x64
 .text.OSCILLATOR_Initialize
                0x9d015794       0x64 build/default/production/mcc_generated_files/mcc.o
                0x9d015794                OSCILLATOR_Initialize

.text.phalMfdf_Sw_SetConfig
                0x9d0157f8       0x64
 .text.phalMfdf_Sw_SetConfig
                0x9d0157f8       0x64 build/default/production/NxpNfcRdLib/comps/phalMfdf/src/Sw/phalMfdf_Sw.o
                0x9d0157f8                phalMfdf_Sw_SetConfig

.text.NfcRdLibInit
                0x9d01585c       0x64
 .text.NfcRdLibInit
                0x9d01585c       0x64 build/default/production/main.o

.text.TMR2_Initialize
                0x9d0158c0       0x60
 .text.TMR2_Initialize
                0x9d0158c0       0x60 build/default/production/mcc_generated_files/tmr2.o
                0x9d0158c0                TMR2_Initialize

.text.sitofp    0x9d015920       0x60
 .text.sitofp   0x9d015920       0x60 c:/program files (x86)/microchip/xc32/v2.05/bin/bin/../../lib/gcc/pic32mx/4.8.3/../../../../pic32mx/lib\libm.a(sitofp.o)
                0x9d015920                __floatsisf
                0x9d015920                litofp
                0x9d015920                sitofp

.text.TMR1_Start
                0x9d015980       0x58
 .text.TMR1_Start
                0x9d015980       0x58 build/default/production/mcc_generated_files/tmr1.o
                0x9d015980                TMR1_Start

.text.phApp_Print_Buff
                0x9d0159d8       0x58
 .text.phApp_Print_Buff
                0x9d0159d8       0x58 build/default/production/nxp_reader_config_files/phApp_Init.o
                0x9d0159d8                phApp_Print_Buff

.text.main_entry
                0x9d015a30       0x54
 .text.main_entry
                0x9d015a30       0x54 c:/program files (x86)/microchip/xc32/v2.05/bin/bin/../../lib/gcc/pic32mx/4.8.3/../../../../pic32mx/lib/./proc/32MX150F128D/crt0_mips32r2.o
                0x9d015a64                __crt0_exit

.text.phhalHw_Pn5180_EventCallback
                0x9d015a84       0x54
 .text.phhalHw_Pn5180_EventCallback
                0x9d015a84       0x54 build/default/production/NxpNfcRdLib/comps/phhalHw/src/Pn5180/phhalHw_Pn5180.o
                0x9d015a84                phhalHw_Pn5180_EventCallback

.text.phPlatform_StartTickTimer
                0x9d015ad8       0x54
 .text.phPlatform_StartTickTimer
                0x9d015ad8       0x54 build/default/production/NxpNfcRdLib/comps/phPlatform/src/Port/PIC32MX/phPlatform_Port_PIC32MXTimer.o
                0x9d015ad8                phPlatform_StartTickTimer

.text.SYSTEM_RegUnlock
                0x9d015b2c       0x50
 .text.SYSTEM_RegUnlock
                0x9d015b2c       0x50 build/default/production/mcc_generated_files/mcc.o
                0x9d015b2c                SYSTEM_RegUnlock

.text.SPI1_Exchange8bitBuffer
                0x9d015b7c       0x50
 .text.SPI1_Exchange8bitBuffer
                0x9d015b7c       0x50 build/default/production/mcc_generated_files/spi1.o
                0x9d015b7c                SPI1_Exchange8bitBuffer

.text.phhalHw_Pn5180_WriteRegister
                0x9d015bcc       0x50
 .text.phhalHw_Pn5180_WriteRegister
                0x9d015bcc       0x50 build/default/production/NxpNfcRdLib/comps/phhalHw/src/Pn5180/phhalHw_Pn5180.o
                0x9d015bcc                phhalHw_Pn5180_WriteRegister

.text.phhalHw_Pn5180_ReadRegister
                0x9d015c1c       0x50
 .text.phhalHw_Pn5180_ReadRegister
                0x9d015c1c       0x50 build/default/production/NxpNfcRdLib/comps/phhalHw/src/Pn5180/phhalHw_Pn5180.o
                0x9d015c1c                phhalHw_Pn5180_ReadRegister

.text.phPlatform_InitTickTimer
                0x9d015c6c       0x50
 .text.phPlatform_InitTickTimer
                0x9d015c6c       0x50 build/default/production/NxpNfcRdLib/comps/phPlatform/src/Port/PIC32MX/phPlatform_Port_PIC32MXTimer.o
                0x9d015c6c                phPlatform_InitTickTimer

.text._general_exception_handler
                0x9d015cbc       0x4c
 .text._general_exception_handler
                0x9d015cbc       0x4c build/default/production/mcc_generated_files/mcc.o
                0x9d015cbc                _general_exception_handler

.text.SPI1_Initialize
                0x9d015d08       0x4c
 .text.SPI1_Initialize
                0x9d015d08       0x4c build/default/production/mcc_generated_files/spi1.o
                0x9d015d08                SPI1_Initialize

.text.SPI2_Initialize
                0x9d015d54       0x4c
 .text.SPI2_Initialize
                0x9d015d54       0x4c build/default/production/mcc_generated_files/spi2.o
                0x9d015d54                SPI2_Initialize

.text           0x9d015da0       0x4c
 .text          0x9d015da0       0x4c c:/program files (x86)/microchip/xc32/v2.05/bin/bin/../../lib/gcc/pic32mx/4.8.3\libgcc.a(floatunsisf.o)
                0x9d015da0                __floatunsisf

.text.phhalHw_Pn5180_Instr_GetInstrBuffer
                0x9d015dec       0x48
 .text.phhalHw_Pn5180_Instr_GetInstrBuffer
                0x9d015dec       0x48 build/default/production/NxpNfcRdLib/comps/phhalHw/src/Pn5180/phhalHw_Pn5180_Instr.o

.text._bootstrap_exception_handler
                0x9d015e34       0x48
 .text._bootstrap_exception_handler
                0x9d015e34       0x48 c:/program files (x86)/microchip/xc32/v2.05/bin/bin/../../lib/gcc/pic32mx/4.8.3/../../../../pic32mx/lib\libpic32.a(default-bootstrap-exception-handler.o)
                0x9d015e34                _bootstrap_exception_handler

.vector_default
                0x9d015e7c       0x48
 .vector_default
                0x9d015e7c       0x48 c:/program files (x86)/microchip/xc32/v2.05/bin/bin/../../lib/gcc/pic32mx/4.8.3/../../../../pic32mx/lib\libpic32.a(defaultinterrupt.o)
                0x9d015e7c                _DefaultInterrupt

.text.phOsal_Init
                0x9d015ec4       0x44
 .text.phOsal_Init
                0x9d015ec4       0x44 build/default/production/NxpNfcRdLib/comps/phOsal/src/NullOs/phOsal_NullOs.o
                0x9d015ec4                phOsal_Init

.text.phpalI14443p3a_Sw_RequestA
                0x9d015f08       0x44
 .text.phpalI14443p3a_Sw_RequestA
                0x9d015f08       0x44 build/default/production/NxpNfcRdLib/comps/phpalI14443p3a/src/Sw/phpalI14443p3a_Sw.o
                0x9d015f08                phpalI14443p3a_Sw_RequestA

.text.phpalI14443p3a_Sw_WakeUpA
                0x9d015f4c       0x44
 .text.phpalI14443p3a_Sw_WakeUpA
                0x9d015f4c       0x44 build/default/production/NxpNfcRdLib/comps/phpalI14443p3a/src/Sw/phpalI14443p3a_Sw.o
                0x9d015f4c                phpalI14443p3a_Sw_WakeUpA

.text.phPlatform_Port_Host_HwTimer_Init
                0x9d015f90       0x44
 .text.phPlatform_Port_Host_HwTimer_Init
                0x9d015f90       0x44 build/default/production/NxpNfcRdLib/comps/phPlatform/src/Port/PIC32MX/phPlatform_Port_PIC32MXTimer.o
                0x9d015f90                phPlatform_Port_Host_HwTimer_Init

.text           0x9d015fd4       0x44
 .text          0x9d015fd4       0x44 c:/program files (x86)/microchip/xc32/v2.05/bin/bin/../../lib/gcc/pic32mx/4.8.3/../../../../pic32mx/lib\pic32_software_reset.o
                0x9d015fd4                __pic32_software_reset

.text.TMR1_Stop
                0x9d016018       0x40
 .text.TMR1_Stop
                0x9d016018       0x40 build/default/production/mcc_generated_files/tmr1.o
                0x9d016018                TMR1_Stop

.rodata.gkphhalHw_Pn5180_DigiDelays_Us.gkphhalHw_Pn5180_DigiDelays_Us
                0x9d016058       0x38
 .rodata.gkphhalHw_Pn5180_DigiDelays_Us.gkphhalHw_Pn5180_DigiDelays_Us
                0x9d016058       0x38 build/default/production/NxpNfcRdLib/comps/phhalHw/src/Pn5180/phhalHw_Pn5180_Int.o

.text.phOsal_NullOsSysTickHandler
                0x9d016090       0x38
 .text.phOsal_NullOsSysTickHandler
                0x9d016090       0x38 build/default/production/NxpNfcRdLib/comps/phOsal/src/NullOs/phOsal_NullOs.o

.text.phacDiscLoop_Sw_Int_EmvcoTechDetectActivity
                0x9d0160c8       0x34
 .text.phacDiscLoop_Sw_Int_EmvcoTechDetectActivity
                0x9d0160c8       0x34 build/default/production/NxpNfcRdLib/comps/phacDiscLoop/src/Sw/phacDiscLoop_Sw_Int.o
                0x9d0160c8                phacDiscLoop_Sw_Int_EmvcoTechDetectActivity

.text.phPlatform_StopTickTimer
                0x9d0160fc       0x34
 .text.phPlatform_StopTickTimer
                0x9d0160fc       0x34 build/default/production/NxpNfcRdLib/comps/phPlatform/src/Port/PIC32MX/phPlatform_Port_PIC32MXTimer.o
                0x9d0160fc                phPlatform_StopTickTimer

.text.phacDiscLoop_Sw_Int_ActivateB
                0x9d016130       0x30
 .text.phacDiscLoop_Sw_Int_ActivateB
                0x9d016130       0x30 build/default/production/NxpNfcRdLib/comps/phacDiscLoop/src/Sw/phacDiscLoop_Sw_Int_B.o
                0x9d016130                phacDiscLoop_Sw_Int_ActivateB

.text.phacDiscLoop_Sw_Int_ActivateF
                0x9d016160       0x30
 .text.phacDiscLoop_Sw_Int_ActivateF
                0x9d016160       0x30 build/default/production/NxpNfcRdLib/comps/phacDiscLoop/src/Sw/phacDiscLoop_Sw_Int_F.o
                0x9d016160                phacDiscLoop_Sw_Int_ActivateF

.text.phacDiscLoop_Sw_Int_ActivateI18000p3m3
                0x9d016190       0x30
 .text.phacDiscLoop_Sw_Int_ActivateI18000p3m3
                0x9d016190       0x30 build/default/production/NxpNfcRdLib/comps/phacDiscLoop/src/Sw/phacDiscLoop_Sw_Int_I18000p3m3.o
                0x9d016190                phacDiscLoop_Sw_Int_ActivateI18000p3m3

.text.phacDiscLoop_Sw_Int_ActivateV
                0x9d0161c0       0x30
 .text.phacDiscLoop_Sw_Int_ActivateV
                0x9d0161c0       0x30 build/default/production/NxpNfcRdLib/comps/phacDiscLoop/src/Sw/phacDiscLoop_Sw_Int_V.o
                0x9d0161c0                phacDiscLoop_Sw_Int_ActivateV

.rodata.wPn5180_DefaultShadow_I15693.wPn5180_DefaultShadow_I15693
                0x9d0161f0       0x30
 .rodata.wPn5180_DefaultShadow_I15693.wPn5180_DefaultShadow_I15693
                0x9d0161f0       0x30 build/default/production/NxpNfcRdLib/comps/phhalHw/src/Pn5180/phhalHw_Pn5180.o

.rodata.wPn5180_DefaultShadow_I18000p3m3.wPn5180_DefaultShadow_I18000p3m3
                0x9d016220       0x30
 .rodata.wPn5180_DefaultShadow_I18000p3m3.wPn5180_DefaultShadow_I18000p3m3
                0x9d016220       0x30 build/default/production/NxpNfcRdLib/comps/phhalHw/src/Pn5180/phhalHw_Pn5180.o

.rodata.wPn5180_DefaultShadow_I14443b.wPn5180_DefaultShadow_I14443b
                0x9d016250       0x2c
 .rodata.wPn5180_DefaultShadow_I14443b.wPn5180_DefaultShadow_I14443b
                0x9d016250       0x2c build/default/production/NxpNfcRdLib/comps/phhalHw/src/Pn5180/phhalHw_Pn5180.o

.rodata.wPn5180_DefaultShadow_Felica.wPn5180_DefaultShadow_Felica
                0x9d01627c       0x2c
 .rodata.wPn5180_DefaultShadow_Felica.wPn5180_DefaultShadow_Felica
                0x9d01627c       0x2c build/default/production/NxpNfcRdLib/comps/phhalHw/src/Pn5180/phhalHw_Pn5180.o

.rodata.wPn5180_DefaultShadow_Felica_424.wPn5180_DefaultShadow_Felica_424
                0x9d0162a8       0x2c
 .rodata.wPn5180_DefaultShadow_Felica_424.wPn5180_DefaultShadow_Felica_424
                0x9d0162a8       0x2c build/default/production/NxpNfcRdLib/comps/phhalHw/src/Pn5180/phhalHw_Pn5180.o

.rodata.wPn5180_DefShadow_I18092m_Active.wPn5180_DefShadow_I18092m_Active
                0x9d0162d4       0x2c
 .rodata.wPn5180_DefShadow_I18092m_Active.wPn5180_DefShadow_I18092m_Active
                0x9d0162d4       0x2c build/default/production/NxpNfcRdLib/comps/phhalHw/src/Pn5180/phhalHw_Pn5180.o

.rodata.wPn5180_DefShadow_I18092m_212_Active.wPn5180_DefShadow_I18092m_212_Active
                0x9d016300       0x2c
 .rodata.wPn5180_DefShadow_I18092m_212_Active.wPn5180_DefShadow_I18092m_212_Active
                0x9d016300       0x2c build/default/production/NxpNfcRdLib/comps/phhalHw/src/Pn5180/phhalHw_Pn5180.o

.rodata.wPn5180_DefShadow_I18092m_424_Active.wPn5180_DefShadow_I18092m_424_Active
                0x9d01632c       0x2c
 .rodata.wPn5180_DefShadow_I18092m_424_Active.wPn5180_DefShadow_I18092m_424_Active
                0x9d01632c       0x2c build/default/production/NxpNfcRdLib/comps/phhalHw/src/Pn5180/phhalHw_Pn5180.o

.text.SYSTEM_RegLock
                0x9d016358       0x28
 .text.SYSTEM_RegLock
                0x9d016358       0x28 build/default/production/mcc_generated_files/mcc.o
                0x9d016358                SYSTEM_RegLock

.text.phacDiscLoop_Sw_Int_ListenMode
                0x9d016380       0x28
 .text.phacDiscLoop_Sw_Int_ListenMode
                0x9d016380       0x28 build/default/production/NxpNfcRdLib/comps/phacDiscLoop/src/Sw/phacDiscLoop_Sw_Int.o
                0x9d016380                phacDiscLoop_Sw_Int_ListenMode

.text.phacDiscLoop_Sw_Int_EmvcoRemovalProcedure
                0x9d0163a8       0x28
 .text.phacDiscLoop_Sw_Int_EmvcoRemovalProcedure
                0x9d0163a8       0x28 build/default/production/NxpNfcRdLib/comps/phacDiscLoop/src/Sw/phacDiscLoop_Sw_Int.o
                0x9d0163a8                phacDiscLoop_Sw_Int_EmvcoRemovalProcedure

.text.phacDiscLoop_Sw_DetTechTypeB
                0x9d0163d0       0x28
 .text.phacDiscLoop_Sw_DetTechTypeB
                0x9d0163d0       0x28 build/default/production/NxpNfcRdLib/comps/phacDiscLoop/src/Sw/phacDiscLoop_Sw_Int_B.o
                0x9d0163d0                phacDiscLoop_Sw_DetTechTypeB

.text.phacDiscLoop_Sw_Int_CollisionResolutionB
                0x9d0163f8       0x28
 .text.phacDiscLoop_Sw_Int_CollisionResolutionB
                0x9d0163f8       0x28 build/default/production/NxpNfcRdLib/comps/phacDiscLoop/src/Sw/phacDiscLoop_Sw_Int_B.o
                0x9d0163f8                phacDiscLoop_Sw_Int_CollisionResolutionB

.text.phacDiscLoop_Sw_DetTechTypeF
                0x9d016420       0x28
 .text.phacDiscLoop_Sw_DetTechTypeF
                0x9d016420       0x28 build/default/production/NxpNfcRdLib/comps/phacDiscLoop/src/Sw/phacDiscLoop_Sw_Int_F.o
                0x9d016420                phacDiscLoop_Sw_DetTechTypeF

.text.phacDiscLoop_Sw_Int_CollisionResolutionF
                0x9d016448       0x28
 .text.phacDiscLoop_Sw_Int_CollisionResolutionF
                0x9d016448       0x28 build/default/production/NxpNfcRdLib/comps/phacDiscLoop/src/Sw/phacDiscLoop_Sw_Int_F.o
                0x9d016448                phacDiscLoop_Sw_Int_CollisionResolutionF

.text.phacDiscLoop_Sw_DetTechTypeI18000p3m3
                0x9d016470       0x28
 .text.phacDiscLoop_Sw_DetTechTypeI18000p3m3
                0x9d016470       0x28 build/default/production/NxpNfcRdLib/comps/phacDiscLoop/src/Sw/phacDiscLoop_Sw_Int_I18000p3m3.o
                0x9d016470                phacDiscLoop_Sw_DetTechTypeI18000p3m3

.text.phacDiscLoop_Sw_Int_CollisionResolutionI18000p3m3
                0x9d016498       0x28
 .text.phacDiscLoop_Sw_Int_CollisionResolutionI18000p3m3
                0x9d016498       0x28 build/default/production/NxpNfcRdLib/comps/phacDiscLoop/src/Sw/phacDiscLoop_Sw_Int_I18000p3m3.o
                0x9d016498                phacDiscLoop_Sw_Int_CollisionResolutionI18000p3m3

.text.phacDiscLoop_Sw_DetTechTypeV
                0x9d0164c0       0x28
 .text.phacDiscLoop_Sw_DetTechTypeV
                0x9d0164c0       0x28 build/default/production/NxpNfcRdLib/comps/phacDiscLoop/src/Sw/phacDiscLoop_Sw_Int_V.o
                0x9d0164c0                phacDiscLoop_Sw_DetTechTypeV

.text.phacDiscLoop_Sw_Int_CollisionResolutionV
                0x9d0164e8       0x28
 .text.phacDiscLoop_Sw_Int_CollisionResolutionV
                0x9d0164e8       0x28 build/default/production/NxpNfcRdLib/comps/phacDiscLoop/src/Sw/phacDiscLoop_Sw_Int_V.o
                0x9d0164e8                phacDiscLoop_Sw_Int_CollisionResolutionV

.rodata.wPn5180_DefaultShadow_I14443a.wPn5180_DefaultShadow_I14443a
                0x9d016510       0x28
 .rodata.wPn5180_DefaultShadow_I14443a.wPn5180_DefaultShadow_I14443a
                0x9d016510       0x28 build/default/production/NxpNfcRdLib/comps/phhalHw/src/Pn5180/phhalHw_Pn5180.o

.text.TMR1_SoftwareCounterGet
                0x9d016538       0x24
 .text.TMR1_SoftwareCounterGet
                0x9d016538       0x24 build/default/production/mcc_generated_files/tmr1.o
                0x9d016538                TMR1_SoftwareCounterGet

.text.TMR1_SoftwareCounterClear
                0x9d01655c       0x24
 .text.TMR1_SoftwareCounterClear
                0x9d01655c       0x24 build/default/production/mcc_generated_files/tmr1.o
                0x9d01655c                TMR1_SoftwareCounterClear

.text.TMR2_CallBack
                0x9d016580       0x20
 .text.TMR2_CallBack
                0x9d016580       0x20 build/default/production/mcc_generated_files/tmr2.o
                0x9d016580                TMR2_CallBack

.text.TMR1_CallBack
                0x9d0165a0       0x20
 .text.TMR1_CallBack
                0x9d0165a0       0x20 build/default/production/mcc_generated_files/tmr1.o
                0x9d0165a0                TMR1_CallBack

.text.phPlatform_Port_Host_ClearInt
                0x9d0165c0       0x20
 .text.phPlatform_Port_Host_ClearInt
                0x9d0165c0       0x20 build/default/production/NxpNfcRdLib/comps/phPlatform/src/Port/PIC32MX/phPlatform_Port_PIC32MX.o
                0x9d0165c0                phPlatform_Port_Host_ClearInt

.rodata.bI14443p4_FsTable.bI14443p4_FsTable
                0x9d0165e0       0x1c
 .rodata.bI14443p4_FsTable.bI14443p4_FsTable
                0x9d0165e0       0x1c build/default/production/NxpNfcRdLib/comps/phpalI14443p4/src/Sw/phpalI14443p4_Sw.o

.rodata.gPasTechTypeMapTable.gPasTechTypeMapTable
                0x9d0165fc       0x18
 .rodata.gPasTechTypeMapTable.gPasTechTypeMapTable
                0x9d0165fc       0x18 build/default/production/NxpNfcRdLib/comps/phacDiscLoop/src/Sw/phacDiscLoop_Sw_Int.o

.rodata.pfColnRelsns.pfColnRelsns
                0x9d016614       0x18
 .rodata.pfColnRelsns.pfColnRelsns
                0x9d016614       0x18 build/default/production/NxpNfcRdLib/comps/phacDiscLoop/src/Sw/phacDiscLoop_Sw_Int.o

.rodata.pfDetTechs.pfDetTechs
                0x9d01662c       0x18
 .rodata.pfDetTechs.pfDetTechs
                0x9d01662c       0x18 build/default/production/NxpNfcRdLib/comps/phacDiscLoop/src/Sw/phacDiscLoop_Sw_Int.o

.rodata.pfDeviceActivate.pfDeviceActivate
                0x9d016644       0x18
 .rodata.pfDeviceActivate.pfDeviceActivate
                0x9d016644       0x18 build/default/production/NxpNfcRdLib/comps/phacDiscLoop/src/Sw/phacDiscLoop_Sw_Int.o

.text           0x9d01665c       0x18
 .text          0x9d01665c       0x18 c:/program files (x86)/microchip/xc32/v2.05/bin/bin/../../lib/gcc/pic32mx/4.8.3/../../../../pic32mx/lib\libpic32.a(default-nmi-handler.o)
                0x9d01665c                _nmi_handler

.rodata.phhalHw_Pn5180_Instr_RO_Reg_Table.phhalHw_Pn5180_Instr_RO_Reg_Table
                0x9d016674        0x8
 .rodata.phhalHw_Pn5180_Instr_RO_Reg_Table.phhalHw_Pn5180_Instr_RO_Reg_Table
                0x9d016674        0x8 build/default/production/NxpNfcRdLib/comps/phhalHw/src/Pn5180/phhalHw_Pn5180_Instr.o

.text._on_reset
                0x9d01667c        0x8
 .text._on_reset
                0x9d01667c        0x8 c:/program files (x86)/microchip/xc32/v2.05/bin/bin/../../lib/gcc/pic32mx/4.8.3/../../../../pic32mx/lib\libpic32.a(default-on-reset.o)
                0x9d01667c                _on_reset

.text._on_bootstrap
                0x9d016684        0x8
 .text._on_bootstrap
                0x9d016684        0x8 c:/program files (x86)/microchip/xc32/v2.05/bin/bin/../../lib/gcc/pic32mx/4.8.3/../../../../pic32mx/lib\libpic32.a(default-on-bootstrap.o)
                0x9d016684                _on_bootstrap

.rodata.aCascadeCodes.aCascadeCodes
                0x9d01668c        0x4
 .rodata.aCascadeCodes.aCascadeCodes
                0x9d01668c        0x4 build/default/production/NxpNfcRdLib/comps/phacDiscLoop/src/Sw/phacDiscLoop_Sw_Int_A.o

.rodata.bHalEventName.bHalEventName
                0x9d016690        0x4
 .rodata.bHalEventName.bHalEventName
                0x9d016690        0x4 build/default/production/NxpNfcRdLib/comps/phhalHw/src/Pn5180/phhalHw_Pn5180.o

.rodata         0x9d016694        0x4
 .rodata        0x9d016694        0x4 build/default/production/NxpNfcRdLib/comps/phhalHw/src/Pn5180/phhalHw_Pn5180.o
